Archive member included to satisfy reference by file (symbol)

C:\Users\xboxl\Documents\Github\Ada_Drivers_Library_j\boards\MicroBit_v2\obj\zfp_lib_Debug\libada_drivers_library.a(cortex_m-nvic.o)
                              b__main.o (cortex_m__nvic_E)
C:\Users\xboxl\Documents\Github\Ada_Drivers_Library_j\boards\MicroBit_v2\obj\zfp_lib_Debug\libada_drivers_library.a(crt0.o)
                              (Reset_Handler)
C:\Users\xboxl\Documents\Github\Ada_Drivers_Library_j\boards\MicroBit_v2\obj\zfp_lib_Debug\libada_drivers_library.a(memory_barriers.o)
                              C:\Users\xboxl\Documents\Github\Ada_Drivers_Library_j\boards\MicroBit_v2\obj\zfp_lib_Debug\libada_drivers_library.a(cortex_m-nvic.o) (memory_barriers__data_synchronization_barrier)
C:\Users\xboxl\Documents\Github\Ada_Drivers_Library_j\boards\MicroBit_v2\obj\zfp_lib_Debug\libada_drivers_library.a(microbit-buttons.o)
                              main.o (microbit__buttons__state)
C:\Users\xboxl\Documents\Github\Ada_Drivers_Library_j\boards\MicroBit_v2\obj\zfp_lib_Debug\libada_drivers_library.a(microbit-console.o)
                              main.o (microbit__console__put_line)
C:\Users\xboxl\Documents\Github\Ada_Drivers_Library_j\boards\MicroBit_v2\obj\zfp_lib_Debug\libada_drivers_library.a(microbit-display-symbols.o)
                              b__main.o (microbit__display__symbols_E)
C:\Users\xboxl\Documents\Github\Ada_Drivers_Library_j\boards\MicroBit_v2\obj\zfp_lib_Debug\libada_drivers_library.a(microbit-display.o)
                              C:\Users\xboxl\Documents\Github\Ada_Drivers_Library_j\boards\MicroBit_v2\obj\zfp_lib_Debug\libada_drivers_library.a(microbit-display-symbols.o) (microbit__display__set)
C:\Users\xboxl\Documents\Github\Ada_Drivers_Library_j\boards\MicroBit_v2\obj\zfp_lib_Debug\libada_drivers_library.a(microbit-radio.o)
                              main.o (microbit__radio__transmit)
C:\Users\xboxl\Documents\Github\Ada_Drivers_Library_j\boards\MicroBit_v2\obj\zfp_lib_Debug\libada_drivers_library.a(microbit-time.o)
                              main.o (microbit__time__delay_ms)
C:\Users\xboxl\Documents\Github\Ada_Drivers_Library_j\boards\MicroBit_v2\obj\zfp_lib_Debug\libada_drivers_library.a(nrf-clock.o)
                              C:\Users\xboxl\Documents\Github\Ada_Drivers_Library_j\boards\MicroBit_v2\obj\zfp_lib_Debug\libada_drivers_library.a(microbit-time.o) (nrf__clock__set_low_freq_source)
C:\Users\xboxl\Documents\Github\Ada_Drivers_Library_j\boards\MicroBit_v2\obj\zfp_lib_Debug\libada_drivers_library.a(nrf-device.o)
                              b__main.o (nrf__device___elabb)
C:\Users\xboxl\Documents\Github\Ada_Drivers_Library_j\boards\MicroBit_v2\obj\zfp_lib_Debug\libada_drivers_library.a(nrf-events.o)
                              C:\Users\xboxl\Documents\Github\Ada_Drivers_Library_j\boards\MicroBit_v2\obj\zfp_lib_Debug\libada_drivers_library.a(microbit-radio.o) (nrf__events__triggered)
C:\Users\xboxl\Documents\Github\Ada_Drivers_Library_j\boards\MicroBit_v2\obj\zfp_lib_Debug\libada_drivers_library.a(nrf-gpio.o)
                              C:\Users\xboxl\Documents\Github\Ada_Drivers_Library_j\boards\MicroBit_v2\obj\zfp_lib_Debug\libada_drivers_library.a(microbit-buttons.o) (nrf__gpio__gpio_configurationIP)
C:\Users\xboxl\Documents\Github\Ada_Drivers_Library_j\boards\MicroBit_v2\obj\zfp_lib_Debug\libada_drivers_library.a(nrf-interrupts.o)
                              C:\Users\xboxl\Documents\Github\Ada_Drivers_Library_j\boards\MicroBit_v2\obj\zfp_lib_Debug\libada_drivers_library.a(microbit-radio.o) (nrf__interrupts__set_priority)
C:\Users\xboxl\Documents\Github\Ada_Drivers_Library_j\boards\MicroBit_v2\obj\zfp_lib_Debug\libada_drivers_library.a(nrf-radio.o)
                              C:\Users\xboxl\Documents\Github\Ada_Drivers_Library_j\boards\MicroBit_v2\obj\zfp_lib_Debug\libada_drivers_library.a(microbit-radio.o) (nrf__radio__setup_for_rf_nrf52)
C:\Users\xboxl\Documents\Github\Ada_Drivers_Library_j\boards\MicroBit_v2\obj\zfp_lib_Debug\libada_drivers_library.a(nrf-rtc.o)
                              C:\Users\xboxl\Documents\Github\Ada_Drivers_Library_j\boards\MicroBit_v2\obj\zfp_lib_Debug\libada_drivers_library.a(nrf-device.o) (nrf__rtc__real_time_counterIP)
C:\Users\xboxl\Documents\Github\Ada_Drivers_Library_j\boards\MicroBit_v2\obj\zfp_lib_Debug\libada_drivers_library.a(nrf-spi_master.o)
                              C:\Users\xboxl\Documents\Github\Ada_Drivers_Library_j\boards\MicroBit_v2\obj\zfp_lib_Debug\libada_drivers_library.a(nrf-device.o) (nrf__spi_master__spi_masterIP)
C:\Users\xboxl\Documents\Github\Ada_Drivers_Library_j\boards\MicroBit_v2\obj\zfp_lib_Debug\libada_drivers_library.a(nrf-tasks.o)
                              C:\Users\xboxl\Documents\Github\Ada_Drivers_Library_j\boards\MicroBit_v2\obj\zfp_lib_Debug\libada_drivers_library.a(microbit-radio.o) (nrf__tasks__trigger)
C:\Users\xboxl\Documents\Github\Ada_Drivers_Library_j\boards\MicroBit_v2\obj\zfp_lib_Debug\libada_drivers_library.a(nrf-timers.o)
                              C:\Users\xboxl\Documents\Github\Ada_Drivers_Library_j\boards\MicroBit_v2\obj\zfp_lib_Debug\libada_drivers_library.a(nrf-device.o) (nrf__timers__timerIP)
C:\Users\xboxl\Documents\Github\Ada_Drivers_Library_j\boards\MicroBit_v2\obj\zfp_lib_Debug\libada_drivers_library.a(nrf-twi.o)
                              C:\Users\xboxl\Documents\Github\Ada_Drivers_Library_j\boards\MicroBit_v2\obj\zfp_lib_Debug\libada_drivers_library.a(nrf-device.o) (nrf__twi__twi_masterIP)
C:\Users\xboxl\Documents\Github\Ada_Drivers_Library_j\boards\MicroBit_v2\obj\zfp_lib_Debug\libada_drivers_library.a(nrf-uart.o)
                              C:\Users\xboxl\Documents\Github\Ada_Drivers_Library_j\boards\MicroBit_v2\obj\zfp_lib_Debug\libada_drivers_library.a(nrf-device.o) (nrf__uart__uart_deviceIP)
C:\Users\xboxl\Documents\Github\Ada_Drivers_Library_j\boards\MicroBit_v2\obj\zfp_lib_Debug\libada_drivers_library.a(nrf_svd-gpio.o)
                              C:\Users\xboxl\Documents\Github\Ada_Drivers_Library_j\boards\MicroBit_v2\obj\zfp_lib_Debug\libada_drivers_library.a(nrf-gpio.o) (nrf_svd__gpio__pin_cnf_pull_fieldRP)
C:\Users\xboxl\Documents\Github\Ada_Drivers_Library_j\boards\MicroBit_v2\obj\zfp_lib_Debug\libada_drivers_library.a(nrf_svd-radio.o)
                              C:\Users\xboxl\Documents\Github\Ada_Drivers_Library_j\boards\MicroBit_v2\obj\zfp_lib_Debug\libada_drivers_library.a(nrf-radio.o) (nrf_svd__radio__txpower_txpower_fieldRP)
C:\Users\xboxl\Documents\Github\Ada_Drivers_Library_j\boards\MicroBit_v2\obj\zfp_lib_Debug\libada_drivers_library.a(nrf_svd-twi.o)
                              C:\Users\xboxl\Documents\Github\Ada_Drivers_Library_j\boards\MicroBit_v2\obj\zfp_lib_Debug\libada_drivers_library.a(nrf-twi.o) (nrf_svd__twi__errorsrc_registerIP)
C:\Users\xboxl\Documents\Github\Ada_Drivers_Library_j\boards\MicroBit_v2\obj\zfp_lib_Debug\libada_drivers_library.a(hal-gpio.o)
                              C:\Users\xboxl\Documents\Github\Ada_Drivers_Library_j\boards\MicroBit_v2\obj\zfp_lib_Debug\libada_drivers_library.a(nrf-gpio.o) (hal__gpio__gpio_pointT)
C:\Users\xboxl\Documents\Github\Ada_Drivers_Library_j\boards\MicroBit_v2\obj\zfp_lib_Debug\libada_drivers_library.a(hal-i2c.o)
                              C:\Users\xboxl\Documents\Github\Ada_Drivers_Library_j\boards\MicroBit_v2\obj\zfp_lib_Debug\libada_drivers_library.a(nrf-twi.o) (hal__i2c__i2c_portT)
C:\Users\xboxl\Documents\Github\Ada_Drivers_Library_j\boards\MicroBit_v2\obj\zfp_lib_Debug\libada_drivers_library.a(hal-spi.o)
                              C:\Users\xboxl\Documents\Github\Ada_Drivers_Library_j\boards\MicroBit_v2\obj\zfp_lib_Debug\libada_drivers_library.a(nrf-spi_master.o) (hal__spi__spi_portT)
C:\Users\xboxl\Documents\Github\Ada_Drivers_Library_j\boards\MicroBit_v2\obj\zfp_lib_Debug\libada_drivers_library.a(hal-time.o)
                              C:\Users\xboxl\Documents\Github\Ada_Drivers_Library_j\boards\MicroBit_v2\obj\zfp_lib_Debug\libada_drivers_library.a(microbit-time.o) (hal__time__delaysT)
C:\Users\xboxl\Documents\Github\Ada_Drivers_Library_j\boards\MicroBit_v2\obj\zfp_lib_Debug\libada_drivers_library.a(hal-uart.o)
                              C:\Users\xboxl\Documents\Github\Ada_Drivers_Library_j\boards\MicroBit_v2\obj\zfp_lib_Debug\libada_drivers_library.a(nrf-uart.o) (hal__uart__uart_portT)
C:\gnat\2021-arm-elf\arm-eabi\lib\gnat\zfp-cortex-m4f\adalib\libgnat.a(a-elchha.o)
                              C:\Users\xboxl\Documents\Github\Ada_Drivers_Library_j\boards\MicroBit_v2\obj\zfp_lib_Debug\libada_drivers_library.a(cortex_m-nvic.o) (__gnat_last_chance_handler)
C:\gnat\2021-arm-elf\arm-eabi\lib\gnat\zfp-cortex-m4f\adalib\libgnat.a(g-io.o)
                              C:\gnat\2021-arm-elf\arm-eabi\lib\gnat\zfp-cortex-m4f\adalib\libgnat.a(a-elchha.o) (gnat__io__put__2)
C:\gnat\2021-arm-elf\arm-eabi\lib\gnat\zfp-cortex-m4f\adalib\libgnat.a(s-assert.o)
                              C:\Users\xboxl\Documents\Github\Ada_Drivers_Library_j\boards\MicroBit_v2\obj\zfp_lib_Debug\libada_drivers_library.a(microbit-display.o) (system__assertions__raise_assert_failure)
C:\gnat\2021-arm-elf\arm-eabi\lib\gnat\zfp-cortex-m4f\adalib\libgnat.a(s-imglli.o)
                              C:\Users\xboxl\Documents\Github\Ada_Drivers_Library_j\boards\MicroBit_v2\obj\zfp_lib_Debug\libada_drivers_library.a(microbit-radio.o) (system__img_lli__impl__image_integer)
C:\gnat\2021-arm-elf\arm-eabi\lib\gnat\zfp-cortex-m4f\adalib\libgnat.a(s-imguns.o)
                              main.o (system__img_uns__impl__image_unsigned)
C:\gnat\2021-arm-elf\arm-eabi\lib\gnat\zfp-cortex-m4f\adalib\libgnat.a(s-macres.o)
                              C:\Users\xboxl\Documents\Github\Ada_Drivers_Library_j\boards\MicroBit_v2\obj\zfp_lib_Debug\libada_drivers_library.a(crt0.o) (_exit)
C:\gnat\2021-arm-elf\arm-eabi\lib\gnat\zfp-cortex-m4f\adalib\libgnat.a(s-memcom.o)
                              C:\Users\xboxl\Documents\Github\Ada_Drivers_Library_j\boards\MicroBit_v2\obj\zfp_lib_Debug\libada_drivers_library.a(nrf_svd-radio.o) (memcmp)
C:\gnat\2021-arm-elf\arm-eabi\lib\gnat\zfp-cortex-m4f\adalib\libgnat.a(s-memcop.o)
                              main.o (memcpy)
C:\gnat\2021-arm-elf\arm-eabi\lib\gnat\zfp-cortex-m4f\adalib\libgnat.a(s-memmov.o)
                              C:\Users\xboxl\Documents\Github\Ada_Drivers_Library_j\boards\MicroBit_v2\obj\zfp_lib_Debug\libada_drivers_library.a(microbit-display.o) (memmove)
C:\gnat\2021-arm-elf\arm-eabi\lib\gnat\zfp-cortex-m4f\adalib\libgnat.a(s-memset.o)
                              main.o (memset)
C:\gnat\2021-arm-elf\arm-eabi\lib\gnat\zfp-cortex-m4f\adalib\libgnat.a(s-secsta.o)
                              b__main.o (system__secondary_stack__ss_stackIP)
C:\gnat\2021-arm-elf\arm-eabi\lib\gnat\zfp-cortex-m4f\adalib\libgnat.a(s-sssita.o)
                              C:\gnat\2021-arm-elf\arm-eabi\lib\gnat\zfp-cortex-m4f\adalib\libgnat.a(s-secsta.o) (__gnat_get_secondary_stack)
C:\gnat\2021-arm-elf\arm-eabi\lib\gnat\zfp-cortex-m4f\adalib\libgnat.a(s-textio.o)
                              C:\gnat\2021-arm-elf\arm-eabi\lib\gnat\zfp-cortex-m4f\adalib\libgnat.a(g-io.o) (system__text_io__initialize)
C:\gnat\2021-arm-elf\arm-eabi\lib\gnat\zfp-cortex-m4f\adalib\libgnat.a(a-assert.o)
                              C:\gnat\2021-arm-elf\arm-eabi\lib\gnat\zfp-cortex-m4f\adalib\libgnat.a(s-assert.o) (ada__assertions__assertion_error)
C:\gnat\2021-arm-elf\arm-eabi\lib\gnat\zfp-cortex-m4f\adalib\libgnat.a(a-except.o)
                              C:\gnat\2021-arm-elf\arm-eabi\lib\gnat\zfp-cortex-m4f\adalib\libgnat.a(s-assert.o) (ada__exceptions__call_last_chance_handler_with_message)
C:\gnat\2021-arm-elf\arm-eabi\lib\gnat\zfp-cortex-m4f\adalib\libgnat.a(s-semiho.o)
                              C:\gnat\2021-arm-elf\arm-eabi\lib\gnat\zfp-cortex-m4f\adalib\libgnat.a(s-textio.o) (system__semihosting__put)
c:/gnat/2021-arm-elf/bin/../lib/gcc/arm-eabi/10.3.1/thumb/v7e-m/fpv4-sp/hard\libgcc.a(_aeabi_ldivmod.o)
                              C:\gnat\2021-arm-elf\arm-eabi\lib\gnat\zfp-cortex-m4f\adalib\libgnat.a(s-imglli.o) (__aeabi_ldivmod)
c:/gnat/2021-arm-elf/bin/../lib/gcc/arm-eabi/10.3.1/thumb/v7e-m/fpv4-sp/hard\libgcc.a(_udivmoddi4.o)
                              c:/gnat/2021-arm-elf/bin/../lib/gcc/arm-eabi/10.3.1/thumb/v7e-m/fpv4-sp/hard\libgcc.a(_aeabi_ldivmod.o) (__udivmoddi4)
c:/gnat/2021-arm-elf/bin/../lib/gcc/arm-eabi/10.3.1/thumb/v7e-m/fpv4-sp/hard\libgcc.a(_dvmd_tls.o)
                              c:/gnat/2021-arm-elf/bin/../lib/gcc/arm-eabi/10.3.1/thumb/v7e-m/fpv4-sp/hard\libgcc.a(_aeabi_ldivmod.o) (__aeabi_ldiv0)

Discarded input sections

 .data          0x0000000000000000        0x0 main.o
 .bss           0x0000000000000000        0x0 main.o
 .data          0x0000000000000000        0x2 b__main.o
 .text          0x0000000000000000        0x0 C:\Users\xboxl\Documents\Github\Ada_Drivers_Library_j\boards\MicroBit_v2\obj\zfp_lib_Debug\libada_drivers_library.a(cortex_m-nvic.o)
 .data          0x0000000000000000        0x0 C:\Users\xboxl\Documents\Github\Ada_Drivers_Library_j\boards\MicroBit_v2\obj\zfp_lib_Debug\libada_drivers_library.a(cortex_m-nvic.o)
 .bss           0x0000000000000000        0x0 C:\Users\xboxl\Documents\Github\Ada_Drivers_Library_j\boards\MicroBit_v2\obj\zfp_lib_Debug\libada_drivers_library.a(cortex_m-nvic.o)
 .text.cortex_m__nvic__uint8sIP
                0x0000000000000000       0x14 C:\Users\xboxl\Documents\Github\Ada_Drivers_Library_j\boards\MicroBit_v2\obj\zfp_lib_Debug\libada_drivers_library.a(cortex_m-nvic.o)
 .text.cortex_m__nvic__wordsIP
                0x0000000000000000       0x14 C:\Users\xboxl\Documents\Github\Ada_Drivers_Library_j\boards\MicroBit_v2\obj\zfp_lib_Debug\libada_drivers_library.a(cortex_m-nvic.o)
 .text.cortex_m__nvic__system_control_blockIP
                0x0000000000000000       0x14 C:\Users\xboxl\Documents\Github\Ada_Drivers_Library_j\boards\MicroBit_v2\obj\zfp_lib_Debug\libada_drivers_library.a(cortex_m-nvic.o)
 .text.cortex_m__nvic__nested_vectored_interrupt_controllerIP
                0x0000000000000000       0x14 C:\Users\xboxl\Documents\Github\Ada_Drivers_Library_j\boards\MicroBit_v2\obj\zfp_lib_Debug\libada_drivers_library.a(cortex_m-nvic.o)
 .text.cortex_m__nvic__priority_grouping
                0x0000000000000000       0x20 C:\Users\xboxl\Documents\Github\Ada_Drivers_Library_j\boards\MicroBit_v2\obj\zfp_lib_Debug\libada_drivers_library.a(cortex_m-nvic.o)
 .text.cortex_m__nvic__set_priority_grouping
                0x0000000000000000       0x48 C:\Users\xboxl\Documents\Github\Ada_Drivers_Library_j\boards\MicroBit_v2\obj\zfp_lib_Debug\libada_drivers_library.a(cortex_m-nvic.o)
 .text.cortex_m__nvic__encoded_priority
                0x0000000000000000       0xd4 C:\Users\xboxl\Documents\Github\Ada_Drivers_Library_j\boards\MicroBit_v2\obj\zfp_lib_Debug\libada_drivers_library.a(cortex_m-nvic.o)
 .text.cortex_m__nvic__set_priority__2
                0x0000000000000000       0x2c C:\Users\xboxl\Documents\Github\Ada_Drivers_Library_j\boards\MicroBit_v2\obj\zfp_lib_Debug\libada_drivers_library.a(cortex_m-nvic.o)
 .text.cortex_m__nvic__active
                0x0000000000000000       0x7c C:\Users\xboxl\Documents\Github\Ada_Drivers_Library_j\boards\MicroBit_v2\obj\zfp_lib_Debug\libada_drivers_library.a(cortex_m-nvic.o)
 .text.cortex_m__nvic__pending
                0x0000000000000000       0x7c C:\Users\xboxl\Documents\Github\Ada_Drivers_Library_j\boards\MicroBit_v2\obj\zfp_lib_Debug\libada_drivers_library.a(cortex_m-nvic.o)
 .text.cortex_m__nvic__set_pending
                0x0000000000000000       0x68 C:\Users\xboxl\Documents\Github\Ada_Drivers_Library_j\boards\MicroBit_v2\obj\zfp_lib_Debug\libada_drivers_library.a(cortex_m-nvic.o)
 .text.cortex_m__nvic__reset_system
                0x0000000000000000       0x28 C:\Users\xboxl\Documents\Github\Ada_Drivers_Library_j\boards\MicroBit_v2\obj\zfp_lib_Debug\libada_drivers_library.a(cortex_m-nvic.o)
 .rodata.cortex_m__nvic__priority_group_0
                0x0000000000000000        0x4 C:\Users\xboxl\Documents\Github\Ada_Drivers_Library_j\boards\MicroBit_v2\obj\zfp_lib_Debug\libada_drivers_library.a(cortex_m-nvic.o)
 .rodata.cortex_m__nvic__priority_group_1
                0x0000000000000000        0x4 C:\Users\xboxl\Documents\Github\Ada_Drivers_Library_j\boards\MicroBit_v2\obj\zfp_lib_Debug\libada_drivers_library.a(cortex_m-nvic.o)
 .rodata.cortex_m__nvic__priority_group_2
                0x0000000000000000        0x4 C:\Users\xboxl\Documents\Github\Ada_Drivers_Library_j\boards\MicroBit_v2\obj\zfp_lib_Debug\libada_drivers_library.a(cortex_m-nvic.o)
 .rodata.cortex_m__nvic__priority_group_3
                0x0000000000000000        0x4 C:\Users\xboxl\Documents\Github\Ada_Drivers_Library_j\boards\MicroBit_v2\obj\zfp_lib_Debug\libada_drivers_library.a(cortex_m-nvic.o)
 .rodata.cortex_m__nvic__priority_group_4
                0x0000000000000000        0x4 C:\Users\xboxl\Documents\Github\Ada_Drivers_Library_j\boards\MicroBit_v2\obj\zfp_lib_Debug\libada_drivers_library.a(cortex_m-nvic.o)
 .rodata.cortex_m__nvic__scb_aircr_prigroup_mask
                0x0000000000000000        0x4 C:\Users\xboxl\Documents\Github\Ada_Drivers_Library_j\boards\MicroBit_v2\obj\zfp_lib_Debug\libada_drivers_library.a(cortex_m-nvic.o)
 .rodata.cortex_m__nvic__scb_aircr_vectkey_mask
                0x0000000000000000        0x4 C:\Users\xboxl\Documents\Github\Ada_Drivers_Library_j\boards\MicroBit_v2\obj\zfp_lib_Debug\libada_drivers_library.a(cortex_m-nvic.o)
 .rodata.cortex_m__nvic__scb_aircr_sysresetreq_mask
                0x0000000000000000        0x4 C:\Users\xboxl\Documents\Github\Ada_Drivers_Library_j\boards\MicroBit_v2\obj\zfp_lib_Debug\libada_drivers_library.a(cortex_m-nvic.o)
 .rodata.cortex_m__nvic__scb
                0x0000000000000000        0x4 C:\Users\xboxl\Documents\Github\Ada_Drivers_Library_j\boards\MicroBit_v2\obj\zfp_lib_Debug\libada_drivers_library.a(cortex_m-nvic.o)
 .rodata.cortex_m__nvic__nvic
                0x0000000000000000        0x4 C:\Users\xboxl\Documents\Github\Ada_Drivers_Library_j\boards\MicroBit_v2\obj\zfp_lib_Debug\libada_drivers_library.a(cortex_m-nvic.o)
 .data          0x0000000000000000        0x0 C:\Users\xboxl\Documents\Github\Ada_Drivers_Library_j\boards\MicroBit_v2\obj\zfp_lib_Debug\libada_drivers_library.a(crt0.o)
 .bss           0x0000000000000000        0x0 C:\Users\xboxl\Documents\Github\Ada_Drivers_Library_j\boards\MicroBit_v2\obj\zfp_lib_Debug\libada_drivers_library.a(crt0.o)
 .text          0x0000000000000000        0x0 C:\Users\xboxl\Documents\Github\Ada_Drivers_Library_j\boards\MicroBit_v2\obj\zfp_lib_Debug\libada_drivers_library.a(memory_barriers.o)
 .data          0x0000000000000000        0x0 C:\Users\xboxl\Documents\Github\Ada_Drivers_Library_j\boards\MicroBit_v2\obj\zfp_lib_Debug\libada_drivers_library.a(memory_barriers.o)
 .bss           0x0000000000000000        0x0 C:\Users\xboxl\Documents\Github\Ada_Drivers_Library_j\boards\MicroBit_v2\obj\zfp_lib_Debug\libada_drivers_library.a(memory_barriers.o)
 .text.memory_barriers__data_synchronization_barrier
                0x0000000000000000       0x10 C:\Users\xboxl\Documents\Github\Ada_Drivers_Library_j\boards\MicroBit_v2\obj\zfp_lib_Debug\libada_drivers_library.a(memory_barriers.o)
 .text          0x0000000000000000        0x0 C:\Users\xboxl\Documents\Github\Ada_Drivers_Library_j\boards\MicroBit_v2\obj\zfp_lib_Debug\libada_drivers_library.a(microbit-buttons.o)
 .data          0x0000000000000000        0x0 C:\Users\xboxl\Documents\Github\Ada_Drivers_Library_j\boards\MicroBit_v2\obj\zfp_lib_Debug\libada_drivers_library.a(microbit-buttons.o)
 .bss           0x0000000000000000        0x0 C:\Users\xboxl\Documents\Github\Ada_Drivers_Library_j\boards\MicroBit_v2\obj\zfp_lib_Debug\libada_drivers_library.a(microbit-buttons.o)
 .text.microbit__buttons__Tbutton_state_arrayBIP
                0x0000000000000000       0x14 C:\Users\xboxl\Documents\Github\Ada_Drivers_Library_j\boards\MicroBit_v2\obj\zfp_lib_Debug\libada_drivers_library.a(microbit-buttons.o)
 .text.microbit__buttons__subscribe
                0x0000000000000000       0x4c C:\Users\xboxl\Documents\Github\Ada_Drivers_Library_j\boards\MicroBit_v2\obj\zfp_lib_Debug\libada_drivers_library.a(microbit-buttons.o)
 .text.microbit__buttons__unsubscribe
                0x0000000000000000       0x50 C:\Users\xboxl\Documents\Github\Ada_Drivers_Library_j\boards\MicroBit_v2\obj\zfp_lib_Debug\libada_drivers_library.a(microbit-buttons.o)
 .text          0x0000000000000000        0x0 C:\Users\xboxl\Documents\Github\Ada_Drivers_Library_j\boards\MicroBit_v2\obj\zfp_lib_Debug\libada_drivers_library.a(microbit-console.o)
 .data          0x0000000000000000        0x0 C:\Users\xboxl\Documents\Github\Ada_Drivers_Library_j\boards\MicroBit_v2\obj\zfp_lib_Debug\libada_drivers_library.a(microbit-console.o)
 .bss           0x0000000000000000        0x0 C:\Users\xboxl\Documents\Github\Ada_Drivers_Library_j\boards\MicroBit_v2\obj\zfp_lib_Debug\libada_drivers_library.a(microbit-console.o)
 .text.microbit__console__get
                0x0000000000000000       0x38 C:\Users\xboxl\Documents\Github\Ada_Drivers_Library_j\boards\MicroBit_v2\obj\zfp_lib_Debug\libada_drivers_library.a(microbit-console.o)
 .text.microbit__console__put
                0x0000000000000000       0x38 C:\Users\xboxl\Documents\Github\Ada_Drivers_Library_j\boards\MicroBit_v2\obj\zfp_lib_Debug\libada_drivers_library.a(microbit-console.o)
 .text.microbit__console__put__2
                0x0000000000000000       0xd4 C:\Users\xboxl\Documents\Github\Ada_Drivers_Library_j\boards\MicroBit_v2\obj\zfp_lib_Debug\libada_drivers_library.a(microbit-console.o)
 .text.microbit__console__new_line
                0x0000000000000000       0x1c C:\Users\xboxl\Documents\Github\Ada_Drivers_Library_j\boards\MicroBit_v2\obj\zfp_lib_Debug\libada_drivers_library.a(microbit-console.o)
 .rodata.microbit__console__uart
                0x0000000000000000        0x4 C:\Users\xboxl\Documents\Github\Ada_Drivers_Library_j\boards\MicroBit_v2\obj\zfp_lib_Debug\libada_drivers_library.a(microbit-console.o)
 .text          0x0000000000000000        0x0 C:\Users\xboxl\Documents\Github\Ada_Drivers_Library_j\boards\MicroBit_v2\obj\zfp_lib_Debug\libada_drivers_library.a(microbit-display-symbols.o)
 .data          0x0000000000000000        0x0 C:\Users\xboxl\Documents\Github\Ada_Drivers_Library_j\boards\MicroBit_v2\obj\zfp_lib_Debug\libada_drivers_library.a(microbit-display-symbols.o)
 .bss           0x0000000000000000        0x0 C:\Users\xboxl\Documents\Github\Ada_Drivers_Library_j\boards\MicroBit_v2\obj\zfp_lib_Debug\libada_drivers_library.a(microbit-display-symbols.o)
 .text.microbit__display__symbols__left_arrow
                0x0000000000000000       0x58 C:\Users\xboxl\Documents\Github\Ada_Drivers_Library_j\boards\MicroBit_v2\obj\zfp_lib_Debug\libada_drivers_library.a(microbit-display-symbols.o)
 .text.microbit__display__symbols__right_arrow
                0x0000000000000000       0x50 C:\Users\xboxl\Documents\Github\Ada_Drivers_Library_j\boards\MicroBit_v2\obj\zfp_lib_Debug\libada_drivers_library.a(microbit-display-symbols.o)
 .text.microbit__display__symbols__up_arrow
                0x0000000000000000       0x50 C:\Users\xboxl\Documents\Github\Ada_Drivers_Library_j\boards\MicroBit_v2\obj\zfp_lib_Debug\libada_drivers_library.a(microbit-display-symbols.o)
 .text.microbit__display__symbols__down_arrow
                0x0000000000000000       0x50 C:\Users\xboxl\Documents\Github\Ada_Drivers_Library_j\boards\MicroBit_v2\obj\zfp_lib_Debug\libada_drivers_library.a(microbit-display-symbols.o)
 .text.microbit__display__symbols__smile
                0x0000000000000000       0x40 C:\Users\xboxl\Documents\Github\Ada_Drivers_Library_j\boards\MicroBit_v2\obj\zfp_lib_Debug\libada_drivers_library.a(microbit-display-symbols.o)
 .text.microbit__display__symbols__frown
                0x0000000000000000       0x40 C:\Users\xboxl\Documents\Github\Ada_Drivers_Library_j\boards\MicroBit_v2\obj\zfp_lib_Debug\libada_drivers_library.a(microbit-display-symbols.o)
 .text.microbit__display__symbols__cross
                0x0000000000000000       0x50 C:\Users\xboxl\Documents\Github\Ada_Drivers_Library_j\boards\MicroBit_v2\obj\zfp_lib_Debug\libada_drivers_library.a(microbit-display-symbols.o)
 .text.microbit__display__symbols__checkmark
                0x0000000000000000       0x30 C:\Users\xboxl\Documents\Github\Ada_Drivers_Library_j\boards\MicroBit_v2\obj\zfp_lib_Debug\libada_drivers_library.a(microbit-display-symbols.o)
 .text.microbit__display__symbols__heart
                0x0000000000000000       0x58 C:\Users\xboxl\Documents\Github\Ada_Drivers_Library_j\boards\MicroBit_v2\obj\zfp_lib_Debug\libada_drivers_library.a(microbit-display-symbols.o)
 .text          0x0000000000000000        0x0 C:\Users\xboxl\Documents\Github\Ada_Drivers_Library_j\boards\MicroBit_v2\obj\zfp_lib_Debug\libada_drivers_library.a(microbit-display.o)
 .data          0x0000000000000000        0x0 C:\Users\xboxl\Documents\Github\Ada_Drivers_Library_j\boards\MicroBit_v2\obj\zfp_lib_Debug\libada_drivers_library.a(microbit-display.o)
 .bss           0x0000000000000000        0x0 C:\Users\xboxl\Documents\Github\Ada_Drivers_Library_j\boards\MicroBit_v2\obj\zfp_lib_Debug\libada_drivers_library.a(microbit-display.o)
 .text.microbit__display__led_pointIP
                0x0000000000000000       0x14 C:\Users\xboxl\Documents\Github\Ada_Drivers_Library_j\boards\MicroBit_v2\obj\zfp_lib_Debug\libada_drivers_library.a(microbit-display.o)
 .text.microbit__display__TglyphBIP
                0x0000000000000000       0x14 C:\Users\xboxl\Documents\Github\Ada_Drivers_Library_j\boards\MicroBit_v2\obj\zfp_lib_Debug\libada_drivers_library.a(microbit-display.o)
 .text.microbit__display__set
                0x0000000000000000       0x4c C:\Users\xboxl\Documents\Github\Ada_Drivers_Library_j\boards\MicroBit_v2\obj\zfp_lib_Debug\libada_drivers_library.a(microbit-display.o)
 .text.microbit__display__clear
                0x0000000000000000       0x4c C:\Users\xboxl\Documents\Github\Ada_Drivers_Library_j\boards\MicroBit_v2\obj\zfp_lib_Debug\libada_drivers_library.a(microbit-display.o)
 .text.microbit__display__clear__2
                0x0000000000000000       0x18 C:\Users\xboxl\Documents\Github\Ada_Drivers_Library_j\boards\MicroBit_v2\obj\zfp_lib_Debug\libada_drivers_library.a(microbit-display.o)
 .text.microbit__display__display
                0x0000000000000000       0x1c C:\Users\xboxl\Documents\Github\Ada_Drivers_Library_j\boards\MicroBit_v2\obj\zfp_lib_Debug\libada_drivers_library.a(microbit-display.o)
 .text.microbit__display__display__2
                0x0000000000000000       0x68 C:\Users\xboxl\Documents\Github\Ada_Drivers_Library_j\boards\MicroBit_v2\obj\zfp_lib_Debug\libada_drivers_library.a(microbit-display.o)
 .text.microbit__display__display_async
                0x0000000000000000      0x178 C:\Users\xboxl\Documents\Github\Ada_Drivers_Library_j\boards\MicroBit_v2\obj\zfp_lib_Debug\libada_drivers_library.a(microbit-display.o)
 .text.microbit__display__set_animation_step_duration
                0x0000000000000000       0x1c C:\Users\xboxl\Documents\Github\Ada_Drivers_Library_j\boards\MicroBit_v2\obj\zfp_lib_Debug\libada_drivers_library.a(microbit-display.o)
 .text.microbit__display__animation_in_progress
                0x0000000000000000       0x24 C:\Users\xboxl\Documents\Github\Ada_Drivers_Library_j\boards\MicroBit_v2\obj\zfp_lib_Debug\libada_drivers_library.a(microbit-display.o)
 .text          0x0000000000000000        0x0 C:\Users\xboxl\Documents\Github\Ada_Drivers_Library_j\boards\MicroBit_v2\obj\zfp_lib_Debug\libada_drivers_library.a(microbit-radio.o)
 .data          0x0000000000000000        0x0 C:\Users\xboxl\Documents\Github\Ada_Drivers_Library_j\boards\MicroBit_v2\obj\zfp_lib_Debug\libada_drivers_library.a(microbit-radio.o)
 .bss           0x0000000000000000        0x0 C:\Users\xboxl\Documents\Github\Ada_Drivers_Library_j\boards\MicroBit_v2\obj\zfp_lib_Debug\libada_drivers_library.a(microbit-radio.o)
 .rodata        0x0000000000000000       0x29 C:\Users\xboxl\Documents\Github\Ada_Drivers_Library_j\boards\MicroBit_v2\obj\zfp_lib_Debug\libada_drivers_library.a(microbit-radio.o)
 .text.microbit__radio__state
                0x0000000000000000      0x110 C:\Users\xboxl\Documents\Github\Ada_Drivers_Library_j\boards\MicroBit_v2\obj\zfp_lib_Debug\libada_drivers_library.a(microbit-radio.o)
 .text.microbit__radio__isinitialized
                0x0000000000000000       0x10 C:\Users\xboxl\Documents\Github\Ada_Drivers_Library_j\boards\MicroBit_v2\obj\zfp_lib_Debug\libada_drivers_library.a(microbit-radio.o)
 .text.microbit__radio__dataready
                0x0000000000000000       0x10 C:\Users\xboxl\Documents\Github\Ada_Drivers_Library_j\boards\MicroBit_v2\obj\zfp_lib_Debug\libada_drivers_library.a(microbit-radio.o)
 .text.microbit__radio__receive
                0x0000000000000000       0x34 C:\Users\xboxl\Documents\Github\Ada_Drivers_Library_j\boards\MicroBit_v2\obj\zfp_lib_Debug\libada_drivers_library.a(microbit-radio.o)
 .text          0x0000000000000000        0x0 C:\Users\xboxl\Documents\Github\Ada_Drivers_Library_j\boards\MicroBit_v2\obj\zfp_lib_Debug\libada_drivers_library.a(microbit-time.o)
 .data          0x0000000000000000        0x0 C:\Users\xboxl\Documents\Github\Ada_Drivers_Library_j\boards\MicroBit_v2\obj\zfp_lib_Debug\libada_drivers_library.a(microbit-time.o)
 .bss           0x0000000000000000        0x0 C:\Users\xboxl\Documents\Github\Ada_Drivers_Library_j\boards\MicroBit_v2\obj\zfp_lib_Debug\libada_drivers_library.a(microbit-time.o)
 .text.microbit__time__tick_period
                0x0000000000000000       0x1c C:\Users\xboxl\Documents\Github\Ada_Drivers_Library_j\boards\MicroBit_v2\obj\zfp_lib_Debug\libada_drivers_library.a(microbit-time.o)
 .text.microbit__time__tick_unsubscribe___postconditions.1
                0x0000000000000000       0x50 C:\Users\xboxl\Documents\Github\Ada_Drivers_Library_j\boards\MicroBit_v2\obj\zfp_lib_Debug\libada_drivers_library.a(microbit-time.o)
 .text.microbit__time__tick_unsubscribe
                0x0000000000000000       0x94 C:\Users\xboxl\Documents\Github\Ada_Drivers_Library_j\boards\MicroBit_v2\obj\zfp_lib_Debug\libada_drivers_library.a(microbit-time.o)
 .text.microbit__time__hal_delay
                0x0000000000000000       0x18 C:\Users\xboxl\Documents\Github\Ada_Drivers_Library_j\boards\MicroBit_v2\obj\zfp_lib_Debug\libada_drivers_library.a(microbit-time.o)
 .rodata.microbit__time__mb_delaysY
                0x0000000000000000        0x4 C:\Users\xboxl\Documents\Github\Ada_Drivers_Library_j\boards\MicroBit_v2\obj\zfp_lib_Debug\libada_drivers_library.a(microbit-time.o)
 .rodata.microbit__time__period_ms
                0x0000000000000000        0x8 C:\Users\xboxl\Documents\Github\Ada_Drivers_Library_j\boards\MicroBit_v2\obj\zfp_lib_Debug\libada_drivers_library.a(microbit-time.o)
 .rodata.microbit__time__mb_delaysP
                0x0000000000000000        0x4 C:\Users\xboxl\Documents\Github\Ada_Drivers_Library_j\boards\MicroBit_v2\obj\zfp_lib_Debug\libada_drivers_library.a(microbit-time.o)
 .rodata.microbit__time__mb_delaysR19s
                0x0000000000000000        0x4 C:\Users\xboxl\Documents\Github\Ada_Drivers_Library_j\boards\MicroBit_v2\obj\zfp_lib_Debug\libada_drivers_library.a(microbit-time.o)
 .text          0x0000000000000000        0x0 C:\Users\xboxl\Documents\Github\Ada_Drivers_Library_j\boards\MicroBit_v2\obj\zfp_lib_Debug\libada_drivers_library.a(nrf-clock.o)
 .data          0x0000000000000000        0x0 C:\Users\xboxl\Documents\Github\Ada_Drivers_Library_j\boards\MicroBit_v2\obj\zfp_lib_Debug\libada_drivers_library.a(nrf-clock.o)
 .bss           0x0000000000000000        0x0 C:\Users\xboxl\Documents\Github\Ada_Drivers_Library_j\boards\MicroBit_v2\obj\zfp_lib_Debug\libada_drivers_library.a(nrf-clock.o)
 .text.nrf__clock__set_high_freq_external_frequency
                0x0000000000000000       0x18 C:\Users\xboxl\Documents\Github\Ada_Drivers_Library_j\boards\MicroBit_v2\obj\zfp_lib_Debug\libada_drivers_library.a(nrf-clock.o)
 .text.nrf__clock__high_freq_source
                0x0000000000000000       0x34 C:\Users\xboxl\Documents\Github\Ada_Drivers_Library_j\boards\MicroBit_v2\obj\zfp_lib_Debug\libada_drivers_library.a(nrf-clock.o)
 .text.nrf__clock__stop_high_freq
                0x0000000000000000       0x10 C:\Users\xboxl\Documents\Github\Ada_Drivers_Library_j\boards\MicroBit_v2\obj\zfp_lib_Debug\libada_drivers_library.a(nrf-clock.o)
 .text.nrf__clock__low_freq_source
                0x0000000000000000       0x40 C:\Users\xboxl\Documents\Github\Ada_Drivers_Library_j\boards\MicroBit_v2\obj\zfp_lib_Debug\libada_drivers_library.a(nrf-clock.o)
 .text.nrf__clock__stop_low_freq
                0x0000000000000000       0x10 C:\Users\xboxl\Documents\Github\Ada_Drivers_Library_j\boards\MicroBit_v2\obj\zfp_lib_Debug\libada_drivers_library.a(nrf-clock.o)
 .text          0x0000000000000000        0x0 C:\Users\xboxl\Documents\Github\Ada_Drivers_Library_j\boards\MicroBit_v2\obj\zfp_lib_Debug\libada_drivers_library.a(nrf-device.o)
 .data          0x0000000000000000        0x0 C:\Users\xboxl\Documents\Github\Ada_Drivers_Library_j\boards\MicroBit_v2\obj\zfp_lib_Debug\libada_drivers_library.a(nrf-device.o)
 .bss           0x0000000000000000        0x0 C:\Users\xboxl\Documents\Github\Ada_Drivers_Library_j\boards\MicroBit_v2\obj\zfp_lib_Debug\libada_drivers_library.a(nrf-device.o)
 .rodata.nrf__device__undocumented_reg_fe0
                0x0000000000000000        0x4 C:\Users\xboxl\Documents\Github\Ada_Drivers_Library_j\boards\MicroBit_v2\obj\zfp_lib_Debug\libada_drivers_library.a(nrf-device.o)
 .rodata.nrf__device__undocumented_reg_fe4
                0x0000000000000000        0x4 C:\Users\xboxl\Documents\Github\Ada_Drivers_Library_j\boards\MicroBit_v2\obj\zfp_lib_Debug\libada_drivers_library.a(nrf-device.o)
 .rodata.nrf__device__undocumented_reg_fe8
                0x0000000000000000        0x4 C:\Users\xboxl\Documents\Github\Ada_Drivers_Library_j\boards\MicroBit_v2\obj\zfp_lib_Debug\libada_drivers_library.a(nrf-device.o)
 .rodata.nrf__device__e12_undocumented_comp_reg_540
                0x0000000000000000        0x4 C:\Users\xboxl\Documents\Github\Ada_Drivers_Library_j\boards\MicroBit_v2\obj\zfp_lib_Debug\libada_drivers_library.a(nrf-device.o)
 .rodata.nrf__device__e12_undocumented_ficr_reg_324
                0x0000000000000000        0x4 C:\Users\xboxl\Documents\Github\Ada_Drivers_Library_j\boards\MicroBit_v2\obj\zfp_lib_Debug\libada_drivers_library.a(nrf-device.o)
 .rodata.nrf__device__e16_undocumented_reg_074
                0x0000000000000000        0x4 C:\Users\xboxl\Documents\Github\Ada_Drivers_Library_j\boards\MicroBit_v2\obj\zfp_lib_Debug\libada_drivers_library.a(nrf-device.o)
 .rodata.nrf__device__e31_undocumented_clock_reg_53c
                0x0000000000000000        0x4 C:\Users\xboxl\Documents\Github\Ada_Drivers_Library_j\boards\MicroBit_v2\obj\zfp_lib_Debug\libada_drivers_library.a(nrf-device.o)
 .rodata.nrf__device__e31_undocumented_ficr_reg_244
                0x0000000000000000        0x4 C:\Users\xboxl\Documents\Github\Ada_Drivers_Library_j\boards\MicroBit_v2\obj\zfp_lib_Debug\libada_drivers_library.a(nrf-device.o)
 .rodata.nrf__device__e37_undocumented_reg_5a0
                0x0000000000000000        0x4 C:\Users\xboxl\Documents\Github\Ada_Drivers_Library_j\boards\MicroBit_v2\obj\zfp_lib_Debug\libada_drivers_library.a(nrf-device.o)
 .rodata.nrf__device__e57_undocumented_nfct_reg_610
                0x0000000000000000        0x4 C:\Users\xboxl\Documents\Github\Ada_Drivers_Library_j\boards\MicroBit_v2\obj\zfp_lib_Debug\libada_drivers_library.a(nrf-device.o)
 .rodata.nrf__device__e57_undocumented_nfct_reg_614
                0x0000000000000000        0x4 C:\Users\xboxl\Documents\Github\Ada_Drivers_Library_j\boards\MicroBit_v2\obj\zfp_lib_Debug\libada_drivers_library.a(nrf-device.o)
 .rodata.nrf__device__e57_undocumented_nfct_reg_618
                0x0000000000000000        0x4 C:\Users\xboxl\Documents\Github\Ada_Drivers_Library_j\boards\MicroBit_v2\obj\zfp_lib_Debug\libada_drivers_library.a(nrf-device.o)
 .rodata.nrf__device__e57_undocumented_nfct_reg_688
                0x0000000000000000        0x4 C:\Users\xboxl\Documents\Github\Ada_Drivers_Library_j\boards\MicroBit_v2\obj\zfp_lib_Debug\libada_drivers_library.a(nrf-device.o)
 .rodata.nrf__device__e108_undocumented_reg_ee4
                0x0000000000000000        0x4 C:\Users\xboxl\Documents\Github\Ada_Drivers_Library_j\boards\MicroBit_v2\obj\zfp_lib_Debug\libada_drivers_library.a(nrf-device.o)
 .rodata.nrf__device__e108_undocumented_ficr_reg_258
                0x0000000000000000        0x4 C:\Users\xboxl\Documents\Github\Ada_Drivers_Library_j\boards\MicroBit_v2\obj\zfp_lib_Debug\libada_drivers_library.a(nrf-device.o)
 .rodata.nrf__device__e182_undocumented_reg_73c
                0x0000000000000000        0x4 C:\Users\xboxl\Documents\Github\Ada_Drivers_Library_j\boards\MicroBit_v2\obj\zfp_lib_Debug\libada_drivers_library.a(nrf-device.o)
 .text          0x0000000000000000        0x0 C:\Users\xboxl\Documents\Github\Ada_Drivers_Library_j\boards\MicroBit_v2\obj\zfp_lib_Debug\libada_drivers_library.a(nrf-events.o)
 .data          0x0000000000000000        0x0 C:\Users\xboxl\Documents\Github\Ada_Drivers_Library_j\boards\MicroBit_v2\obj\zfp_lib_Debug\libada_drivers_library.a(nrf-events.o)
 .bss           0x0000000000000000        0x0 C:\Users\xboxl\Documents\Github\Ada_Drivers_Library_j\boards\MicroBit_v2\obj\zfp_lib_Debug\libada_drivers_library.a(nrf-events.o)
 .text.nrf__events__disable_interrupt
                0x0000000000000000       0x70 C:\Users\xboxl\Documents\Github\Ada_Drivers_Library_j\boards\MicroBit_v2\obj\zfp_lib_Debug\libada_drivers_library.a(nrf-events.o)
 .text.nrf__events__get_address
                0x0000000000000000       0x18 C:\Users\xboxl\Documents\Github\Ada_Drivers_Library_j\boards\MicroBit_v2\obj\zfp_lib_Debug\libada_drivers_library.a(nrf-events.o)
 .text.nrf__events__get_address__2
                0x0000000000000000       0x18 C:\Users\xboxl\Documents\Github\Ada_Drivers_Library_j\boards\MicroBit_v2\obj\zfp_lib_Debug\libada_drivers_library.a(nrf-events.o)
 .rodata.nrf__events__power_pofwarn
                0x0000000000000000        0x4 C:\Users\xboxl\Documents\Github\Ada_Drivers_Library_j\boards\MicroBit_v2\obj\zfp_lib_Debug\libada_drivers_library.a(nrf-events.o)
 .rodata.nrf__events__clock_hfclkstarted
                0x0000000000000000        0x4 C:\Users\xboxl\Documents\Github\Ada_Drivers_Library_j\boards\MicroBit_v2\obj\zfp_lib_Debug\libada_drivers_library.a(nrf-events.o)
 .rodata.nrf__events__clock_lfclkstarted
                0x0000000000000000        0x4 C:\Users\xboxl\Documents\Github\Ada_Drivers_Library_j\boards\MicroBit_v2\obj\zfp_lib_Debug\libada_drivers_library.a(nrf-events.o)
 .rodata.nrf__events__clock_done
                0x0000000000000000        0x4 C:\Users\xboxl\Documents\Github\Ada_Drivers_Library_j\boards\MicroBit_v2\obj\zfp_lib_Debug\libada_drivers_library.a(nrf-events.o)
 .rodata.nrf__events__clock_ctto
                0x0000000000000000        0x4 C:\Users\xboxl\Documents\Github\Ada_Drivers_Library_j\boards\MicroBit_v2\obj\zfp_lib_Debug\libada_drivers_library.a(nrf-events.o)
 .rodata.nrf__events__gpiote_in_0
                0x0000000000000000        0x4 C:\Users\xboxl\Documents\Github\Ada_Drivers_Library_j\boards\MicroBit_v2\obj\zfp_lib_Debug\libada_drivers_library.a(nrf-events.o)
 .rodata.nrf__events__gpiote_in_1
                0x0000000000000000        0x4 C:\Users\xboxl\Documents\Github\Ada_Drivers_Library_j\boards\MicroBit_v2\obj\zfp_lib_Debug\libada_drivers_library.a(nrf-events.o)
 .rodata.nrf__events__gpiote_in_2
                0x0000000000000000        0x4 C:\Users\xboxl\Documents\Github\Ada_Drivers_Library_j\boards\MicroBit_v2\obj\zfp_lib_Debug\libada_drivers_library.a(nrf-events.o)
 .rodata.nrf__events__gpiote_in_3
                0x0000000000000000        0x4 C:\Users\xboxl\Documents\Github\Ada_Drivers_Library_j\boards\MicroBit_v2\obj\zfp_lib_Debug\libada_drivers_library.a(nrf-events.o)
 .rodata.nrf__events__gpiote_port
                0x0000000000000000        0x4 C:\Users\xboxl\Documents\Github\Ada_Drivers_Library_j\boards\MicroBit_v2\obj\zfp_lib_Debug\libada_drivers_library.a(nrf-events.o)
 .rodata.nrf__events__radio_ready
                0x0000000000000000        0x4 C:\Users\xboxl\Documents\Github\Ada_Drivers_Library_j\boards\MicroBit_v2\obj\zfp_lib_Debug\libada_drivers_library.a(nrf-events.o)
 .rodata.nrf__events__radio_address
                0x0000000000000000        0x4 C:\Users\xboxl\Documents\Github\Ada_Drivers_Library_j\boards\MicroBit_v2\obj\zfp_lib_Debug\libada_drivers_library.a(nrf-events.o)
 .rodata.nrf__events__radio_payload
                0x0000000000000000        0x4 C:\Users\xboxl\Documents\Github\Ada_Drivers_Library_j\boards\MicroBit_v2\obj\zfp_lib_Debug\libada_drivers_library.a(nrf-events.o)
 .rodata.nrf__events__radio_end
                0x0000000000000000        0x4 C:\Users\xboxl\Documents\Github\Ada_Drivers_Library_j\boards\MicroBit_v2\obj\zfp_lib_Debug\libada_drivers_library.a(nrf-events.o)
 .rodata.nrf__events__radio_disabled
                0x0000000000000000        0x4 C:\Users\xboxl\Documents\Github\Ada_Drivers_Library_j\boards\MicroBit_v2\obj\zfp_lib_Debug\libada_drivers_library.a(nrf-events.o)
 .rodata.nrf__events__radio_devmatch
                0x0000000000000000        0x4 C:\Users\xboxl\Documents\Github\Ada_Drivers_Library_j\boards\MicroBit_v2\obj\zfp_lib_Debug\libada_drivers_library.a(nrf-events.o)
 .rodata.nrf__events__radio_devmiss
                0x0000000000000000        0x4 C:\Users\xboxl\Documents\Github\Ada_Drivers_Library_j\boards\MicroBit_v2\obj\zfp_lib_Debug\libada_drivers_library.a(nrf-events.o)
 .rodata.nrf__events__radio_rssiend
                0x0000000000000000        0x4 C:\Users\xboxl\Documents\Github\Ada_Drivers_Library_j\boards\MicroBit_v2\obj\zfp_lib_Debug\libada_drivers_library.a(nrf-events.o)
 .rodata.nrf__events__radio_bcmatch
                0x0000000000000000        0x4 C:\Users\xboxl\Documents\Github\Ada_Drivers_Library_j\boards\MicroBit_v2\obj\zfp_lib_Debug\libada_drivers_library.a(nrf-events.o)
 .rodata.nrf__events__radio_crcok
                0x0000000000000000        0x4 C:\Users\xboxl\Documents\Github\Ada_Drivers_Library_j\boards\MicroBit_v2\obj\zfp_lib_Debug\libada_drivers_library.a(nrf-events.o)
 .rodata.nrf__events__radio_crcerror
                0x0000000000000000        0x4 C:\Users\xboxl\Documents\Github\Ada_Drivers_Library_j\boards\MicroBit_v2\obj\zfp_lib_Debug\libada_drivers_library.a(nrf-events.o)
 .rodata.nrf__events__timer_0_compare_0
                0x0000000000000000        0x4 C:\Users\xboxl\Documents\Github\Ada_Drivers_Library_j\boards\MicroBit_v2\obj\zfp_lib_Debug\libada_drivers_library.a(nrf-events.o)
 .rodata.nrf__events__timer_0_compare_1
                0x0000000000000000        0x4 C:\Users\xboxl\Documents\Github\Ada_Drivers_Library_j\boards\MicroBit_v2\obj\zfp_lib_Debug\libada_drivers_library.a(nrf-events.o)
 .rodata.nrf__events__timer_0_compare_2
                0x0000000000000000        0x4 C:\Users\xboxl\Documents\Github\Ada_Drivers_Library_j\boards\MicroBit_v2\obj\zfp_lib_Debug\libada_drivers_library.a(nrf-events.o)
 .rodata.nrf__events__timer_0_compare_3
                0x0000000000000000        0x4 C:\Users\xboxl\Documents\Github\Ada_Drivers_Library_j\boards\MicroBit_v2\obj\zfp_lib_Debug\libada_drivers_library.a(nrf-events.o)
 .rodata.nrf__events__timer_1_compare_0
                0x0000000000000000        0x4 C:\Users\xboxl\Documents\Github\Ada_Drivers_Library_j\boards\MicroBit_v2\obj\zfp_lib_Debug\libada_drivers_library.a(nrf-events.o)
 .rodata.nrf__events__timer_1_compare_1
                0x0000000000000000        0x4 C:\Users\xboxl\Documents\Github\Ada_Drivers_Library_j\boards\MicroBit_v2\obj\zfp_lib_Debug\libada_drivers_library.a(nrf-events.o)
 .rodata.nrf__events__timer_1_compare_2
                0x0000000000000000        0x4 C:\Users\xboxl\Documents\Github\Ada_Drivers_Library_j\boards\MicroBit_v2\obj\zfp_lib_Debug\libada_drivers_library.a(nrf-events.o)
 .rodata.nrf__events__timer_1_compare_3
                0x0000000000000000        0x4 C:\Users\xboxl\Documents\Github\Ada_Drivers_Library_j\boards\MicroBit_v2\obj\zfp_lib_Debug\libada_drivers_library.a(nrf-events.o)
 .rodata.nrf__events__timer_2_compare_0
                0x0000000000000000        0x4 C:\Users\xboxl\Documents\Github\Ada_Drivers_Library_j\boards\MicroBit_v2\obj\zfp_lib_Debug\libada_drivers_library.a(nrf-events.o)
 .rodata.nrf__events__timer_2_compare_1
                0x0000000000000000        0x4 C:\Users\xboxl\Documents\Github\Ada_Drivers_Library_j\boards\MicroBit_v2\obj\zfp_lib_Debug\libada_drivers_library.a(nrf-events.o)
 .rodata.nrf__events__timer_2_compare_2
                0x0000000000000000        0x4 C:\Users\xboxl\Documents\Github\Ada_Drivers_Library_j\boards\MicroBit_v2\obj\zfp_lib_Debug\libada_drivers_library.a(nrf-events.o)
 .rodata.nrf__events__timer_2_compare_3
                0x0000000000000000        0x4 C:\Users\xboxl\Documents\Github\Ada_Drivers_Library_j\boards\MicroBit_v2\obj\zfp_lib_Debug\libada_drivers_library.a(nrf-events.o)
 .rodata.nrf__events__rtc_0_tick
                0x0000000000000000        0x4 C:\Users\xboxl\Documents\Github\Ada_Drivers_Library_j\boards\MicroBit_v2\obj\zfp_lib_Debug\libada_drivers_library.a(nrf-events.o)
 .rodata.nrf__events__rtc_0_overflw
                0x0000000000000000        0x4 C:\Users\xboxl\Documents\Github\Ada_Drivers_Library_j\boards\MicroBit_v2\obj\zfp_lib_Debug\libada_drivers_library.a(nrf-events.o)
 .rodata.nrf__events__rtc_0_compare_0
                0x0000000000000000        0x4 C:\Users\xboxl\Documents\Github\Ada_Drivers_Library_j\boards\MicroBit_v2\obj\zfp_lib_Debug\libada_drivers_library.a(nrf-events.o)
 .rodata.nrf__events__rtc_0_compare_1
                0x0000000000000000        0x4 C:\Users\xboxl\Documents\Github\Ada_Drivers_Library_j\boards\MicroBit_v2\obj\zfp_lib_Debug\libada_drivers_library.a(nrf-events.o)
 .rodata.nrf__events__rtc_0_compare_2
                0x0000000000000000        0x4 C:\Users\xboxl\Documents\Github\Ada_Drivers_Library_j\boards\MicroBit_v2\obj\zfp_lib_Debug\libada_drivers_library.a(nrf-events.o)
 .rodata.nrf__events__rtc_0_compare_3
                0x0000000000000000        0x4 C:\Users\xboxl\Documents\Github\Ada_Drivers_Library_j\boards\MicroBit_v2\obj\zfp_lib_Debug\libada_drivers_library.a(nrf-events.o)
 .rodata.nrf__events__rtc_1_tick
                0x0000000000000000        0x4 C:\Users\xboxl\Documents\Github\Ada_Drivers_Library_j\boards\MicroBit_v2\obj\zfp_lib_Debug\libada_drivers_library.a(nrf-events.o)
 .rodata.nrf__events__rtc_1_overflw
                0x0000000000000000        0x4 C:\Users\xboxl\Documents\Github\Ada_Drivers_Library_j\boards\MicroBit_v2\obj\zfp_lib_Debug\libada_drivers_library.a(nrf-events.o)
 .rodata.nrf__events__rtc_1_compare_0
                0x0000000000000000        0x4 C:\Users\xboxl\Documents\Github\Ada_Drivers_Library_j\boards\MicroBit_v2\obj\zfp_lib_Debug\libada_drivers_library.a(nrf-events.o)
 .rodata.nrf__events__rtc_1_compare_1
                0x0000000000000000        0x4 C:\Users\xboxl\Documents\Github\Ada_Drivers_Library_j\boards\MicroBit_v2\obj\zfp_lib_Debug\libada_drivers_library.a(nrf-events.o)
 .rodata.nrf__events__rtc_1_compare_2
                0x0000000000000000        0x4 C:\Users\xboxl\Documents\Github\Ada_Drivers_Library_j\boards\MicroBit_v2\obj\zfp_lib_Debug\libada_drivers_library.a(nrf-events.o)
 .rodata.nrf__events__rtc_1_compare_3
                0x0000000000000000        0x4 C:\Users\xboxl\Documents\Github\Ada_Drivers_Library_j\boards\MicroBit_v2\obj\zfp_lib_Debug\libada_drivers_library.a(nrf-events.o)
 .rodata.nrf__events__watchdog_timeout
                0x0000000000000000        0x4 C:\Users\xboxl\Documents\Github\Ada_Drivers_Library_j\boards\MicroBit_v2\obj\zfp_lib_Debug\libada_drivers_library.a(nrf-events.o)
 .rodata.nrf__events__rng_valrdy
                0x0000000000000000        0x4 C:\Users\xboxl\Documents\Github\Ada_Drivers_Library_j\boards\MicroBit_v2\obj\zfp_lib_Debug\libada_drivers_library.a(nrf-events.o)
 .rodata.nrf__events__temperature_datardy
                0x0000000000000000        0x4 C:\Users\xboxl\Documents\Github\Ada_Drivers_Library_j\boards\MicroBit_v2\obj\zfp_lib_Debug\libada_drivers_library.a(nrf-events.o)
 .rodata.nrf__events__ecb_end
                0x0000000000000000        0x4 C:\Users\xboxl\Documents\Github\Ada_Drivers_Library_j\boards\MicroBit_v2\obj\zfp_lib_Debug\libada_drivers_library.a(nrf-events.o)
 .rodata.nrf__events__ecb_error
                0x0000000000000000        0x4 C:\Users\xboxl\Documents\Github\Ada_Drivers_Library_j\boards\MicroBit_v2\obj\zfp_lib_Debug\libada_drivers_library.a(nrf-events.o)
 .rodata.nrf__events__ccm_ksgen_end
                0x0000000000000000        0x4 C:\Users\xboxl\Documents\Github\Ada_Drivers_Library_j\boards\MicroBit_v2\obj\zfp_lib_Debug\libada_drivers_library.a(nrf-events.o)
 .rodata.nrf__events__ccm_crypt_end
                0x0000000000000000        0x4 C:\Users\xboxl\Documents\Github\Ada_Drivers_Library_j\boards\MicroBit_v2\obj\zfp_lib_Debug\libada_drivers_library.a(nrf-events.o)
 .rodata.nrf__events__ccm_error
                0x0000000000000000        0x4 C:\Users\xboxl\Documents\Github\Ada_Drivers_Library_j\boards\MicroBit_v2\obj\zfp_lib_Debug\libada_drivers_library.a(nrf-events.o)
 .rodata.nrf__events__aar_end
                0x0000000000000000        0x4 C:\Users\xboxl\Documents\Github\Ada_Drivers_Library_j\boards\MicroBit_v2\obj\zfp_lib_Debug\libada_drivers_library.a(nrf-events.o)
 .rodata.nrf__events__aar_resolved
                0x0000000000000000        0x4 C:\Users\xboxl\Documents\Github\Ada_Drivers_Library_j\boards\MicroBit_v2\obj\zfp_lib_Debug\libada_drivers_library.a(nrf-events.o)
 .rodata.nrf__events__aar_notresolved
                0x0000000000000000        0x4 C:\Users\xboxl\Documents\Github\Ada_Drivers_Library_j\boards\MicroBit_v2\obj\zfp_lib_Debug\libada_drivers_library.a(nrf-events.o)
 .rodata.nrf__events__spi_0_ready
                0x0000000000000000        0x4 C:\Users\xboxl\Documents\Github\Ada_Drivers_Library_j\boards\MicroBit_v2\obj\zfp_lib_Debug\libada_drivers_library.a(nrf-events.o)
 .rodata.nrf__events__spi_1_ready
                0x0000000000000000        0x4 C:\Users\xboxl\Documents\Github\Ada_Drivers_Library_j\boards\MicroBit_v2\obj\zfp_lib_Debug\libada_drivers_library.a(nrf-events.o)
 .rodata.nrf__events__twi_0_stopped
                0x0000000000000000        0x4 C:\Users\xboxl\Documents\Github\Ada_Drivers_Library_j\boards\MicroBit_v2\obj\zfp_lib_Debug\libada_drivers_library.a(nrf-events.o)
 .rodata.nrf__events__twi_0_rxdrdy
                0x0000000000000000        0x4 C:\Users\xboxl\Documents\Github\Ada_Drivers_Library_j\boards\MicroBit_v2\obj\zfp_lib_Debug\libada_drivers_library.a(nrf-events.o)
 .rodata.nrf__events__twi_0_txdent
                0x0000000000000000        0x4 C:\Users\xboxl\Documents\Github\Ada_Drivers_Library_j\boards\MicroBit_v2\obj\zfp_lib_Debug\libada_drivers_library.a(nrf-events.o)
 .rodata.nrf__events__twi_0_erro
                0x0000000000000000        0x4 C:\Users\xboxl\Documents\Github\Ada_Drivers_Library_j\boards\MicroBit_v2\obj\zfp_lib_Debug\libada_drivers_library.a(nrf-events.o)
 .rodata.nrf__events__twi_0_bb
                0x0000000000000000        0x4 C:\Users\xboxl\Documents\Github\Ada_Drivers_Library_j\boards\MicroBit_v2\obj\zfp_lib_Debug\libada_drivers_library.a(nrf-events.o)
 .rodata.nrf__events__twi_0_suspended
                0x0000000000000000        0x4 C:\Users\xboxl\Documents\Github\Ada_Drivers_Library_j\boards\MicroBit_v2\obj\zfp_lib_Debug\libada_drivers_library.a(nrf-events.o)
 .rodata.nrf__events__twi_1_stopped
                0x0000000000000000        0x4 C:\Users\xboxl\Documents\Github\Ada_Drivers_Library_j\boards\MicroBit_v2\obj\zfp_lib_Debug\libada_drivers_library.a(nrf-events.o)
 .rodata.nrf__events__twi_1_rxdrdy
                0x0000000000000000        0x4 C:\Users\xboxl\Documents\Github\Ada_Drivers_Library_j\boards\MicroBit_v2\obj\zfp_lib_Debug\libada_drivers_library.a(nrf-events.o)
 .rodata.nrf__events__twi_1_txdent
                0x0000000000000000        0x4 C:\Users\xboxl\Documents\Github\Ada_Drivers_Library_j\boards\MicroBit_v2\obj\zfp_lib_Debug\libada_drivers_library.a(nrf-events.o)
 .rodata.nrf__events__twi_1_erro
                0x0000000000000000        0x4 C:\Users\xboxl\Documents\Github\Ada_Drivers_Library_j\boards\MicroBit_v2\obj\zfp_lib_Debug\libada_drivers_library.a(nrf-events.o)
 .rodata.nrf__events__twi_1_bb
                0x0000000000000000        0x4 C:\Users\xboxl\Documents\Github\Ada_Drivers_Library_j\boards\MicroBit_v2\obj\zfp_lib_Debug\libada_drivers_library.a(nrf-events.o)
 .rodata.nrf__events__twi_1_suspended
                0x0000000000000000        0x4 C:\Users\xboxl\Documents\Github\Ada_Drivers_Library_j\boards\MicroBit_v2\obj\zfp_lib_Debug\libada_drivers_library.a(nrf-events.o)
 .rodata.nrf__events__uart_rxdrdy
                0x0000000000000000        0x4 C:\Users\xboxl\Documents\Github\Ada_Drivers_Library_j\boards\MicroBit_v2\obj\zfp_lib_Debug\libada_drivers_library.a(nrf-events.o)
 .rodata.nrf__events__uart_txdrdy
                0x0000000000000000        0x4 C:\Users\xboxl\Documents\Github\Ada_Drivers_Library_j\boards\MicroBit_v2\obj\zfp_lib_Debug\libada_drivers_library.a(nrf-events.o)
 .rodata.nrf__events__uart_error
                0x0000000000000000        0x4 C:\Users\xboxl\Documents\Github\Ada_Drivers_Library_j\boards\MicroBit_v2\obj\zfp_lib_Debug\libada_drivers_library.a(nrf-events.o)
 .rodata.nrf__events__qdec_samplerdy
                0x0000000000000000        0x4 C:\Users\xboxl\Documents\Github\Ada_Drivers_Library_j\boards\MicroBit_v2\obj\zfp_lib_Debug\libada_drivers_library.a(nrf-events.o)
 .rodata.nrf__events__qdec_reportrdy
                0x0000000000000000        0x4 C:\Users\xboxl\Documents\Github\Ada_Drivers_Library_j\boards\MicroBit_v2\obj\zfp_lib_Debug\libada_drivers_library.a(nrf-events.o)
 .rodata.nrf__events__qdec_accof
                0x0000000000000000        0x4 C:\Users\xboxl\Documents\Github\Ada_Drivers_Library_j\boards\MicroBit_v2\obj\zfp_lib_Debug\libada_drivers_library.a(nrf-events.o)
 .rodata.nrf__events__adc_end
                0x0000000000000000        0x4 C:\Users\xboxl\Documents\Github\Ada_Drivers_Library_j\boards\MicroBit_v2\obj\zfp_lib_Debug\libada_drivers_library.a(nrf-events.o)
 .text          0x0000000000000000        0x0 C:\Users\xboxl\Documents\Github\Ada_Drivers_Library_j\boards\MicroBit_v2\obj\zfp_lib_Debug\libada_drivers_library.a(nrf-gpio.o)
 .data          0x0000000000000000        0x0 C:\Users\xboxl\Documents\Github\Ada_Drivers_Library_j\boards\MicroBit_v2\obj\zfp_lib_Debug\libada_drivers_library.a(nrf-gpio.o)
 .bss           0x0000000000000000        0x0 C:\Users\xboxl\Documents\Github\Ada_Drivers_Library_j\boards\MicroBit_v2\obj\zfp_lib_Debug\libada_drivers_library.a(nrf-gpio.o)
 .text.nrf__gpio__gpio_pointIP
                0x0000000000000000       0x28 C:\Users\xboxl\Documents\Github\Ada_Drivers_Library_j\boards\MicroBit_v2\obj\zfp_lib_Debug\libada_drivers_library.a(nrf-gpio.o)
 .rodata.nrf__gpio__gpio_pointY
                0x0000000000000000        0x4 C:\Users\xboxl\Documents\Github\Ada_Drivers_Library_j\boards\MicroBit_v2\obj\zfp_lib_Debug\libada_drivers_library.a(nrf-gpio.o)
 .rodata.nrf__gpio__gpio_pointP
                0x0000000000000000        0x4 C:\Users\xboxl\Documents\Github\Ada_Drivers_Library_j\boards\MicroBit_v2\obj\zfp_lib_Debug\libada_drivers_library.a(nrf-gpio.o)
 .rodata.nrf__gpio__gpio_pointR15s
                0x0000000000000000        0x4 C:\Users\xboxl\Documents\Github\Ada_Drivers_Library_j\boards\MicroBit_v2\obj\zfp_lib_Debug\libada_drivers_library.a(nrf-gpio.o)
 .text          0x0000000000000000        0x0 C:\Users\xboxl\Documents\Github\Ada_Drivers_Library_j\boards\MicroBit_v2\obj\zfp_lib_Debug\libada_drivers_library.a(nrf-interrupts.o)
 .data          0x0000000000000000        0x0 C:\Users\xboxl\Documents\Github\Ada_Drivers_Library_j\boards\MicroBit_v2\obj\zfp_lib_Debug\libada_drivers_library.a(nrf-interrupts.o)
 .bss           0x0000000000000000        0x0 C:\Users\xboxl\Documents\Github\Ada_Drivers_Library_j\boards\MicroBit_v2\obj\zfp_lib_Debug\libada_drivers_library.a(nrf-interrupts.o)
 .text.nrf__interrupts__pending
                0x0000000000000000       0x20 C:\Users\xboxl\Documents\Github\Ada_Drivers_Library_j\boards\MicroBit_v2\obj\zfp_lib_Debug\libada_drivers_library.a(nrf-interrupts.o)
 .text          0x0000000000000000        0x0 C:\Users\xboxl\Documents\Github\Ada_Drivers_Library_j\boards\MicroBit_v2\obj\zfp_lib_Debug\libada_drivers_library.a(nrf-radio.o)
 .data          0x0000000000000000        0x0 C:\Users\xboxl\Documents\Github\Ada_Drivers_Library_j\boards\MicroBit_v2\obj\zfp_lib_Debug\libada_drivers_library.a(nrf-radio.o)
 .bss           0x0000000000000000        0x0 C:\Users\xboxl\Documents\Github\Ada_Drivers_Library_j\boards\MicroBit_v2\obj\zfp_lib_Debug\libada_drivers_library.a(nrf-radio.o)
 .text.nrf__radio__Tpayload_dataBIP
                0x0000000000000000       0x14 C:\Users\xboxl\Documents\Github\Ada_Drivers_Library_j\boards\MicroBit_v2\obj\zfp_lib_Debug\libada_drivers_library.a(nrf-radio.o)
 .text.nrf__radio__framebufferIP
                0x0000000000000000       0x3c C:\Users\xboxl\Documents\Github\Ada_Drivers_Library_j\boards\MicroBit_v2\obj\zfp_lib_Debug\libada_drivers_library.a(nrf-radio.o)
 .text.nrf__radio__TrxqueuearrayBIP
                0x0000000000000000       0x44 C:\Users\xboxl\Documents\Github\Ada_Drivers_Library_j\boards\MicroBit_v2\obj\zfp_lib_Debug\libada_drivers_library.a(nrf-radio.o)
 .text.nrf__radio__radio_stateRP
                0x0000000000000000       0x84 C:\Users\xboxl\Documents\Github\Ada_Drivers_Library_j\boards\MicroBit_v2\obj\zfp_lib_Debug\libada_drivers_library.a(nrf-radio.o)
 .text.nrf__radio__radio_powerRP
                0x0000000000000000      0x100 C:\Users\xboxl\Documents\Github\Ada_Drivers_Library_j\boards\MicroBit_v2\obj\zfp_lib_Debug\libada_drivers_library.a(nrf-radio.o)
 .text.nrf__radio__Tlogic_address_maskBIP
                0x0000000000000000       0x14 C:\Users\xboxl\Documents\Github\Ada_Drivers_Library_j\boards\MicroBit_v2\obj\zfp_lib_Debug\libada_drivers_library.a(nrf-radio.o)
 .text.nrf__radio__setup_for_bluetooth_low_energy
                0x0000000000000000       0x44 C:\Users\xboxl\Documents\Github\Ada_Drivers_Library_j\boards\MicroBit_v2\obj\zfp_lib_Debug\libada_drivers_library.a(nrf-radio.o)
 .text.nrf__radio__state
                0x0000000000000000       0x94 C:\Users\xboxl\Documents\Github\Ada_Drivers_Library_j\boards\MicroBit_v2\obj\zfp_lib_Debug\libada_drivers_library.a(nrf-radio.o)
 .text.nrf__radio__disable_shortcut
                0x0000000000000000       0xe4 C:\Users\xboxl\Documents\Github\Ada_Drivers_Library_j\boards\MicroBit_v2\obj\zfp_lib_Debug\libada_drivers_library.a(nrf-radio.o)
 .text.nrf__radio__get_safeframebuffer
                0x0000000000000000       0x44 C:\Users\xboxl\Documents\Github\Ada_Drivers_Library_j\boards\MicroBit_v2\obj\zfp_lib_Debug\libada_drivers_library.a(nrf-radio.o)
 .text.nrf__radio__dataready
                0x0000000000000000       0x24 C:\Users\xboxl\Documents\Github\Ada_Drivers_Library_j\boards\MicroBit_v2\obj\zfp_lib_Debug\libada_drivers_library.a(nrf-radio.o)
 .text.nrf__radio__translate_logic_address
                0x0000000000000000       0xb8 C:\Users\xboxl\Documents\Github\Ada_Drivers_Library_j\boards\MicroBit_v2\obj\zfp_lib_Debug\libada_drivers_library.a(nrf-radio.o)
 .text.nrf__radio__rx_match_address
                0x0000000000000000       0x24 C:\Users\xboxl\Documents\Github\Ada_Drivers_Library_j\boards\MicroBit_v2\obj\zfp_lib_Debug\libada_drivers_library.a(nrf-radio.o)
 .text.nrf__radio__crc_error
                0x0000000000000000       0x30 C:\Users\xboxl\Documents\Github\Ada_Drivers_Library_j\boards\MicroBit_v2\obj\zfp_lib_Debug\libada_drivers_library.a(nrf-radio.o)
 .rodata.nrf__radio__microbit_radio_maximum_rx_buffers
                0x0000000000000000        0x1 C:\Users\xboxl\Documents\Github\Ada_Drivers_Library_j\boards\MicroBit_v2\obj\zfp_lib_Debug\libada_drivers_library.a(nrf-radio.o)
 .rodata.nrf__radio__microbit_radio_max_packet_size
                0x0000000000000000        0x1 C:\Users\xboxl\Documents\Github\Ada_Drivers_Library_j\boards\MicroBit_v2\obj\zfp_lib_Debug\libada_drivers_library.a(nrf-radio.o)
 .rodata.nrf__radio__microbit_radio_header_size
                0x0000000000000000        0x1 C:\Users\xboxl\Documents\Github\Ada_Drivers_Library_j\boards\MicroBit_v2\obj\zfp_lib_Debug\libada_drivers_library.a(nrf-radio.o)
 .bss.nrf__radio__group
                0x0000000000000000        0x1 C:\Users\xboxl\Documents\Github\Ada_Drivers_Library_j\boards\MicroBit_v2\obj\zfp_lib_Debug\libada_drivers_library.a(nrf-radio.o)
 .data.nrf__radio__rxqueue
                0x0000000000000000       0xb9 C:\Users\xboxl\Documents\Github\Ada_Drivers_Library_j\boards\MicroBit_v2\obj\zfp_lib_Debug\libada_drivers_library.a(nrf-radio.o)
 .rodata.nrf__radio__radio_stateA
                0x0000000000000000        0x9 C:\Users\xboxl\Documents\Github\Ada_Drivers_Library_j\boards\MicroBit_v2\obj\zfp_lib_Debug\libada_drivers_library.a(nrf-radio.o)
 .rodata.nrf__radio__radio_powerA
                0x0000000000000000        0x9 C:\Users\xboxl\Documents\Github\Ada_Drivers_Library_j\boards\MicroBit_v2\obj\zfp_lib_Debug\libada_drivers_library.a(nrf-radio.o)
 .text          0x0000000000000000        0x0 C:\Users\xboxl\Documents\Github\Ada_Drivers_Library_j\boards\MicroBit_v2\obj\zfp_lib_Debug\libada_drivers_library.a(nrf-rtc.o)
 .data          0x0000000000000000        0x0 C:\Users\xboxl\Documents\Github\Ada_Drivers_Library_j\boards\MicroBit_v2\obj\zfp_lib_Debug\libada_drivers_library.a(nrf-rtc.o)
 .bss           0x0000000000000000        0x0 C:\Users\xboxl\Documents\Github\Ada_Drivers_Library_j\boards\MicroBit_v2\obj\zfp_lib_Debug\libada_drivers_library.a(nrf-rtc.o)
 .text.nrf__rtc__counter
                0x0000000000000000       0x24 C:\Users\xboxl\Documents\Github\Ada_Drivers_Library_j\boards\MicroBit_v2\obj\zfp_lib_Debug\libada_drivers_library.a(nrf-rtc.o)
 .text.nrf__rtc__event
                0x0000000000000000       0x7c C:\Users\xboxl\Documents\Github\Ada_Drivers_Library_j\boards\MicroBit_v2\obj\zfp_lib_Debug\libada_drivers_library.a(nrf-rtc.o)
 .text.nrf__rtc__disable_event
                0x0000000000000000      0x15c C:\Users\xboxl\Documents\Github\Ada_Drivers_Library_j\boards\MicroBit_v2\obj\zfp_lib_Debug\libada_drivers_library.a(nrf-rtc.o)
 .text          0x0000000000000000        0x0 C:\Users\xboxl\Documents\Github\Ada_Drivers_Library_j\boards\MicroBit_v2\obj\zfp_lib_Debug\libada_drivers_library.a(nrf-spi_master.o)
 .data          0x0000000000000000        0x0 C:\Users\xboxl\Documents\Github\Ada_Drivers_Library_j\boards\MicroBit_v2\obj\zfp_lib_Debug\libada_drivers_library.a(nrf-spi_master.o)
 .bss           0x0000000000000000        0x0 C:\Users\xboxl\Documents\Github\Ada_Drivers_Library_j\boards\MicroBit_v2\obj\zfp_lib_Debug\libada_drivers_library.a(nrf-spi_master.o)
 .rodata.nrf__spi_master__spi_masterY
                0x0000000000000000        0x4 C:\Users\xboxl\Documents\Github\Ada_Drivers_Library_j\boards\MicroBit_v2\obj\zfp_lib_Debug\libada_drivers_library.a(nrf-spi_master.o)
 .rodata.nrf__spi_master__spi_masterP
                0x0000000000000000        0x4 C:\Users\xboxl\Documents\Github\Ada_Drivers_Library_j\boards\MicroBit_v2\obj\zfp_lib_Debug\libada_drivers_library.a(nrf-spi_master.o)
 .rodata.nrf__spi_master__spi_masterR28s
                0x0000000000000000        0x4 C:\Users\xboxl\Documents\Github\Ada_Drivers_Library_j\boards\MicroBit_v2\obj\zfp_lib_Debug\libada_drivers_library.a(nrf-spi_master.o)
 .text          0x0000000000000000        0x0 C:\Users\xboxl\Documents\Github\Ada_Drivers_Library_j\boards\MicroBit_v2\obj\zfp_lib_Debug\libada_drivers_library.a(nrf-tasks.o)
 .data          0x0000000000000000        0x0 C:\Users\xboxl\Documents\Github\Ada_Drivers_Library_j\boards\MicroBit_v2\obj\zfp_lib_Debug\libada_drivers_library.a(nrf-tasks.o)
 .bss           0x0000000000000000        0x0 C:\Users\xboxl\Documents\Github\Ada_Drivers_Library_j\boards\MicroBit_v2\obj\zfp_lib_Debug\libada_drivers_library.a(nrf-tasks.o)
 .text.nrf__tasks__get_address
                0x0000000000000000       0x18 C:\Users\xboxl\Documents\Github\Ada_Drivers_Library_j\boards\MicroBit_v2\obj\zfp_lib_Debug\libada_drivers_library.a(nrf-tasks.o)
 .text.nrf__tasks__get_address__2
                0x0000000000000000       0x18 C:\Users\xboxl\Documents\Github\Ada_Drivers_Library_j\boards\MicroBit_v2\obj\zfp_lib_Debug\libada_drivers_library.a(nrf-tasks.o)
 .rodata.nrf__tasks__power_constlat
                0x0000000000000000        0x4 C:\Users\xboxl\Documents\Github\Ada_Drivers_Library_j\boards\MicroBit_v2\obj\zfp_lib_Debug\libada_drivers_library.a(nrf-tasks.o)
 .rodata.nrf__tasks__power_lowpwr
                0x0000000000000000        0x4 C:\Users\xboxl\Documents\Github\Ada_Drivers_Library_j\boards\MicroBit_v2\obj\zfp_lib_Debug\libada_drivers_library.a(nrf-tasks.o)
 .rodata.nrf__tasks__clock_hfclkstart
                0x0000000000000000        0x4 C:\Users\xboxl\Documents\Github\Ada_Drivers_Library_j\boards\MicroBit_v2\obj\zfp_lib_Debug\libada_drivers_library.a(nrf-tasks.o)
 .rodata.nrf__tasks__clock_hfclkstop
                0x0000000000000000        0x4 C:\Users\xboxl\Documents\Github\Ada_Drivers_Library_j\boards\MicroBit_v2\obj\zfp_lib_Debug\libada_drivers_library.a(nrf-tasks.o)
 .rodata.nrf__tasks__clock_lfclkstart
                0x0000000000000000        0x4 C:\Users\xboxl\Documents\Github\Ada_Drivers_Library_j\boards\MicroBit_v2\obj\zfp_lib_Debug\libada_drivers_library.a(nrf-tasks.o)
 .rodata.nrf__tasks__clock_lfclkstop
                0x0000000000000000        0x4 C:\Users\xboxl\Documents\Github\Ada_Drivers_Library_j\boards\MicroBit_v2\obj\zfp_lib_Debug\libada_drivers_library.a(nrf-tasks.o)
 .rodata.nrf__tasks__clock_cal
                0x0000000000000000        0x4 C:\Users\xboxl\Documents\Github\Ada_Drivers_Library_j\boards\MicroBit_v2\obj\zfp_lib_Debug\libada_drivers_library.a(nrf-tasks.o)
 .rodata.nrf__tasks__clock_ctstart
                0x0000000000000000        0x4 C:\Users\xboxl\Documents\Github\Ada_Drivers_Library_j\boards\MicroBit_v2\obj\zfp_lib_Debug\libada_drivers_library.a(nrf-tasks.o)
 .rodata.nrf__tasks__clock_ctstop
                0x0000000000000000        0x4 C:\Users\xboxl\Documents\Github\Ada_Drivers_Library_j\boards\MicroBit_v2\obj\zfp_lib_Debug\libada_drivers_library.a(nrf-tasks.o)
 .rodata.nrf__tasks__gpiote_out_0
                0x0000000000000000        0x4 C:\Users\xboxl\Documents\Github\Ada_Drivers_Library_j\boards\MicroBit_v2\obj\zfp_lib_Debug\libada_drivers_library.a(nrf-tasks.o)
 .rodata.nrf__tasks__gpiote_out_1
                0x0000000000000000        0x4 C:\Users\xboxl\Documents\Github\Ada_Drivers_Library_j\boards\MicroBit_v2\obj\zfp_lib_Debug\libada_drivers_library.a(nrf-tasks.o)
 .rodata.nrf__tasks__gpiote_out_2
                0x0000000000000000        0x4 C:\Users\xboxl\Documents\Github\Ada_Drivers_Library_j\boards\MicroBit_v2\obj\zfp_lib_Debug\libada_drivers_library.a(nrf-tasks.o)
 .rodata.nrf__tasks__gpiote_out_3
                0x0000000000000000        0x4 C:\Users\xboxl\Documents\Github\Ada_Drivers_Library_j\boards\MicroBit_v2\obj\zfp_lib_Debug\libada_drivers_library.a(nrf-tasks.o)
 .rodata.nrf__tasks__ppi_chg_0_en
                0x0000000000000000        0x4 C:\Users\xboxl\Documents\Github\Ada_Drivers_Library_j\boards\MicroBit_v2\obj\zfp_lib_Debug\libada_drivers_library.a(nrf-tasks.o)
 .rodata.nrf__tasks__ppi_chg_0_dis
                0x0000000000000000        0x4 C:\Users\xboxl\Documents\Github\Ada_Drivers_Library_j\boards\MicroBit_v2\obj\zfp_lib_Debug\libada_drivers_library.a(nrf-tasks.o)
 .rodata.nrf__tasks__ppi_chg_1_en
                0x0000000000000000        0x4 C:\Users\xboxl\Documents\Github\Ada_Drivers_Library_j\boards\MicroBit_v2\obj\zfp_lib_Debug\libada_drivers_library.a(nrf-tasks.o)
 .rodata.nrf__tasks__ppi_chg_1_dis
                0x0000000000000000        0x4 C:\Users\xboxl\Documents\Github\Ada_Drivers_Library_j\boards\MicroBit_v2\obj\zfp_lib_Debug\libada_drivers_library.a(nrf-tasks.o)
 .rodata.nrf__tasks__ppi_chg_2_en
                0x0000000000000000        0x4 C:\Users\xboxl\Documents\Github\Ada_Drivers_Library_j\boards\MicroBit_v2\obj\zfp_lib_Debug\libada_drivers_library.a(nrf-tasks.o)
 .rodata.nrf__tasks__ppi_chg_2_dis
                0x0000000000000000        0x4 C:\Users\xboxl\Documents\Github\Ada_Drivers_Library_j\boards\MicroBit_v2\obj\zfp_lib_Debug\libada_drivers_library.a(nrf-tasks.o)
 .rodata.nrf__tasks__ppi_chg_3_en
                0x0000000000000000        0x4 C:\Users\xboxl\Documents\Github\Ada_Drivers_Library_j\boards\MicroBit_v2\obj\zfp_lib_Debug\libada_drivers_library.a(nrf-tasks.o)
 .rodata.nrf__tasks__ppi_chg_3_dis
                0x0000000000000000        0x4 C:\Users\xboxl\Documents\Github\Ada_Drivers_Library_j\boards\MicroBit_v2\obj\zfp_lib_Debug\libada_drivers_library.a(nrf-tasks.o)
 .rodata.nrf__tasks__radio_txen
                0x0000000000000000        0x4 C:\Users\xboxl\Documents\Github\Ada_Drivers_Library_j\boards\MicroBit_v2\obj\zfp_lib_Debug\libada_drivers_library.a(nrf-tasks.o)
 .rodata.nrf__tasks__radio_rxen
                0x0000000000000000        0x4 C:\Users\xboxl\Documents\Github\Ada_Drivers_Library_j\boards\MicroBit_v2\obj\zfp_lib_Debug\libada_drivers_library.a(nrf-tasks.o)
 .rodata.nrf__tasks__radio_start
                0x0000000000000000        0x4 C:\Users\xboxl\Documents\Github\Ada_Drivers_Library_j\boards\MicroBit_v2\obj\zfp_lib_Debug\libada_drivers_library.a(nrf-tasks.o)
 .rodata.nrf__tasks__radio_stop
                0x0000000000000000        0x4 C:\Users\xboxl\Documents\Github\Ada_Drivers_Library_j\boards\MicroBit_v2\obj\zfp_lib_Debug\libada_drivers_library.a(nrf-tasks.o)
 .rodata.nrf__tasks__radio_disable
                0x0000000000000000        0x4 C:\Users\xboxl\Documents\Github\Ada_Drivers_Library_j\boards\MicroBit_v2\obj\zfp_lib_Debug\libada_drivers_library.a(nrf-tasks.o)
 .rodata.nrf__tasks__radio_rssistart
                0x0000000000000000        0x4 C:\Users\xboxl\Documents\Github\Ada_Drivers_Library_j\boards\MicroBit_v2\obj\zfp_lib_Debug\libada_drivers_library.a(nrf-tasks.o)
 .rodata.nrf__tasks__radio_rssistop
                0x0000000000000000        0x4 C:\Users\xboxl\Documents\Github\Ada_Drivers_Library_j\boards\MicroBit_v2\obj\zfp_lib_Debug\libada_drivers_library.a(nrf-tasks.o)
 .rodata.nrf__tasks__radio_bcstart
                0x0000000000000000        0x4 C:\Users\xboxl\Documents\Github\Ada_Drivers_Library_j\boards\MicroBit_v2\obj\zfp_lib_Debug\libada_drivers_library.a(nrf-tasks.o)
 .rodata.nrf__tasks__radio_bcstop
                0x0000000000000000        0x4 C:\Users\xboxl\Documents\Github\Ada_Drivers_Library_j\boards\MicroBit_v2\obj\zfp_lib_Debug\libada_drivers_library.a(nrf-tasks.o)
 .rodata.nrf__tasks__timer_0_start
                0x0000000000000000        0x4 C:\Users\xboxl\Documents\Github\Ada_Drivers_Library_j\boards\MicroBit_v2\obj\zfp_lib_Debug\libada_drivers_library.a(nrf-tasks.o)
 .rodata.nrf__tasks__timer_0_stop
                0x0000000000000000        0x4 C:\Users\xboxl\Documents\Github\Ada_Drivers_Library_j\boards\MicroBit_v2\obj\zfp_lib_Debug\libada_drivers_library.a(nrf-tasks.o)
 .rodata.nrf__tasks__timer_0_count
                0x0000000000000000        0x4 C:\Users\xboxl\Documents\Github\Ada_Drivers_Library_j\boards\MicroBit_v2\obj\zfp_lib_Debug\libada_drivers_library.a(nrf-tasks.o)
 .rodata.nrf__tasks__timer_0_clear
                0x0000000000000000        0x4 C:\Users\xboxl\Documents\Github\Ada_Drivers_Library_j\boards\MicroBit_v2\obj\zfp_lib_Debug\libada_drivers_library.a(nrf-tasks.o)
 .rodata.nrf__tasks__timer_0_capture_0
                0x0000000000000000        0x4 C:\Users\xboxl\Documents\Github\Ada_Drivers_Library_j\boards\MicroBit_v2\obj\zfp_lib_Debug\libada_drivers_library.a(nrf-tasks.o)
 .rodata.nrf__tasks__timer_0_capture_1
                0x0000000000000000        0x4 C:\Users\xboxl\Documents\Github\Ada_Drivers_Library_j\boards\MicroBit_v2\obj\zfp_lib_Debug\libada_drivers_library.a(nrf-tasks.o)
 .rodata.nrf__tasks__timer_0_capture_2
                0x0000000000000000        0x4 C:\Users\xboxl\Documents\Github\Ada_Drivers_Library_j\boards\MicroBit_v2\obj\zfp_lib_Debug\libada_drivers_library.a(nrf-tasks.o)
 .rodata.nrf__tasks__timer_0_capture_3
                0x0000000000000000        0x4 C:\Users\xboxl\Documents\Github\Ada_Drivers_Library_j\boards\MicroBit_v2\obj\zfp_lib_Debug\libada_drivers_library.a(nrf-tasks.o)
 .rodata.nrf__tasks__timer_1_start
                0x0000000000000000        0x4 C:\Users\xboxl\Documents\Github\Ada_Drivers_Library_j\boards\MicroBit_v2\obj\zfp_lib_Debug\libada_drivers_library.a(nrf-tasks.o)
 .rodata.nrf__tasks__timer_1_stop
                0x0000000000000000        0x4 C:\Users\xboxl\Documents\Github\Ada_Drivers_Library_j\boards\MicroBit_v2\obj\zfp_lib_Debug\libada_drivers_library.a(nrf-tasks.o)
 .rodata.nrf__tasks__timer_1_count
                0x0000000000000000        0x4 C:\Users\xboxl\Documents\Github\Ada_Drivers_Library_j\boards\MicroBit_v2\obj\zfp_lib_Debug\libada_drivers_library.a(nrf-tasks.o)
 .rodata.nrf__tasks__timer_1_clear
                0x0000000000000000        0x4 C:\Users\xboxl\Documents\Github\Ada_Drivers_Library_j\boards\MicroBit_v2\obj\zfp_lib_Debug\libada_drivers_library.a(nrf-tasks.o)
 .rodata.nrf__tasks__timer_1_capture_0
                0x0000000000000000        0x4 C:\Users\xboxl\Documents\Github\Ada_Drivers_Library_j\boards\MicroBit_v2\obj\zfp_lib_Debug\libada_drivers_library.a(nrf-tasks.o)
 .rodata.nrf__tasks__timer_1_capture_1
                0x0000000000000000        0x4 C:\Users\xboxl\Documents\Github\Ada_Drivers_Library_j\boards\MicroBit_v2\obj\zfp_lib_Debug\libada_drivers_library.a(nrf-tasks.o)
 .rodata.nrf__tasks__timer_1_capture_2
                0x0000000000000000        0x4 C:\Users\xboxl\Documents\Github\Ada_Drivers_Library_j\boards\MicroBit_v2\obj\zfp_lib_Debug\libada_drivers_library.a(nrf-tasks.o)
 .rodata.nrf__tasks__timer_1_capture_3
                0x0000000000000000        0x4 C:\Users\xboxl\Documents\Github\Ada_Drivers_Library_j\boards\MicroBit_v2\obj\zfp_lib_Debug\libada_drivers_library.a(nrf-tasks.o)
 .rodata.nrf__tasks__timer_2_start
                0x0000000000000000        0x4 C:\Users\xboxl\Documents\Github\Ada_Drivers_Library_j\boards\MicroBit_v2\obj\zfp_lib_Debug\libada_drivers_library.a(nrf-tasks.o)
 .rodata.nrf__tasks__timer_2_stop
                0x0000000000000000        0x4 C:\Users\xboxl\Documents\Github\Ada_Drivers_Library_j\boards\MicroBit_v2\obj\zfp_lib_Debug\libada_drivers_library.a(nrf-tasks.o)
 .rodata.nrf__tasks__timer_2_count
                0x0000000000000000        0x4 C:\Users\xboxl\Documents\Github\Ada_Drivers_Library_j\boards\MicroBit_v2\obj\zfp_lib_Debug\libada_drivers_library.a(nrf-tasks.o)
 .rodata.nrf__tasks__timer_2_clear
                0x0000000000000000        0x4 C:\Users\xboxl\Documents\Github\Ada_Drivers_Library_j\boards\MicroBit_v2\obj\zfp_lib_Debug\libada_drivers_library.a(nrf-tasks.o)
 .rodata.nrf__tasks__timer_2_capture_0
                0x0000000000000000        0x4 C:\Users\xboxl\Documents\Github\Ada_Drivers_Library_j\boards\MicroBit_v2\obj\zfp_lib_Debug\libada_drivers_library.a(nrf-tasks.o)
 .rodata.nrf__tasks__timer_2_capture_1
                0x0000000000000000        0x4 C:\Users\xboxl\Documents\Github\Ada_Drivers_Library_j\boards\MicroBit_v2\obj\zfp_lib_Debug\libada_drivers_library.a(nrf-tasks.o)
 .rodata.nrf__tasks__timer_2_capture_2
                0x0000000000000000        0x4 C:\Users\xboxl\Documents\Github\Ada_Drivers_Library_j\boards\MicroBit_v2\obj\zfp_lib_Debug\libada_drivers_library.a(nrf-tasks.o)
 .rodata.nrf__tasks__timer_2_capture_3
                0x0000000000000000        0x4 C:\Users\xboxl\Documents\Github\Ada_Drivers_Library_j\boards\MicroBit_v2\obj\zfp_lib_Debug\libada_drivers_library.a(nrf-tasks.o)
 .rodata.nrf__tasks__rtc_0_start
                0x0000000000000000        0x4 C:\Users\xboxl\Documents\Github\Ada_Drivers_Library_j\boards\MicroBit_v2\obj\zfp_lib_Debug\libada_drivers_library.a(nrf-tasks.o)
 .rodata.nrf__tasks__rtc_0_stop
                0x0000000000000000        0x4 C:\Users\xboxl\Documents\Github\Ada_Drivers_Library_j\boards\MicroBit_v2\obj\zfp_lib_Debug\libada_drivers_library.a(nrf-tasks.o)
 .rodata.nrf__tasks__rtc_0_clear
                0x0000000000000000        0x4 C:\Users\xboxl\Documents\Github\Ada_Drivers_Library_j\boards\MicroBit_v2\obj\zfp_lib_Debug\libada_drivers_library.a(nrf-tasks.o)
 .rodata.nrf__tasks__rtc_0_trigovrflw
                0x0000000000000000        0x4 C:\Users\xboxl\Documents\Github\Ada_Drivers_Library_j\boards\MicroBit_v2\obj\zfp_lib_Debug\libada_drivers_library.a(nrf-tasks.o)
 .rodata.nrf__tasks__rtc_1_start
                0x0000000000000000        0x4 C:\Users\xboxl\Documents\Github\Ada_Drivers_Library_j\boards\MicroBit_v2\obj\zfp_lib_Debug\libada_drivers_library.a(nrf-tasks.o)
 .rodata.nrf__tasks__rtc_1_stop
                0x0000000000000000        0x4 C:\Users\xboxl\Documents\Github\Ada_Drivers_Library_j\boards\MicroBit_v2\obj\zfp_lib_Debug\libada_drivers_library.a(nrf-tasks.o)
 .rodata.nrf__tasks__rtc_1_clear
                0x0000000000000000        0x4 C:\Users\xboxl\Documents\Github\Ada_Drivers_Library_j\boards\MicroBit_v2\obj\zfp_lib_Debug\libada_drivers_library.a(nrf-tasks.o)
 .rodata.nrf__tasks__rtc_1_trigovrflw
                0x0000000000000000        0x4 C:\Users\xboxl\Documents\Github\Ada_Drivers_Library_j\boards\MicroBit_v2\obj\zfp_lib_Debug\libada_drivers_library.a(nrf-tasks.o)
 .rodata.nrf__tasks__watchdog_start
                0x0000000000000000        0x4 C:\Users\xboxl\Documents\Github\Ada_Drivers_Library_j\boards\MicroBit_v2\obj\zfp_lib_Debug\libada_drivers_library.a(nrf-tasks.o)
 .rodata.nrf__tasks__rng_start
                0x0000000000000000        0x4 C:\Users\xboxl\Documents\Github\Ada_Drivers_Library_j\boards\MicroBit_v2\obj\zfp_lib_Debug\libada_drivers_library.a(nrf-tasks.o)
 .rodata.nrf__tasks__rng_stop
                0x0000000000000000        0x4 C:\Users\xboxl\Documents\Github\Ada_Drivers_Library_j\boards\MicroBit_v2\obj\zfp_lib_Debug\libada_drivers_library.a(nrf-tasks.o)
 .rodata.nrf__tasks__temperature_start
                0x0000000000000000        0x4 C:\Users\xboxl\Documents\Github\Ada_Drivers_Library_j\boards\MicroBit_v2\obj\zfp_lib_Debug\libada_drivers_library.a(nrf-tasks.o)
 .rodata.nrf__tasks__temperature_stop
                0x0000000000000000        0x4 C:\Users\xboxl\Documents\Github\Ada_Drivers_Library_j\boards\MicroBit_v2\obj\zfp_lib_Debug\libada_drivers_library.a(nrf-tasks.o)
 .rodata.nrf__tasks__ecb_start
                0x0000000000000000        0x4 C:\Users\xboxl\Documents\Github\Ada_Drivers_Library_j\boards\MicroBit_v2\obj\zfp_lib_Debug\libada_drivers_library.a(nrf-tasks.o)
 .rodata.nrf__tasks__ecb_stop
                0x0000000000000000        0x4 C:\Users\xboxl\Documents\Github\Ada_Drivers_Library_j\boards\MicroBit_v2\obj\zfp_lib_Debug\libada_drivers_library.a(nrf-tasks.o)
 .rodata.nrf__tasks__ccm_ksgen
                0x0000000000000000        0x4 C:\Users\xboxl\Documents\Github\Ada_Drivers_Library_j\boards\MicroBit_v2\obj\zfp_lib_Debug\libada_drivers_library.a(nrf-tasks.o)
 .rodata.nrf__tasks__ccm_crypt
                0x0000000000000000        0x4 C:\Users\xboxl\Documents\Github\Ada_Drivers_Library_j\boards\MicroBit_v2\obj\zfp_lib_Debug\libada_drivers_library.a(nrf-tasks.o)
 .rodata.nrf__tasks__ccm_stop
                0x0000000000000000        0x4 C:\Users\xboxl\Documents\Github\Ada_Drivers_Library_j\boards\MicroBit_v2\obj\zfp_lib_Debug\libada_drivers_library.a(nrf-tasks.o)
 .rodata.nrf__tasks__aar_start
                0x0000000000000000        0x4 C:\Users\xboxl\Documents\Github\Ada_Drivers_Library_j\boards\MicroBit_v2\obj\zfp_lib_Debug\libada_drivers_library.a(nrf-tasks.o)
 .rodata.nrf__tasks__aar_stop
                0x0000000000000000        0x4 C:\Users\xboxl\Documents\Github\Ada_Drivers_Library_j\boards\MicroBit_v2\obj\zfp_lib_Debug\libada_drivers_library.a(nrf-tasks.o)
 .rodata.nrf__tasks__twi_0_startrx
                0x0000000000000000        0x4 C:\Users\xboxl\Documents\Github\Ada_Drivers_Library_j\boards\MicroBit_v2\obj\zfp_lib_Debug\libada_drivers_library.a(nrf-tasks.o)
 .rodata.nrf__tasks__twi_0_starttx
                0x0000000000000000        0x4 C:\Users\xboxl\Documents\Github\Ada_Drivers_Library_j\boards\MicroBit_v2\obj\zfp_lib_Debug\libada_drivers_library.a(nrf-tasks.o)
 .rodata.nrf__tasks__twi_0_stop
                0x0000000000000000        0x4 C:\Users\xboxl\Documents\Github\Ada_Drivers_Library_j\boards\MicroBit_v2\obj\zfp_lib_Debug\libada_drivers_library.a(nrf-tasks.o)
 .rodata.nrf__tasks__twi_0_suspend
                0x0000000000000000        0x4 C:\Users\xboxl\Documents\Github\Ada_Drivers_Library_j\boards\MicroBit_v2\obj\zfp_lib_Debug\libada_drivers_library.a(nrf-tasks.o)
 .rodata.nrf__tasks__twi_0_resume
                0x0000000000000000        0x4 C:\Users\xboxl\Documents\Github\Ada_Drivers_Library_j\boards\MicroBit_v2\obj\zfp_lib_Debug\libada_drivers_library.a(nrf-tasks.o)
 .rodata.nrf__tasks__twi_1_startrx
                0x0000000000000000        0x4 C:\Users\xboxl\Documents\Github\Ada_Drivers_Library_j\boards\MicroBit_v2\obj\zfp_lib_Debug\libada_drivers_library.a(nrf-tasks.o)
 .rodata.nrf__tasks__twi_1_starttx
                0x0000000000000000        0x4 C:\Users\xboxl\Documents\Github\Ada_Drivers_Library_j\boards\MicroBit_v2\obj\zfp_lib_Debug\libada_drivers_library.a(nrf-tasks.o)
 .rodata.nrf__tasks__twi_1_stop
                0x0000000000000000        0x4 C:\Users\xboxl\Documents\Github\Ada_Drivers_Library_j\boards\MicroBit_v2\obj\zfp_lib_Debug\libada_drivers_library.a(nrf-tasks.o)
 .rodata.nrf__tasks__twi_1_suspend
                0x0000000000000000        0x4 C:\Users\xboxl\Documents\Github\Ada_Drivers_Library_j\boards\MicroBit_v2\obj\zfp_lib_Debug\libada_drivers_library.a(nrf-tasks.o)
 .rodata.nrf__tasks__twi_1_resume
                0x0000000000000000        0x4 C:\Users\xboxl\Documents\Github\Ada_Drivers_Library_j\boards\MicroBit_v2\obj\zfp_lib_Debug\libada_drivers_library.a(nrf-tasks.o)
 .rodata.nrf__tasks__uart_startrx
                0x0000000000000000        0x4 C:\Users\xboxl\Documents\Github\Ada_Drivers_Library_j\boards\MicroBit_v2\obj\zfp_lib_Debug\libada_drivers_library.a(nrf-tasks.o)
 .rodata.nrf__tasks__uart_stoprx
                0x0000000000000000        0x4 C:\Users\xboxl\Documents\Github\Ada_Drivers_Library_j\boards\MicroBit_v2\obj\zfp_lib_Debug\libada_drivers_library.a(nrf-tasks.o)
 .rodata.nrf__tasks__uart_starttx
                0x0000000000000000        0x4 C:\Users\xboxl\Documents\Github\Ada_Drivers_Library_j\boards\MicroBit_v2\obj\zfp_lib_Debug\libada_drivers_library.a(nrf-tasks.o)
 .rodata.nrf__tasks__uart_stoptx
                0x0000000000000000        0x4 C:\Users\xboxl\Documents\Github\Ada_Drivers_Library_j\boards\MicroBit_v2\obj\zfp_lib_Debug\libada_drivers_library.a(nrf-tasks.o)
 .rodata.nrf__tasks__qdec_start
                0x0000000000000000        0x4 C:\Users\xboxl\Documents\Github\Ada_Drivers_Library_j\boards\MicroBit_v2\obj\zfp_lib_Debug\libada_drivers_library.a(nrf-tasks.o)
 .rodata.nrf__tasks__qdec_stop
                0x0000000000000000        0x4 C:\Users\xboxl\Documents\Github\Ada_Drivers_Library_j\boards\MicroBit_v2\obj\zfp_lib_Debug\libada_drivers_library.a(nrf-tasks.o)
 .rodata.nrf__tasks__qdec_readclracc
                0x0000000000000000        0x4 C:\Users\xboxl\Documents\Github\Ada_Drivers_Library_j\boards\MicroBit_v2\obj\zfp_lib_Debug\libada_drivers_library.a(nrf-tasks.o)
 .rodata.nrf__tasks__adc_start
                0x0000000000000000        0x4 C:\Users\xboxl\Documents\Github\Ada_Drivers_Library_j\boards\MicroBit_v2\obj\zfp_lib_Debug\libada_drivers_library.a(nrf-tasks.o)
 .rodata.nrf__tasks__adc_stop
                0x0000000000000000        0x4 C:\Users\xboxl\Documents\Github\Ada_Drivers_Library_j\boards\MicroBit_v2\obj\zfp_lib_Debug\libada_drivers_library.a(nrf-tasks.o)
 .rodata.nrf__tasks__adc_sample
                0x0000000000000000        0x4 C:\Users\xboxl\Documents\Github\Ada_Drivers_Library_j\boards\MicroBit_v2\obj\zfp_lib_Debug\libada_drivers_library.a(nrf-tasks.o)
 .rodata.nrf__tasks__pwm_stop
                0x0000000000000000        0x4 C:\Users\xboxl\Documents\Github\Ada_Drivers_Library_j\boards\MicroBit_v2\obj\zfp_lib_Debug\libada_drivers_library.a(nrf-tasks.o)
 .rodata.nrf__tasks__pwm_seqstart_0
                0x0000000000000000        0x4 C:\Users\xboxl\Documents\Github\Ada_Drivers_Library_j\boards\MicroBit_v2\obj\zfp_lib_Debug\libada_drivers_library.a(nrf-tasks.o)
 .text          0x0000000000000000        0x0 C:\Users\xboxl\Documents\Github\Ada_Drivers_Library_j\boards\MicroBit_v2\obj\zfp_lib_Debug\libada_drivers_library.a(nrf-timers.o)
 .data          0x0000000000000000        0x0 C:\Users\xboxl\Documents\Github\Ada_Drivers_Library_j\boards\MicroBit_v2\obj\zfp_lib_Debug\libada_drivers_library.a(nrf-timers.o)
 .bss           0x0000000000000000        0x0 C:\Users\xboxl\Documents\Github\Ada_Drivers_Library_j\boards\MicroBit_v2\obj\zfp_lib_Debug\libada_drivers_library.a(nrf-timers.o)
 .rodata.nrf__timers__timerY
                0x0000000000000000        0x4 C:\Users\xboxl\Documents\Github\Ada_Drivers_Library_j\boards\MicroBit_v2\obj\zfp_lib_Debug\libada_drivers_library.a(nrf-timers.o)
 .rodata.nrf__timers__timerP
                0x0000000000000000        0x4 C:\Users\xboxl\Documents\Github\Ada_Drivers_Library_j\boards\MicroBit_v2\obj\zfp_lib_Debug\libada_drivers_library.a(nrf-timers.o)
 .rodata.nrf__timers__timerR21s
                0x0000000000000000        0x4 C:\Users\xboxl\Documents\Github\Ada_Drivers_Library_j\boards\MicroBit_v2\obj\zfp_lib_Debug\libada_drivers_library.a(nrf-timers.o)
 .text          0x0000000000000000        0x0 C:\Users\xboxl\Documents\Github\Ada_Drivers_Library_j\boards\MicroBit_v2\obj\zfp_lib_Debug\libada_drivers_library.a(nrf-twi.o)
 .data          0x0000000000000000        0x0 C:\Users\xboxl\Documents\Github\Ada_Drivers_Library_j\boards\MicroBit_v2\obj\zfp_lib_Debug\libada_drivers_library.a(nrf-twi.o)
 .bss           0x0000000000000000        0x0 C:\Users\xboxl\Documents\Github\Ada_Drivers_Library_j\boards\MicroBit_v2\obj\zfp_lib_Debug\libada_drivers_library.a(nrf-twi.o)
 .rodata.nrf__twi__twi_masterY
                0x0000000000000000        0x4 C:\Users\xboxl\Documents\Github\Ada_Drivers_Library_j\boards\MicroBit_v2\obj\zfp_lib_Debug\libada_drivers_library.a(nrf-twi.o)
 .rodata.nrf__twi__twi_masterP
                0x0000000000000000        0x4 C:\Users\xboxl\Documents\Github\Ada_Drivers_Library_j\boards\MicroBit_v2\obj\zfp_lib_Debug\libada_drivers_library.a(nrf-twi.o)
 .rodata.nrf__twi__twi_masterR25s
                0x0000000000000000        0x4 C:\Users\xboxl\Documents\Github\Ada_Drivers_Library_j\boards\MicroBit_v2\obj\zfp_lib_Debug\libada_drivers_library.a(nrf-twi.o)
 .data.T10b.1   0x0000000000000000        0x4 C:\Users\xboxl\Documents\Github\Ada_Drivers_Library_j\boards\MicroBit_v2\obj\zfp_lib_Debug\libada_drivers_library.a(nrf-twi.o)
 .data.T18b.0   0x0000000000000000        0x4 C:\Users\xboxl\Documents\Github\Ada_Drivers_Library_j\boards\MicroBit_v2\obj\zfp_lib_Debug\libada_drivers_library.a(nrf-twi.o)
 .text          0x0000000000000000        0x0 C:\Users\xboxl\Documents\Github\Ada_Drivers_Library_j\boards\MicroBit_v2\obj\zfp_lib_Debug\libada_drivers_library.a(nrf-uart.o)
 .data          0x0000000000000000        0x0 C:\Users\xboxl\Documents\Github\Ada_Drivers_Library_j\boards\MicroBit_v2\obj\zfp_lib_Debug\libada_drivers_library.a(nrf-uart.o)
 .bss           0x0000000000000000        0x0 C:\Users\xboxl\Documents\Github\Ada_Drivers_Library_j\boards\MicroBit_v2\obj\zfp_lib_Debug\libada_drivers_library.a(nrf-uart.o)
 .text.nrf__uart__baud_rateRP
                0x0000000000000000      0x184 C:\Users\xboxl\Documents\Github\Ada_Drivers_Library_j\boards\MicroBit_v2\obj\zfp_lib_Debug\libada_drivers_library.a(nrf-uart.o)
 .rodata.nrf__uart__uart_deviceY
                0x0000000000000000        0x4 C:\Users\xboxl\Documents\Github\Ada_Drivers_Library_j\boards\MicroBit_v2\obj\zfp_lib_Debug\libada_drivers_library.a(nrf-uart.o)
 .rodata.nrf__uart__uart_deviceP
                0x0000000000000000        0x4 C:\Users\xboxl\Documents\Github\Ada_Drivers_Library_j\boards\MicroBit_v2\obj\zfp_lib_Debug\libada_drivers_library.a(nrf-uart.o)
 .rodata.nrf__uart__baud_rateA
                0x0000000000000000       0x40 C:\Users\xboxl\Documents\Github\Ada_Drivers_Library_j\boards\MicroBit_v2\obj\zfp_lib_Debug\libada_drivers_library.a(nrf-uart.o)
 .rodata.nrf__uart__uart_deviceR47s
                0x0000000000000000        0x4 C:\Users\xboxl\Documents\Github\Ada_Drivers_Library_j\boards\MicroBit_v2\obj\zfp_lib_Debug\libada_drivers_library.a(nrf-uart.o)
 .text          0x0000000000000000        0x0 C:\Users\xboxl\Documents\Github\Ada_Drivers_Library_j\boards\MicroBit_v2\obj\zfp_lib_Debug\libada_drivers_library.a(nrf_svd-gpio.o)
 .data          0x0000000000000000        0x0 C:\Users\xboxl\Documents\Github\Ada_Drivers_Library_j\boards\MicroBit_v2\obj\zfp_lib_Debug\libada_drivers_library.a(nrf_svd-gpio.o)
 .bss           0x0000000000000000        0x0 C:\Users\xboxl\Documents\Github\Ada_Drivers_Library_j\boards\MicroBit_v2\obj\zfp_lib_Debug\libada_drivers_library.a(nrf_svd-gpio.o)
 .text.nrf_svd__gpio__pin_cnf_sense_fieldRP
                0x0000000000000000       0x40 C:\Users\xboxl\Documents\Github\Ada_Drivers_Library_j\boards\MicroBit_v2\obj\zfp_lib_Debug\libada_drivers_library.a(nrf_svd-gpio.o)
 .text.nrf_svd__gpio__Tout_pin_field_arrayBIP
                0x0000000000000000       0x14 C:\Users\xboxl\Documents\Github\Ada_Drivers_Library_j\boards\MicroBit_v2\obj\zfp_lib_Debug\libada_drivers_library.a(nrf_svd-gpio.o)
 .text.nrf_svd__gpio__out_registerEQ__E39s.0
                0x0000000000000000       0x48 C:\Users\xboxl\Documents\Github\Ada_Drivers_Library_j\boards\MicroBit_v2\obj\zfp_lib_Debug\libada_drivers_library.a(nrf_svd-gpio.o)
 .text.nrf_svd__gpio__out_registerEQ
                0x0000000000000000       0x78 C:\Users\xboxl\Documents\Github\Ada_Drivers_Library_j\boards\MicroBit_v2\obj\zfp_lib_Debug\libada_drivers_library.a(nrf_svd-gpio.o)
 .text.nrf_svd__gpio__out_registerIP
                0x0000000000000000       0x18 C:\Users\xboxl\Documents\Github\Ada_Drivers_Library_j\boards\MicroBit_v2\obj\zfp_lib_Debug\libada_drivers_library.a(nrf_svd-gpio.o)
 .text.nrf_svd__gpio__Toutset_pin_field_arrayBIP
                0x0000000000000000       0x14 C:\Users\xboxl\Documents\Github\Ada_Drivers_Library_j\boards\MicroBit_v2\obj\zfp_lib_Debug\libada_drivers_library.a(nrf_svd-gpio.o)
 .text.nrf_svd__gpio__outset_registerEQ__E56s.1
                0x0000000000000000       0x48 C:\Users\xboxl\Documents\Github\Ada_Drivers_Library_j\boards\MicroBit_v2\obj\zfp_lib_Debug\libada_drivers_library.a(nrf_svd-gpio.o)
 .text.nrf_svd__gpio__outset_registerEQ
                0x0000000000000000       0x78 C:\Users\xboxl\Documents\Github\Ada_Drivers_Library_j\boards\MicroBit_v2\obj\zfp_lib_Debug\libada_drivers_library.a(nrf_svd-gpio.o)
 .text.nrf_svd__gpio__outset_registerIP
                0x0000000000000000       0x18 C:\Users\xboxl\Documents\Github\Ada_Drivers_Library_j\boards\MicroBit_v2\obj\zfp_lib_Debug\libada_drivers_library.a(nrf_svd-gpio.o)
 .text.nrf_svd__gpio__Toutclr_pin_field_arrayBIP
                0x0000000000000000       0x14 C:\Users\xboxl\Documents\Github\Ada_Drivers_Library_j\boards\MicroBit_v2\obj\zfp_lib_Debug\libada_drivers_library.a(nrf_svd-gpio.o)
 .text.nrf_svd__gpio__outclr_registerEQ__E73s.2
                0x0000000000000000       0x48 C:\Users\xboxl\Documents\Github\Ada_Drivers_Library_j\boards\MicroBit_v2\obj\zfp_lib_Debug\libada_drivers_library.a(nrf_svd-gpio.o)
 .text.nrf_svd__gpio__outclr_registerEQ
                0x0000000000000000       0x78 C:\Users\xboxl\Documents\Github\Ada_Drivers_Library_j\boards\MicroBit_v2\obj\zfp_lib_Debug\libada_drivers_library.a(nrf_svd-gpio.o)
 .text.nrf_svd__gpio__outclr_registerIP
                0x0000000000000000       0x18 C:\Users\xboxl\Documents\Github\Ada_Drivers_Library_j\boards\MicroBit_v2\obj\zfp_lib_Debug\libada_drivers_library.a(nrf_svd-gpio.o)
 .text.nrf_svd__gpio__Tin_pin_field_arrayBIP
                0x0000000000000000       0x14 C:\Users\xboxl\Documents\Github\Ada_Drivers_Library_j\boards\MicroBit_v2\obj\zfp_lib_Debug\libada_drivers_library.a(nrf_svd-gpio.o)
 .text.nrf_svd__gpio__in_registerEQ__E90s.3
                0x0000000000000000       0x48 C:\Users\xboxl\Documents\Github\Ada_Drivers_Library_j\boards\MicroBit_v2\obj\zfp_lib_Debug\libada_drivers_library.a(nrf_svd-gpio.o)
 .text.nrf_svd__gpio__in_registerEQ
                0x0000000000000000       0x78 C:\Users\xboxl\Documents\Github\Ada_Drivers_Library_j\boards\MicroBit_v2\obj\zfp_lib_Debug\libada_drivers_library.a(nrf_svd-gpio.o)
 .text.nrf_svd__gpio__in_registerIP
                0x0000000000000000       0x18 C:\Users\xboxl\Documents\Github\Ada_Drivers_Library_j\boards\MicroBit_v2\obj\zfp_lib_Debug\libada_drivers_library.a(nrf_svd-gpio.o)
 .text.nrf_svd__gpio__Tdir_pin_field_arrayBIP
                0x0000000000000000       0x14 C:\Users\xboxl\Documents\Github\Ada_Drivers_Library_j\boards\MicroBit_v2\obj\zfp_lib_Debug\libada_drivers_library.a(nrf_svd-gpio.o)
 .text.nrf_svd__gpio__dir_registerEQ__E107s.4
                0x0000000000000000       0x48 C:\Users\xboxl\Documents\Github\Ada_Drivers_Library_j\boards\MicroBit_v2\obj\zfp_lib_Debug\libada_drivers_library.a(nrf_svd-gpio.o)
 .text.nrf_svd__gpio__dir_registerEQ
                0x0000000000000000       0x78 C:\Users\xboxl\Documents\Github\Ada_Drivers_Library_j\boards\MicroBit_v2\obj\zfp_lib_Debug\libada_drivers_library.a(nrf_svd-gpio.o)
 .text.nrf_svd__gpio__dir_registerIP
                0x0000000000000000       0x18 C:\Users\xboxl\Documents\Github\Ada_Drivers_Library_j\boards\MicroBit_v2\obj\zfp_lib_Debug\libada_drivers_library.a(nrf_svd-gpio.o)
 .text.nrf_svd__gpio__Tdirset_pin_field_arrayBIP
                0x0000000000000000       0x14 C:\Users\xboxl\Documents\Github\Ada_Drivers_Library_j\boards\MicroBit_v2\obj\zfp_lib_Debug\libada_drivers_library.a(nrf_svd-gpio.o)
 .text.nrf_svd__gpio__dirset_registerEQ__E124s.5
                0x0000000000000000       0x48 C:\Users\xboxl\Documents\Github\Ada_Drivers_Library_j\boards\MicroBit_v2\obj\zfp_lib_Debug\libada_drivers_library.a(nrf_svd-gpio.o)
 .text.nrf_svd__gpio__dirset_registerEQ
                0x0000000000000000       0x78 C:\Users\xboxl\Documents\Github\Ada_Drivers_Library_j\boards\MicroBit_v2\obj\zfp_lib_Debug\libada_drivers_library.a(nrf_svd-gpio.o)
 .text.nrf_svd__gpio__dirset_registerIP
                0x0000000000000000       0x18 C:\Users\xboxl\Documents\Github\Ada_Drivers_Library_j\boards\MicroBit_v2\obj\zfp_lib_Debug\libada_drivers_library.a(nrf_svd-gpio.o)
 .text.nrf_svd__gpio__Tdirclr_pin_field_arrayBIP
                0x0000000000000000       0x14 C:\Users\xboxl\Documents\Github\Ada_Drivers_Library_j\boards\MicroBit_v2\obj\zfp_lib_Debug\libada_drivers_library.a(nrf_svd-gpio.o)
 .text.nrf_svd__gpio__dirclr_registerEQ__E141s.6
                0x0000000000000000       0x48 C:\Users\xboxl\Documents\Github\Ada_Drivers_Library_j\boards\MicroBit_v2\obj\zfp_lib_Debug\libada_drivers_library.a(nrf_svd-gpio.o)
 .text.nrf_svd__gpio__dirclr_registerEQ
                0x0000000000000000       0x78 C:\Users\xboxl\Documents\Github\Ada_Drivers_Library_j\boards\MicroBit_v2\obj\zfp_lib_Debug\libada_drivers_library.a(nrf_svd-gpio.o)
 .text.nrf_svd__gpio__dirclr_registerIP
                0x0000000000000000       0x18 C:\Users\xboxl\Documents\Github\Ada_Drivers_Library_j\boards\MicroBit_v2\obj\zfp_lib_Debug\libada_drivers_library.a(nrf_svd-gpio.o)
 .text.nrf_svd__gpio__Tlatch_pin_field_arrayBIP
                0x0000000000000000       0x14 C:\Users\xboxl\Documents\Github\Ada_Drivers_Library_j\boards\MicroBit_v2\obj\zfp_lib_Debug\libada_drivers_library.a(nrf_svd-gpio.o)
 .text.nrf_svd__gpio__latch_registerEQ__E158s.7
                0x0000000000000000       0x48 C:\Users\xboxl\Documents\Github\Ada_Drivers_Library_j\boards\MicroBit_v2\obj\zfp_lib_Debug\libada_drivers_library.a(nrf_svd-gpio.o)
 .text.nrf_svd__gpio__latch_registerEQ
                0x0000000000000000       0x78 C:\Users\xboxl\Documents\Github\Ada_Drivers_Library_j\boards\MicroBit_v2\obj\zfp_lib_Debug\libada_drivers_library.a(nrf_svd-gpio.o)
 .text.nrf_svd__gpio__latch_registerIP
                0x0000000000000000       0x18 C:\Users\xboxl\Documents\Github\Ada_Drivers_Library_j\boards\MicroBit_v2\obj\zfp_lib_Debug\libada_drivers_library.a(nrf_svd-gpio.o)
 .text.nrf_svd__gpio__detectmode_registerIP
                0x0000000000000000       0x30 C:\Users\xboxl\Documents\Github\Ada_Drivers_Library_j\boards\MicroBit_v2\obj\zfp_lib_Debug\libada_drivers_library.a(nrf_svd-gpio.o)
 .text.nrf_svd__gpio__pin_cnf_registerIP
                0x0000000000000000       0x84 C:\Users\xboxl\Documents\Github\Ada_Drivers_Library_j\boards\MicroBit_v2\obj\zfp_lib_Debug\libada_drivers_library.a(nrf_svd-gpio.o)
 .text.nrf_svd__gpio__Tpin_cnf_registersBIP
                0x0000000000000000       0x3c C:\Users\xboxl\Documents\Github\Ada_Drivers_Library_j\boards\MicroBit_v2\obj\zfp_lib_Debug\libada_drivers_library.a(nrf_svd-gpio.o)
 .rodata        0x0000000000000000       0x1c C:\Users\xboxl\Documents\Github\Ada_Drivers_Library_j\boards\MicroBit_v2\obj\zfp_lib_Debug\libada_drivers_library.a(nrf_svd-gpio.o)
 .text.nrf_svd__gpio__gpio_peripheralEQ
                0x0000000000000000       0x18 C:\Users\xboxl\Documents\Github\Ada_Drivers_Library_j\boards\MicroBit_v2\obj\zfp_lib_Debug\libada_drivers_library.a(nrf_svd-gpio.o)
 .text.nrf_svd__gpio__gpio_peripheralIP
                0x0000000000000000       0x30 C:\Users\xboxl\Documents\Github\Ada_Drivers_Library_j\boards\MicroBit_v2\obj\zfp_lib_Debug\libada_drivers_library.a(nrf_svd-gpio.o)
 .rodata.nrf_svd__gpio__pin_cnf_pull_fieldA
                0x0000000000000000        0x4 C:\Users\xboxl\Documents\Github\Ada_Drivers_Library_j\boards\MicroBit_v2\obj\zfp_lib_Debug\libada_drivers_library.a(nrf_svd-gpio.o)
 .rodata.nrf_svd__gpio__pin_cnf_sense_fieldA
                0x0000000000000000        0x4 C:\Users\xboxl\Documents\Github\Ada_Drivers_Library_j\boards\MicroBit_v2\obj\zfp_lib_Debug\libada_drivers_library.a(nrf_svd-gpio.o)
 .rodata.nrf_svd__gpio__gpio_periph
                0x0000000000000000        0x4 C:\Users\xboxl\Documents\Github\Ada_Drivers_Library_j\boards\MicroBit_v2\obj\zfp_lib_Debug\libada_drivers_library.a(nrf_svd-gpio.o)
 .rodata.nrf_svd__gpio__gpio_periph1
                0x0000000000000000        0x4 C:\Users\xboxl\Documents\Github\Ada_Drivers_Library_j\boards\MicroBit_v2\obj\zfp_lib_Debug\libada_drivers_library.a(nrf_svd-gpio.o)
 .text          0x0000000000000000        0x0 C:\Users\xboxl\Documents\Github\Ada_Drivers_Library_j\boards\MicroBit_v2\obj\zfp_lib_Debug\libada_drivers_library.a(nrf_svd-radio.o)
 .data          0x0000000000000000        0x0 C:\Users\xboxl\Documents\Github\Ada_Drivers_Library_j\boards\MicroBit_v2\obj\zfp_lib_Debug\libada_drivers_library.a(nrf_svd-radio.o)
 .bss           0x0000000000000000        0x0 C:\Users\xboxl\Documents\Github\Ada_Drivers_Library_j\boards\MicroBit_v2\obj\zfp_lib_Debug\libada_drivers_library.a(nrf_svd-radio.o)
 .text.nrf_svd__radio__shorts_registerIP
                0x0000000000000000       0xa0 C:\Users\xboxl\Documents\Github\Ada_Drivers_Library_j\boards\MicroBit_v2\obj\zfp_lib_Debug\libada_drivers_library.a(nrf_svd-radio.o)
 .text.nrf_svd__radio__intenset_registerIP
                0x0000000000000000       0xd8 C:\Users\xboxl\Documents\Github\Ada_Drivers_Library_j\boards\MicroBit_v2\obj\zfp_lib_Debug\libada_drivers_library.a(nrf_svd-radio.o)
 .text.nrf_svd__radio__intenclr_registerIP
                0x0000000000000000       0xd8 C:\Users\xboxl\Documents\Github\Ada_Drivers_Library_j\boards\MicroBit_v2\obj\zfp_lib_Debug\libada_drivers_library.a(nrf_svd-radio.o)
 .text.nrf_svd__radio__crcstatus_registerIP
                0x0000000000000000       0x14 C:\Users\xboxl\Documents\Github\Ada_Drivers_Library_j\boards\MicroBit_v2\obj\zfp_lib_Debug\libada_drivers_library.a(nrf_svd-radio.o)
 .text.nrf_svd__radio__rxmatch_registerIP
                0x0000000000000000       0x14 C:\Users\xboxl\Documents\Github\Ada_Drivers_Library_j\boards\MicroBit_v2\obj\zfp_lib_Debug\libada_drivers_library.a(nrf_svd-radio.o)
 .text.nrf_svd__radio__rxcrc_registerIP
                0x0000000000000000       0x14 C:\Users\xboxl\Documents\Github\Ada_Drivers_Library_j\boards\MicroBit_v2\obj\zfp_lib_Debug\libada_drivers_library.a(nrf_svd-radio.o)
 .text.nrf_svd__radio__dai_registerIP
                0x0000000000000000       0x14 C:\Users\xboxl\Documents\Github\Ada_Drivers_Library_j\boards\MicroBit_v2\obj\zfp_lib_Debug\libada_drivers_library.a(nrf_svd-radio.o)
 .text.nrf_svd__radio__frequency_registerIP
                0x0000000000000000       0x4c C:\Users\xboxl\Documents\Github\Ada_Drivers_Library_j\boards\MicroBit_v2\obj\zfp_lib_Debug\libada_drivers_library.a(nrf_svd-radio.o)
 .text.nrf_svd__radio__txpower_registerIP
                0x0000000000000000       0x30 C:\Users\xboxl\Documents\Github\Ada_Drivers_Library_j\boards\MicroBit_v2\obj\zfp_lib_Debug\libada_drivers_library.a(nrf_svd-radio.o)
 .text.nrf_svd__radio__mode_registerIP
                0x0000000000000000       0x30 C:\Users\xboxl\Documents\Github\Ada_Drivers_Library_j\boards\MicroBit_v2\obj\zfp_lib_Debug\libada_drivers_library.a(nrf_svd-radio.o)
 .text.nrf_svd__radio__pcnf0_registerIP
                0x0000000000000000       0x90 C:\Users\xboxl\Documents\Github\Ada_Drivers_Library_j\boards\MicroBit_v2\obj\zfp_lib_Debug\libada_drivers_library.a(nrf_svd-radio.o)
 .text.nrf_svd__radio__pcnf1_registerIP
                0x0000000000000000       0x74 C:\Users\xboxl\Documents\Github\Ada_Drivers_Library_j\boards\MicroBit_v2\obj\zfp_lib_Debug\libada_drivers_library.a(nrf_svd-radio.o)
 .text.nrf_svd__radio__Tprefix0_ap_field_arrayBIP
                0x0000000000000000       0x14 C:\Users\xboxl\Documents\Github\Ada_Drivers_Library_j\boards\MicroBit_v2\obj\zfp_lib_Debug\libada_drivers_library.a(nrf_svd-radio.o)
 .text.nrf_svd__radio__prefix0_registerEQ
                0x0000000000000000       0x60 C:\Users\xboxl\Documents\Github\Ada_Drivers_Library_j\boards\MicroBit_v2\obj\zfp_lib_Debug\libada_drivers_library.a(nrf_svd-radio.o)
 .text.nrf_svd__radio__prefix0_registerIP
                0x0000000000000000       0x18 C:\Users\xboxl\Documents\Github\Ada_Drivers_Library_j\boards\MicroBit_v2\obj\zfp_lib_Debug\libada_drivers_library.a(nrf_svd-radio.o)
 .text.nrf_svd__radio__Tprefix1_ap_field_arrayBIP
                0x0000000000000000       0x14 C:\Users\xboxl\Documents\Github\Ada_Drivers_Library_j\boards\MicroBit_v2\obj\zfp_lib_Debug\libada_drivers_library.a(nrf_svd-radio.o)
 .text.nrf_svd__radio__prefix1_registerEQ
                0x0000000000000000       0x60 C:\Users\xboxl\Documents\Github\Ada_Drivers_Library_j\boards\MicroBit_v2\obj\zfp_lib_Debug\libada_drivers_library.a(nrf_svd-radio.o)
 .text.nrf_svd__radio__prefix1_registerIP
                0x0000000000000000       0x18 C:\Users\xboxl\Documents\Github\Ada_Drivers_Library_j\boards\MicroBit_v2\obj\zfp_lib_Debug\libada_drivers_library.a(nrf_svd-radio.o)
 .text.nrf_svd__radio__txaddress_registerIP
                0x0000000000000000       0x30 C:\Users\xboxl\Documents\Github\Ada_Drivers_Library_j\boards\MicroBit_v2\obj\zfp_lib_Debug\libada_drivers_library.a(nrf_svd-radio.o)
 .text.nrf_svd__radio__Trxaddresses_addr_field_arrayBIP
                0x0000000000000000       0x14 C:\Users\xboxl\Documents\Github\Ada_Drivers_Library_j\boards\MicroBit_v2\obj\zfp_lib_Debug\libada_drivers_library.a(nrf_svd-radio.o)
 .text.nrf_svd__radio__rxaddresses_addr_fieldEQ__E44s.0
                0x0000000000000000       0x48 C:\Users\xboxl\Documents\Github\Ada_Drivers_Library_j\boards\MicroBit_v2\obj\zfp_lib_Debug\libada_drivers_library.a(nrf_svd-radio.o)
 .text.nrf_svd__radio__rxaddresses_addr_fieldEQ
                0x0000000000000000       0x6c C:\Users\xboxl\Documents\Github\Ada_Drivers_Library_j\boards\MicroBit_v2\obj\zfp_lib_Debug\libada_drivers_library.a(nrf_svd-radio.o)
 .text.nrf_svd__radio__rxaddresses_addr_fieldIP
                0x0000000000000000       0x18 C:\Users\xboxl\Documents\Github\Ada_Drivers_Library_j\boards\MicroBit_v2\obj\zfp_lib_Debug\libada_drivers_library.a(nrf_svd-radio.o)
 .rodata        0x0000000000000000       0x1c C:\Users\xboxl\Documents\Github\Ada_Drivers_Library_j\boards\MicroBit_v2\obj\zfp_lib_Debug\libada_drivers_library.a(nrf_svd-radio.o)
 .text.nrf_svd__radio__rxaddresses_registerEQ
                0x0000000000000000       0x18 C:\Users\xboxl\Documents\Github\Ada_Drivers_Library_j\boards\MicroBit_v2\obj\zfp_lib_Debug\libada_drivers_library.a(nrf_svd-radio.o)
 .text.nrf_svd__radio__rxaddresses_registerIP
                0x0000000000000000       0x30 C:\Users\xboxl\Documents\Github\Ada_Drivers_Library_j\boards\MicroBit_v2\obj\zfp_lib_Debug\libada_drivers_library.a(nrf_svd-radio.o)
 .text.nrf_svd__radio__crccnf_registerIP
                0x0000000000000000       0x4c C:\Users\xboxl\Documents\Github\Ada_Drivers_Library_j\boards\MicroBit_v2\obj\zfp_lib_Debug\libada_drivers_library.a(nrf_svd-radio.o)
 .text.nrf_svd__radio__crcpoly_registerIP
                0x0000000000000000       0x20 C:\Users\xboxl\Documents\Github\Ada_Drivers_Library_j\boards\MicroBit_v2\obj\zfp_lib_Debug\libada_drivers_library.a(nrf_svd-radio.o)
 .text.nrf_svd__radio__crcinit_registerIP
                0x0000000000000000       0x20 C:\Users\xboxl\Documents\Github\Ada_Drivers_Library_j\boards\MicroBit_v2\obj\zfp_lib_Debug\libada_drivers_library.a(nrf_svd-radio.o)
 .text.nrf_svd__radio__tifs_registerIP
                0x0000000000000000       0x30 C:\Users\xboxl\Documents\Github\Ada_Drivers_Library_j\boards\MicroBit_v2\obj\zfp_lib_Debug\libada_drivers_library.a(nrf_svd-radio.o)
 .text.nrf_svd__radio__rssisample_registerIP
                0x0000000000000000       0x14 C:\Users\xboxl\Documents\Github\Ada_Drivers_Library_j\boards\MicroBit_v2\obj\zfp_lib_Debug\libada_drivers_library.a(nrf_svd-radio.o)
 .text.nrf_svd__radio__state_state_fieldRP
                0x0000000000000000       0x84 C:\Users\xboxl\Documents\Github\Ada_Drivers_Library_j\boards\MicroBit_v2\obj\zfp_lib_Debug\libada_drivers_library.a(nrf_svd-radio.o)
 .text.nrf_svd__radio__state_registerIP
                0x0000000000000000       0x14 C:\Users\xboxl\Documents\Github\Ada_Drivers_Library_j\boards\MicroBit_v2\obj\zfp_lib_Debug\libada_drivers_library.a(nrf_svd-radio.o)
 .text.nrf_svd__radio__datawhiteiv_registerIP
                0x0000000000000000       0x30 C:\Users\xboxl\Documents\Github\Ada_Drivers_Library_j\boards\MicroBit_v2\obj\zfp_lib_Debug\libada_drivers_library.a(nrf_svd-radio.o)
 .text.nrf_svd__radio__Tdab_registersBIP
                0x0000000000000000       0x14 C:\Users\xboxl\Documents\Github\Ada_Drivers_Library_j\boards\MicroBit_v2\obj\zfp_lib_Debug\libada_drivers_library.a(nrf_svd-radio.o)
 .text.nrf_svd__radio__dap_registerIP
                0x0000000000000000       0x30 C:\Users\xboxl\Documents\Github\Ada_Drivers_Library_j\boards\MicroBit_v2\obj\zfp_lib_Debug\libada_drivers_library.a(nrf_svd-radio.o)
 .text.nrf_svd__radio__Tdap_registersBIP
                0x0000000000000000       0x3c C:\Users\xboxl\Documents\Github\Ada_Drivers_Library_j\boards\MicroBit_v2\obj\zfp_lib_Debug\libada_drivers_library.a(nrf_svd-radio.o)
 .text.nrf_svd__radio__Tdacnf_ena_field_arrayBIP
                0x0000000000000000       0x14 C:\Users\xboxl\Documents\Github\Ada_Drivers_Library_j\boards\MicroBit_v2\obj\zfp_lib_Debug\libada_drivers_library.a(nrf_svd-radio.o)
 .text.nrf_svd__radio__dacnf_ena_fieldEQ__E78s.1
                0x0000000000000000       0x48 C:\Users\xboxl\Documents\Github\Ada_Drivers_Library_j\boards\MicroBit_v2\obj\zfp_lib_Debug\libada_drivers_library.a(nrf_svd-radio.o)
 .text.nrf_svd__radio__dacnf_ena_fieldEQ
                0x0000000000000000       0x6c C:\Users\xboxl\Documents\Github\Ada_Drivers_Library_j\boards\MicroBit_v2\obj\zfp_lib_Debug\libada_drivers_library.a(nrf_svd-radio.o)
 .text.nrf_svd__radio__dacnf_ena_fieldIP
                0x0000000000000000       0x18 C:\Users\xboxl\Documents\Github\Ada_Drivers_Library_j\boards\MicroBit_v2\obj\zfp_lib_Debug\libada_drivers_library.a(nrf_svd-radio.o)
 .text.nrf_svd__radio__Tdacnf_txadd_field_arrayBIP
                0x0000000000000000       0x14 C:\Users\xboxl\Documents\Github\Ada_Drivers_Library_j\boards\MicroBit_v2\obj\zfp_lib_Debug\libada_drivers_library.a(nrf_svd-radio.o)
 .text.nrf_svd__radio__dacnf_txadd_fieldEQ__E91s.2
                0x0000000000000000       0x48 C:\Users\xboxl\Documents\Github\Ada_Drivers_Library_j\boards\MicroBit_v2\obj\zfp_lib_Debug\libada_drivers_library.a(nrf_svd-radio.o)
 .text.nrf_svd__radio__dacnf_txadd_fieldEQ
                0x0000000000000000       0x6c C:\Users\xboxl\Documents\Github\Ada_Drivers_Library_j\boards\MicroBit_v2\obj\zfp_lib_Debug\libada_drivers_library.a(nrf_svd-radio.o)
 .text.nrf_svd__radio__dacnf_txadd_fieldIP
                0x0000000000000000       0x18 C:\Users\xboxl\Documents\Github\Ada_Drivers_Library_j\boards\MicroBit_v2\obj\zfp_lib_Debug\libada_drivers_library.a(nrf_svd-radio.o)
 .text.nrf_svd__radio__dacnf_registerEQ
                0x0000000000000000       0x18 C:\Users\xboxl\Documents\Github\Ada_Drivers_Library_j\boards\MicroBit_v2\obj\zfp_lib_Debug\libada_drivers_library.a(nrf_svd-radio.o)
 .text.nrf_svd__radio__dacnf_registerIP
                0x0000000000000000       0x3c C:\Users\xboxl\Documents\Github\Ada_Drivers_Library_j\boards\MicroBit_v2\obj\zfp_lib_Debug\libada_drivers_library.a(nrf_svd-radio.o)
 .text.nrf_svd__radio__modecnf0_registerIP
                0x0000000000000000       0x4c C:\Users\xboxl\Documents\Github\Ada_Drivers_Library_j\boards\MicroBit_v2\obj\zfp_lib_Debug\libada_drivers_library.a(nrf_svd-radio.o)
 .text.nrf_svd__radio__power_registerIP
                0x0000000000000000       0x30 C:\Users\xboxl\Documents\Github\Ada_Drivers_Library_j\boards\MicroBit_v2\obj\zfp_lib_Debug\libada_drivers_library.a(nrf_svd-radio.o)
 .text.nrf_svd__radio__radio_peripheralEQ
                0x0000000000000000       0x18 C:\Users\xboxl\Documents\Github\Ada_Drivers_Library_j\boards\MicroBit_v2\obj\zfp_lib_Debug\libada_drivers_library.a(nrf_svd-radio.o)
 .text.nrf_svd__radio__radio_peripheralIP
                0x0000000000000000       0xfc C:\Users\xboxl\Documents\Github\Ada_Drivers_Library_j\boards\MicroBit_v2\obj\zfp_lib_Debug\libada_drivers_library.a(nrf_svd-radio.o)
 .rodata.nrf_svd__radio__txpower_txpower_fieldA
                0x0000000000000000        0xa C:\Users\xboxl\Documents\Github\Ada_Drivers_Library_j\boards\MicroBit_v2\obj\zfp_lib_Debug\libada_drivers_library.a(nrf_svd-radio.o)
 .rodata.nrf_svd__radio__state_state_fieldA
                0x0000000000000000        0x9 C:\Users\xboxl\Documents\Github\Ada_Drivers_Library_j\boards\MicroBit_v2\obj\zfp_lib_Debug\libada_drivers_library.a(nrf_svd-radio.o)
 .rodata.nrf_svd__radio__radio_periph
                0x0000000000000000        0x4 C:\Users\xboxl\Documents\Github\Ada_Drivers_Library_j\boards\MicroBit_v2\obj\zfp_lib_Debug\libada_drivers_library.a(nrf_svd-radio.o)
 .text          0x0000000000000000        0x0 C:\Users\xboxl\Documents\Github\Ada_Drivers_Library_j\boards\MicroBit_v2\obj\zfp_lib_Debug\libada_drivers_library.a(nrf_svd-twi.o)
 .data          0x0000000000000000        0x0 C:\Users\xboxl\Documents\Github\Ada_Drivers_Library_j\boards\MicroBit_v2\obj\zfp_lib_Debug\libada_drivers_library.a(nrf_svd-twi.o)
 .bss           0x0000000000000000        0x0 C:\Users\xboxl\Documents\Github\Ada_Drivers_Library_j\boards\MicroBit_v2\obj\zfp_lib_Debug\libada_drivers_library.a(nrf_svd-twi.o)
 .text.nrf_svd__twi__enable_enable_fieldRP
                0x0000000000000000       0x34 C:\Users\xboxl\Documents\Github\Ada_Drivers_Library_j\boards\MicroBit_v2\obj\zfp_lib_Debug\libada_drivers_library.a(nrf_svd-twi.o)
 .text.nrf_svd__twi__shorts_registerIP
                0x0000000000000000       0x3c C:\Users\xboxl\Documents\Github\Ada_Drivers_Library_j\boards\MicroBit_v2\obj\zfp_lib_Debug\libada_drivers_library.a(nrf_svd-twi.o)
 .text.nrf_svd__twi__intenset_registerIP
                0x0000000000000000       0xbc C:\Users\xboxl\Documents\Github\Ada_Drivers_Library_j\boards\MicroBit_v2\obj\zfp_lib_Debug\libada_drivers_library.a(nrf_svd-twi.o)
 .text.nrf_svd__twi__intenclr_registerIP
                0x0000000000000000       0xbc C:\Users\xboxl\Documents\Github\Ada_Drivers_Library_j\boards\MicroBit_v2\obj\zfp_lib_Debug\libada_drivers_library.a(nrf_svd-twi.o)
 .text.nrf_svd__twi__enable_registerIP
                0x0000000000000000       0x30 C:\Users\xboxl\Documents\Github\Ada_Drivers_Library_j\boards\MicroBit_v2\obj\zfp_lib_Debug\libada_drivers_library.a(nrf_svd-twi.o)
 .text.nrf_svd__twi__rxd_registerIP
                0x0000000000000000       0x14 C:\Users\xboxl\Documents\Github\Ada_Drivers_Library_j\boards\MicroBit_v2\obj\zfp_lib_Debug\libada_drivers_library.a(nrf_svd-twi.o)
 .text.nrf_svd__twi__txd_registerIP
                0x0000000000000000       0x30 C:\Users\xboxl\Documents\Github\Ada_Drivers_Library_j\boards\MicroBit_v2\obj\zfp_lib_Debug\libada_drivers_library.a(nrf_svd-twi.o)
 .text.nrf_svd__twi__address_registerIP
                0x0000000000000000       0x30 C:\Users\xboxl\Documents\Github\Ada_Drivers_Library_j\boards\MicroBit_v2\obj\zfp_lib_Debug\libada_drivers_library.a(nrf_svd-twi.o)
 .text.nrf_svd__twi__twi_peripheralIP
                0x0000000000000000       0x64 C:\Users\xboxl\Documents\Github\Ada_Drivers_Library_j\boards\MicroBit_v2\obj\zfp_lib_Debug\libada_drivers_library.a(nrf_svd-twi.o)
 .rodata.nrf_svd__twi__enable_enable_fieldA
                0x0000000000000000        0x2 C:\Users\xboxl\Documents\Github\Ada_Drivers_Library_j\boards\MicroBit_v2\obj\zfp_lib_Debug\libada_drivers_library.a(nrf_svd-twi.o)
 .rodata.nrf_svd__twi__twi0_periph
                0x0000000000000000        0x4 C:\Users\xboxl\Documents\Github\Ada_Drivers_Library_j\boards\MicroBit_v2\obj\zfp_lib_Debug\libada_drivers_library.a(nrf_svd-twi.o)
 .rodata.nrf_svd__twi__twi1_periph
                0x0000000000000000        0x4 C:\Users\xboxl\Documents\Github\Ada_Drivers_Library_j\boards\MicroBit_v2\obj\zfp_lib_Debug\libada_drivers_library.a(nrf_svd-twi.o)
 .text          0x0000000000000000        0x0 C:\Users\xboxl\Documents\Github\Ada_Drivers_Library_j\boards\MicroBit_v2\obj\zfp_lib_Debug\libada_drivers_library.a(hal-gpio.o)
 .data          0x0000000000000000        0x0 C:\Users\xboxl\Documents\Github\Ada_Drivers_Library_j\boards\MicroBit_v2\obj\zfp_lib_Debug\libada_drivers_library.a(hal-gpio.o)
 .bss           0x0000000000000000        0x0 C:\Users\xboxl\Documents\Github\Ada_Drivers_Library_j\boards\MicroBit_v2\obj\zfp_lib_Debug\libada_drivers_library.a(hal-gpio.o)
 .data.hal__gpio_E
                0x0000000000000000        0x2 C:\Users\xboxl\Documents\Github\Ada_Drivers_Library_j\boards\MicroBit_v2\obj\zfp_lib_Debug\libada_drivers_library.a(hal-gpio.o)
 .rodata.hal__gpio__gpio_pointP
                0x0000000000000000        0x4 C:\Users\xboxl\Documents\Github\Ada_Drivers_Library_j\boards\MicroBit_v2\obj\zfp_lib_Debug\libada_drivers_library.a(hal-gpio.o)
 .text          0x0000000000000000        0x0 C:\Users\xboxl\Documents\Github\Ada_Drivers_Library_j\boards\MicroBit_v2\obj\zfp_lib_Debug\libada_drivers_library.a(hal-i2c.o)
 .data          0x0000000000000000        0x0 C:\Users\xboxl\Documents\Github\Ada_Drivers_Library_j\boards\MicroBit_v2\obj\zfp_lib_Debug\libada_drivers_library.a(hal-i2c.o)
 .bss           0x0000000000000000        0x0 C:\Users\xboxl\Documents\Github\Ada_Drivers_Library_j\boards\MicroBit_v2\obj\zfp_lib_Debug\libada_drivers_library.a(hal-i2c.o)
 .data.hal__i2c_E
                0x0000000000000000        0x2 C:\Users\xboxl\Documents\Github\Ada_Drivers_Library_j\boards\MicroBit_v2\obj\zfp_lib_Debug\libada_drivers_library.a(hal-i2c.o)
 .rodata.hal__i2c__i2c_portP
                0x0000000000000000        0x4 C:\Users\xboxl\Documents\Github\Ada_Drivers_Library_j\boards\MicroBit_v2\obj\zfp_lib_Debug\libada_drivers_library.a(hal-i2c.o)
 .text          0x0000000000000000        0x0 C:\Users\xboxl\Documents\Github\Ada_Drivers_Library_j\boards\MicroBit_v2\obj\zfp_lib_Debug\libada_drivers_library.a(hal-spi.o)
 .data          0x0000000000000000        0x0 C:\Users\xboxl\Documents\Github\Ada_Drivers_Library_j\boards\MicroBit_v2\obj\zfp_lib_Debug\libada_drivers_library.a(hal-spi.o)
 .bss           0x0000000000000000        0x0 C:\Users\xboxl\Documents\Github\Ada_Drivers_Library_j\boards\MicroBit_v2\obj\zfp_lib_Debug\libada_drivers_library.a(hal-spi.o)
 .text.hal__spi__spi_data_8bIP
                0x0000000000000000       0x14 C:\Users\xboxl\Documents\Github\Ada_Drivers_Library_j\boards\MicroBit_v2\obj\zfp_lib_Debug\libada_drivers_library.a(hal-spi.o)
 .text.hal__spi__spi_data_16bIP
                0x0000000000000000       0x14 C:\Users\xboxl\Documents\Github\Ada_Drivers_Library_j\boards\MicroBit_v2\obj\zfp_lib_Debug\libada_drivers_library.a(hal-spi.o)
 .data.hal__spi_E
                0x0000000000000000        0x2 C:\Users\xboxl\Documents\Github\Ada_Drivers_Library_j\boards\MicroBit_v2\obj\zfp_lib_Debug\libada_drivers_library.a(hal-spi.o)
 .rodata.hal__spi__spi_portP
                0x0000000000000000        0x4 C:\Users\xboxl\Documents\Github\Ada_Drivers_Library_j\boards\MicroBit_v2\obj\zfp_lib_Debug\libada_drivers_library.a(hal-spi.o)
 .text          0x0000000000000000        0x0 C:\Users\xboxl\Documents\Github\Ada_Drivers_Library_j\boards\MicroBit_v2\obj\zfp_lib_Debug\libada_drivers_library.a(hal-time.o)
 .data          0x0000000000000000        0x0 C:\Users\xboxl\Documents\Github\Ada_Drivers_Library_j\boards\MicroBit_v2\obj\zfp_lib_Debug\libada_drivers_library.a(hal-time.o)
 .bss           0x0000000000000000        0x0 C:\Users\xboxl\Documents\Github\Ada_Drivers_Library_j\boards\MicroBit_v2\obj\zfp_lib_Debug\libada_drivers_library.a(hal-time.o)
 .data.hal__time_E
                0x0000000000000000        0x2 C:\Users\xboxl\Documents\Github\Ada_Drivers_Library_j\boards\MicroBit_v2\obj\zfp_lib_Debug\libada_drivers_library.a(hal-time.o)
 .rodata.hal__time__delaysP
                0x0000000000000000        0x4 C:\Users\xboxl\Documents\Github\Ada_Drivers_Library_j\boards\MicroBit_v2\obj\zfp_lib_Debug\libada_drivers_library.a(hal-time.o)
 .text          0x0000000000000000        0x0 C:\Users\xboxl\Documents\Github\Ada_Drivers_Library_j\boards\MicroBit_v2\obj\zfp_lib_Debug\libada_drivers_library.a(hal-uart.o)
 .data          0x0000000000000000        0x0 C:\Users\xboxl\Documents\Github\Ada_Drivers_Library_j\boards\MicroBit_v2\obj\zfp_lib_Debug\libada_drivers_library.a(hal-uart.o)
 .bss           0x0000000000000000        0x0 C:\Users\xboxl\Documents\Github\Ada_Drivers_Library_j\boards\MicroBit_v2\obj\zfp_lib_Debug\libada_drivers_library.a(hal-uart.o)
 .text.hal__uart__uart_data_8bIP
                0x0000000000000000       0x14 C:\Users\xboxl\Documents\Github\Ada_Drivers_Library_j\boards\MicroBit_v2\obj\zfp_lib_Debug\libada_drivers_library.a(hal-uart.o)
 .text.hal__uart__uart_data_9bIP
                0x0000000000000000       0x14 C:\Users\xboxl\Documents\Github\Ada_Drivers_Library_j\boards\MicroBit_v2\obj\zfp_lib_Debug\libada_drivers_library.a(hal-uart.o)
 .data.hal__uart_E
                0x0000000000000000        0x2 C:\Users\xboxl\Documents\Github\Ada_Drivers_Library_j\boards\MicroBit_v2\obj\zfp_lib_Debug\libada_drivers_library.a(hal-uart.o)
 .rodata.hal__uart__uart_portP
                0x0000000000000000        0x4 C:\Users\xboxl\Documents\Github\Ada_Drivers_Library_j\boards\MicroBit_v2\obj\zfp_lib_Debug\libada_drivers_library.a(hal-uart.o)
 .text          0x0000000000000000        0x0 C:\gnat\2021-arm-elf\arm-eabi\lib\gnat\zfp-cortex-m4f\adalib\libgnat.a(a-elchha.o)
 .data          0x0000000000000000        0x0 C:\gnat\2021-arm-elf\arm-eabi\lib\gnat\zfp-cortex-m4f\adalib\libgnat.a(a-elchha.o)
 .bss           0x0000000000000000        0x0 C:\gnat\2021-arm-elf\arm-eabi\lib\gnat\zfp-cortex-m4f\adalib\libgnat.a(a-elchha.o)
 .data.ada__exceptions__last_chance_handler_E
                0x0000000000000000        0x2 C:\gnat\2021-arm-elf\arm-eabi\lib\gnat\zfp-cortex-m4f\adalib\libgnat.a(a-elchha.o)
 .text          0x0000000000000000        0x0 C:\gnat\2021-arm-elf\arm-eabi\lib\gnat\zfp-cortex-m4f\adalib\libgnat.a(g-io.o)
 .data          0x0000000000000000        0x0 C:\gnat\2021-arm-elf\arm-eabi\lib\gnat\zfp-cortex-m4f\adalib\libgnat.a(g-io.o)
 .bss           0x0000000000000000        0x0 C:\gnat\2021-arm-elf\arm-eabi\lib\gnat\zfp-cortex-m4f\adalib\libgnat.a(g-io.o)
 .data.gnat__io_E
                0x0000000000000000        0x2 C:\gnat\2021-arm-elf\arm-eabi\lib\gnat\zfp-cortex-m4f\adalib\libgnat.a(g-io.o)
 .text          0x0000000000000000        0x0 C:\gnat\2021-arm-elf\arm-eabi\lib\gnat\zfp-cortex-m4f\adalib\libgnat.a(s-assert.o)
 .data          0x0000000000000000        0x0 C:\gnat\2021-arm-elf\arm-eabi\lib\gnat\zfp-cortex-m4f\adalib\libgnat.a(s-assert.o)
 .bss           0x0000000000000000        0x0 C:\gnat\2021-arm-elf\arm-eabi\lib\gnat\zfp-cortex-m4f\adalib\libgnat.a(s-assert.o)
 .data.system__assertions_E
                0x0000000000000000        0x2 C:\gnat\2021-arm-elf\arm-eabi\lib\gnat\zfp-cortex-m4f\adalib\libgnat.a(s-assert.o)
 .rodata.system__assertions__assert_failure
                0x0000000000000000        0x4 C:\gnat\2021-arm-elf\arm-eabi\lib\gnat\zfp-cortex-m4f\adalib\libgnat.a(s-assert.o)
 .text          0x0000000000000000        0x0 C:\gnat\2021-arm-elf\arm-eabi\lib\gnat\zfp-cortex-m4f\adalib\libgnat.a(s-imglli.o)
 .data          0x0000000000000000        0x0 C:\gnat\2021-arm-elf\arm-eabi\lib\gnat\zfp-cortex-m4f\adalib\libgnat.a(s-imglli.o)
 .bss           0x0000000000000000        0x0 C:\gnat\2021-arm-elf\arm-eabi\lib\gnat\zfp-cortex-m4f\adalib\libgnat.a(s-imglli.o)
 .text.system__img_lli__impl__set_image_integer
                0x0000000000000000       0xdc C:\gnat\2021-arm-elf\arm-eabi\lib\gnat\zfp-cortex-m4f\adalib\libgnat.a(s-imglli.o)
 .text.system__img_lli__impl__image_integer
                0x0000000000000000       0x2c C:\gnat\2021-arm-elf\arm-eabi\lib\gnat\zfp-cortex-m4f\adalib\libgnat.a(s-imglli.o)
 .data.system__img_lli_E
                0x0000000000000000        0x2 C:\gnat\2021-arm-elf\arm-eabi\lib\gnat\zfp-cortex-m4f\adalib\libgnat.a(s-imglli.o)
 .comment       0x0000000000000000       0x3f C:\gnat\2021-arm-elf\arm-eabi\lib\gnat\zfp-cortex-m4f\adalib\libgnat.a(s-imglli.o)
 .ARM.attributes
                0x0000000000000000       0x32 C:\gnat\2021-arm-elf\arm-eabi\lib\gnat\zfp-cortex-m4f\adalib\libgnat.a(s-imglli.o)
 .text          0x0000000000000000        0x0 C:\gnat\2021-arm-elf\arm-eabi\lib\gnat\zfp-cortex-m4f\adalib\libgnat.a(s-imguns.o)
 .data          0x0000000000000000        0x0 C:\gnat\2021-arm-elf\arm-eabi\lib\gnat\zfp-cortex-m4f\adalib\libgnat.a(s-imguns.o)
 .bss           0x0000000000000000        0x0 C:\gnat\2021-arm-elf\arm-eabi\lib\gnat\zfp-cortex-m4f\adalib\libgnat.a(s-imguns.o)
 .text.system__img_uns__impl__set_image_unsigned
                0x0000000000000000       0x54 C:\gnat\2021-arm-elf\arm-eabi\lib\gnat\zfp-cortex-m4f\adalib\libgnat.a(s-imguns.o)
 .data.system__img_uns_E
                0x0000000000000000        0x2 C:\gnat\2021-arm-elf\arm-eabi\lib\gnat\zfp-cortex-m4f\adalib\libgnat.a(s-imguns.o)
 .text          0x0000000000000000        0x0 C:\gnat\2021-arm-elf\arm-eabi\lib\gnat\zfp-cortex-m4f\adalib\libgnat.a(s-macres.o)
 .data          0x0000000000000000        0x0 C:\gnat\2021-arm-elf\arm-eabi\lib\gnat\zfp-cortex-m4f\adalib\libgnat.a(s-macres.o)
 .bss           0x0000000000000000        0x0 C:\gnat\2021-arm-elf\arm-eabi\lib\gnat\zfp-cortex-m4f\adalib\libgnat.a(s-macres.o)
 .text.abort    0x0000000000000000        0x8 C:\gnat\2021-arm-elf\arm-eabi\lib\gnat\zfp-cortex-m4f\adalib\libgnat.a(s-macres.o)
 .data.system__machine_reset_E
                0x0000000000000000        0x2 C:\gnat\2021-arm-elf\arm-eabi\lib\gnat\zfp-cortex-m4f\adalib\libgnat.a(s-macres.o)
 .text          0x0000000000000000        0x0 C:\gnat\2021-arm-elf\arm-eabi\lib\gnat\zfp-cortex-m4f\adalib\libgnat.a(s-memcom.o)
 .data          0x0000000000000000        0x0 C:\gnat\2021-arm-elf\arm-eabi\lib\gnat\zfp-cortex-m4f\adalib\libgnat.a(s-memcom.o)
 .bss           0x0000000000000000        0x0 C:\gnat\2021-arm-elf\arm-eabi\lib\gnat\zfp-cortex-m4f\adalib\libgnat.a(s-memcom.o)
 .text.memcmp   0x0000000000000000       0x8c C:\gnat\2021-arm-elf\arm-eabi\lib\gnat\zfp-cortex-m4f\adalib\libgnat.a(s-memcom.o)
 .data.system__memory_compare_E
                0x0000000000000000        0x2 C:\gnat\2021-arm-elf\arm-eabi\lib\gnat\zfp-cortex-m4f\adalib\libgnat.a(s-memcom.o)
 .comment       0x0000000000000000       0x3f C:\gnat\2021-arm-elf\arm-eabi\lib\gnat\zfp-cortex-m4f\adalib\libgnat.a(s-memcom.o)
 .ARM.attributes
                0x0000000000000000       0x32 C:\gnat\2021-arm-elf\arm-eabi\lib\gnat\zfp-cortex-m4f\adalib\libgnat.a(s-memcom.o)
 .text          0x0000000000000000        0x0 C:\gnat\2021-arm-elf\arm-eabi\lib\gnat\zfp-cortex-m4f\adalib\libgnat.a(s-memcop.o)
 .data          0x0000000000000000        0x0 C:\gnat\2021-arm-elf\arm-eabi\lib\gnat\zfp-cortex-m4f\adalib\libgnat.a(s-memcop.o)
 .bss           0x0000000000000000        0x0 C:\gnat\2021-arm-elf\arm-eabi\lib\gnat\zfp-cortex-m4f\adalib\libgnat.a(s-memcop.o)
 .data.system__memory_copy_E
                0x0000000000000000        0x2 C:\gnat\2021-arm-elf\arm-eabi\lib\gnat\zfp-cortex-m4f\adalib\libgnat.a(s-memcop.o)
 .text          0x0000000000000000        0x0 C:\gnat\2021-arm-elf\arm-eabi\lib\gnat\zfp-cortex-m4f\adalib\libgnat.a(s-memmov.o)
 .data          0x0000000000000000        0x0 C:\gnat\2021-arm-elf\arm-eabi\lib\gnat\zfp-cortex-m4f\adalib\libgnat.a(s-memmov.o)
 .bss           0x0000000000000000        0x0 C:\gnat\2021-arm-elf\arm-eabi\lib\gnat\zfp-cortex-m4f\adalib\libgnat.a(s-memmov.o)
 .text.memmove  0x0000000000000000       0xb0 C:\gnat\2021-arm-elf\arm-eabi\lib\gnat\zfp-cortex-m4f\adalib\libgnat.a(s-memmov.o)
 .data.system__memory_move_E
                0x0000000000000000        0x2 C:\gnat\2021-arm-elf\arm-eabi\lib\gnat\zfp-cortex-m4f\adalib\libgnat.a(s-memmov.o)
 .comment       0x0000000000000000       0x3f C:\gnat\2021-arm-elf\arm-eabi\lib\gnat\zfp-cortex-m4f\adalib\libgnat.a(s-memmov.o)
 .ARM.attributes
                0x0000000000000000       0x32 C:\gnat\2021-arm-elf\arm-eabi\lib\gnat\zfp-cortex-m4f\adalib\libgnat.a(s-memmov.o)
 .text          0x0000000000000000        0x0 C:\gnat\2021-arm-elf\arm-eabi\lib\gnat\zfp-cortex-m4f\adalib\libgnat.a(s-memset.o)
 .data          0x0000000000000000        0x0 C:\gnat\2021-arm-elf\arm-eabi\lib\gnat\zfp-cortex-m4f\adalib\libgnat.a(s-memset.o)
 .bss           0x0000000000000000        0x0 C:\gnat\2021-arm-elf\arm-eabi\lib\gnat\zfp-cortex-m4f\adalib\libgnat.a(s-memset.o)
 .data.system__memory_set_E
                0x0000000000000000        0x2 C:\gnat\2021-arm-elf\arm-eabi\lib\gnat\zfp-cortex-m4f\adalib\libgnat.a(s-memset.o)
 .text          0x0000000000000000        0x0 C:\gnat\2021-arm-elf\arm-eabi\lib\gnat\zfp-cortex-m4f\adalib\libgnat.a(s-secsta.o)
 .data          0x0000000000000000        0x0 C:\gnat\2021-arm-elf\arm-eabi\lib\gnat\zfp-cortex-m4f\adalib\libgnat.a(s-secsta.o)
 .bss           0x0000000000000000        0x0 C:\gnat\2021-arm-elf\arm-eabi\lib\gnat\zfp-cortex-m4f\adalib\libgnat.a(s-secsta.o)
 .text.system__secondary_stack__memoryIP
                0x0000000000000000        0x4 C:\gnat\2021-arm-elf\arm-eabi\lib\gnat\zfp-cortex-m4f\adalib\libgnat.a(s-secsta.o)
 .text.system__secondary_stack__ss_allocate
                0x0000000000000000       0x60 C:\gnat\2021-arm-elf\arm-eabi\lib\gnat\zfp-cortex-m4f\adalib\libgnat.a(s-secsta.o)
 .text.system__secondary_stack__ss_get_max
                0x0000000000000000       0x10 C:\gnat\2021-arm-elf\arm-eabi\lib\gnat\zfp-cortex-m4f\adalib\libgnat.a(s-secsta.o)
 .text.system__secondary_stack__ss_init
                0x0000000000000000       0x6c C:\gnat\2021-arm-elf\arm-eabi\lib\gnat\zfp-cortex-m4f\adalib\libgnat.a(s-secsta.o)
 .text.system__secondary_stack__ss_mark
                0x0000000000000000        0xc C:\gnat\2021-arm-elf\arm-eabi\lib\gnat\zfp-cortex-m4f\adalib\libgnat.a(s-secsta.o)
 .text.system__secondary_stack__ss_release
                0x0000000000000000        0xc C:\gnat\2021-arm-elf\arm-eabi\lib\gnat\zfp-cortex-m4f\adalib\libgnat.a(s-secsta.o)
 .rodata        0x0000000000000000        0xd C:\gnat\2021-arm-elf\arm-eabi\lib\gnat\zfp-cortex-m4f\adalib\libgnat.a(s-secsta.o)
 .bss.system__secondary_stack__ss_pool
                0x0000000000000000        0x4 C:\gnat\2021-arm-elf\arm-eabi\lib\gnat\zfp-cortex-m4f\adalib\libgnat.a(s-secsta.o)
 .data.system__secondary_stack_E
                0x0000000000000000        0x2 C:\gnat\2021-arm-elf\arm-eabi\lib\gnat\zfp-cortex-m4f\adalib\libgnat.a(s-secsta.o)
 .data.system__secondary_stack__num_of_assigned_stacks
                0x0000000000000000        0x4 C:\gnat\2021-arm-elf\arm-eabi\lib\gnat\zfp-cortex-m4f\adalib\libgnat.a(s-secsta.o)
 .text          0x0000000000000000        0x0 C:\gnat\2021-arm-elf\arm-eabi\lib\gnat\zfp-cortex-m4f\adalib\libgnat.a(s-sssita.o)
 .data          0x0000000000000000        0x0 C:\gnat\2021-arm-elf\arm-eabi\lib\gnat\zfp-cortex-m4f\adalib\libgnat.a(s-sssita.o)
 .bss           0x0000000000000000        0x0 C:\gnat\2021-arm-elf\arm-eabi\lib\gnat\zfp-cortex-m4f\adalib\libgnat.a(s-sssita.o)
 .text.__gnat_get_secondary_stack
                0x0000000000000000       0x1c C:\gnat\2021-arm-elf\arm-eabi\lib\gnat\zfp-cortex-m4f\adalib\libgnat.a(s-sssita.o)
 .data.system__secondary_stack__single_task__secondary_stack
                0x0000000000000000        0x4 C:\gnat\2021-arm-elf\arm-eabi\lib\gnat\zfp-cortex-m4f\adalib\libgnat.a(s-sssita.o)
 .comment       0x0000000000000000       0x3f C:\gnat\2021-arm-elf\arm-eabi\lib\gnat\zfp-cortex-m4f\adalib\libgnat.a(s-sssita.o)
 .ARM.attributes
                0x0000000000000000       0x32 C:\gnat\2021-arm-elf\arm-eabi\lib\gnat\zfp-cortex-m4f\adalib\libgnat.a(s-sssita.o)
 .text          0x0000000000000000        0x0 C:\gnat\2021-arm-elf\arm-eabi\lib\gnat\zfp-cortex-m4f\adalib\libgnat.a(s-textio.o)
 .data          0x0000000000000000        0x0 C:\gnat\2021-arm-elf\arm-eabi\lib\gnat\zfp-cortex-m4f\adalib\libgnat.a(s-textio.o)
 .bss           0x0000000000000000        0x0 C:\gnat\2021-arm-elf\arm-eabi\lib\gnat\zfp-cortex-m4f\adalib\libgnat.a(s-textio.o)
 .text.system__text_io__is_rx_ready
                0x0000000000000000        0x4 C:\gnat\2021-arm-elf\arm-eabi\lib\gnat\zfp-cortex-m4f\adalib\libgnat.a(s-textio.o)
 .text.system__text_io__get
                0x0000000000000000        0x4 C:\gnat\2021-arm-elf\arm-eabi\lib\gnat\zfp-cortex-m4f\adalib\libgnat.a(s-textio.o)
 .data.system__text_io_E
                0x0000000000000000        0x2 C:\gnat\2021-arm-elf\arm-eabi\lib\gnat\zfp-cortex-m4f\adalib\libgnat.a(s-textio.o)
 .text          0x0000000000000000        0x0 C:\gnat\2021-arm-elf\arm-eabi\lib\gnat\zfp-cortex-m4f\adalib\libgnat.a(a-assert.o)
 .data          0x0000000000000000        0x0 C:\gnat\2021-arm-elf\arm-eabi\lib\gnat\zfp-cortex-m4f\adalib\libgnat.a(a-assert.o)
 .bss           0x0000000000000000        0x0 C:\gnat\2021-arm-elf\arm-eabi\lib\gnat\zfp-cortex-m4f\adalib\libgnat.a(a-assert.o)
 .rodata.ada__assertions__assert.str1.4
                0x0000000000000000       0x10 C:\gnat\2021-arm-elf\arm-eabi\lib\gnat\zfp-cortex-m4f\adalib\libgnat.a(a-assert.o)
 .text.ada__assertions__assert
                0x0000000000000000       0x18 C:\gnat\2021-arm-elf\arm-eabi\lib\gnat\zfp-cortex-m4f\adalib\libgnat.a(a-assert.o)
 .text.ada__assertions__assert__2
                0x0000000000000000       0x24 C:\gnat\2021-arm-elf\arm-eabi\lib\gnat\zfp-cortex-m4f\adalib\libgnat.a(a-assert.o)
 .rodata        0x0000000000000000        0x8 C:\gnat\2021-arm-elf\arm-eabi\lib\gnat\zfp-cortex-m4f\adalib\libgnat.a(a-assert.o)
 .data.ada__assertions_E
                0x0000000000000000        0x2 C:\gnat\2021-arm-elf\arm-eabi\lib\gnat\zfp-cortex-m4f\adalib\libgnat.a(a-assert.o)
 .data.ada__assertions__assertion_error
                0x0000000000000000       0x18 C:\gnat\2021-arm-elf\arm-eabi\lib\gnat\zfp-cortex-m4f\adalib\libgnat.a(a-assert.o)
 .rodata.ada__assertions__assertion_errorE
                0x0000000000000000        0x1 C:\gnat\2021-arm-elf\arm-eabi\lib\gnat\zfp-cortex-m4f\adalib\libgnat.a(a-assert.o)
 .comment       0x0000000000000000       0x3f C:\gnat\2021-arm-elf\arm-eabi\lib\gnat\zfp-cortex-m4f\adalib\libgnat.a(a-assert.o)
 .ARM.attributes
                0x0000000000000000       0x32 C:\gnat\2021-arm-elf\arm-eabi\lib\gnat\zfp-cortex-m4f\adalib\libgnat.a(a-assert.o)
 .text          0x0000000000000000        0x0 C:\gnat\2021-arm-elf\arm-eabi\lib\gnat\zfp-cortex-m4f\adalib\libgnat.a(a-except.o)
 .data          0x0000000000000000        0x0 C:\gnat\2021-arm-elf\arm-eabi\lib\gnat\zfp-cortex-m4f\adalib\libgnat.a(a-except.o)
 .bss           0x0000000000000000        0x0 C:\gnat\2021-arm-elf\arm-eabi\lib\gnat\zfp-cortex-m4f\adalib\libgnat.a(a-except.o)
 .data.ada__exceptions_E
                0x0000000000000000        0x2 C:\gnat\2021-arm-elf\arm-eabi\lib\gnat\zfp-cortex-m4f\adalib\libgnat.a(a-except.o)
 .rodata.ada__exceptions__null_id
                0x0000000000000000        0x4 C:\gnat\2021-arm-elf\arm-eabi\lib\gnat\zfp-cortex-m4f\adalib\libgnat.a(a-except.o)
 .rodata.ada__exceptions__empty_c_string
                0x0000000000000000        0x4 C:\gnat\2021-arm-elf\arm-eabi\lib\gnat\zfp-cortex-m4f\adalib\libgnat.a(a-except.o)
 .text          0x0000000000000000        0x0 C:\gnat\2021-arm-elf\arm-eabi\lib\gnat\zfp-cortex-m4f\adalib\libgnat.a(s-semiho.o)
 .data          0x0000000000000000        0x0 C:\gnat\2021-arm-elf\arm-eabi\lib\gnat\zfp-cortex-m4f\adalib\libgnat.a(s-semiho.o)
 .bss           0x0000000000000000        0x0 C:\gnat\2021-arm-elf\arm-eabi\lib\gnat\zfp-cortex-m4f\adalib\libgnat.a(s-semiho.o)
 .text.system__semihosting__TbufferBIP
                0x0000000000000000        0x4 C:\gnat\2021-arm-elf\arm-eabi\lib\gnat\zfp-cortex-m4f\adalib\libgnat.a(s-semiho.o)
 .text.system__semihosting__put__2
                0x0000000000000000       0xb4 C:\gnat\2021-arm-elf\arm-eabi\lib\gnat\zfp-cortex-m4f\adalib\libgnat.a(s-semiho.o)
 .text.system__semihosting__get
                0x0000000000000000       0x10 C:\gnat\2021-arm-elf\arm-eabi\lib\gnat\zfp-cortex-m4f\adalib\libgnat.a(s-semiho.o)
 .data.system__semihosting_E
                0x0000000000000000        0x2 C:\gnat\2021-arm-elf\arm-eabi\lib\gnat\zfp-cortex-m4f\adalib\libgnat.a(s-semiho.o)
 .text          0x0000000000000000       0xa0 c:/gnat/2021-arm-elf/bin/../lib/gcc/arm-eabi/10.3.1/thumb/v7e-m/fpv4-sp/hard\libgcc.a(_aeabi_ldivmod.o)
 .data          0x0000000000000000        0x0 c:/gnat/2021-arm-elf/bin/../lib/gcc/arm-eabi/10.3.1/thumb/v7e-m/fpv4-sp/hard\libgcc.a(_aeabi_ldivmod.o)
 .bss           0x0000000000000000        0x0 c:/gnat/2021-arm-elf/bin/../lib/gcc/arm-eabi/10.3.1/thumb/v7e-m/fpv4-sp/hard\libgcc.a(_aeabi_ldivmod.o)
 .debug_line    0x0000000000000000       0x85 c:/gnat/2021-arm-elf/bin/../lib/gcc/arm-eabi/10.3.1/thumb/v7e-m/fpv4-sp/hard\libgcc.a(_aeabi_ldivmod.o)
 .debug_info    0x0000000000000000       0x26 c:/gnat/2021-arm-elf/bin/../lib/gcc/arm-eabi/10.3.1/thumb/v7e-m/fpv4-sp/hard\libgcc.a(_aeabi_ldivmod.o)
 .debug_abbrev  0x0000000000000000       0x14 c:/gnat/2021-arm-elf/bin/../lib/gcc/arm-eabi/10.3.1/thumb/v7e-m/fpv4-sp/hard\libgcc.a(_aeabi_ldivmod.o)
 .debug_aranges
                0x0000000000000000       0x20 c:/gnat/2021-arm-elf/bin/../lib/gcc/arm-eabi/10.3.1/thumb/v7e-m/fpv4-sp/hard\libgcc.a(_aeabi_ldivmod.o)
 .debug_str     0x0000000000000000       0x96 c:/gnat/2021-arm-elf/bin/../lib/gcc/arm-eabi/10.3.1/thumb/v7e-m/fpv4-sp/hard\libgcc.a(_aeabi_ldivmod.o)
 .debug_frame   0x0000000000000000       0x44 c:/gnat/2021-arm-elf/bin/../lib/gcc/arm-eabi/10.3.1/thumb/v7e-m/fpv4-sp/hard\libgcc.a(_aeabi_ldivmod.o)
 .ARM.attributes
                0x0000000000000000       0x1e c:/gnat/2021-arm-elf/bin/../lib/gcc/arm-eabi/10.3.1/thumb/v7e-m/fpv4-sp/hard\libgcc.a(_aeabi_ldivmod.o)
 .text          0x0000000000000000      0x2d8 c:/gnat/2021-arm-elf/bin/../lib/gcc/arm-eabi/10.3.1/thumb/v7e-m/fpv4-sp/hard\libgcc.a(_udivmoddi4.o)
 .data          0x0000000000000000        0x0 c:/gnat/2021-arm-elf/bin/../lib/gcc/arm-eabi/10.3.1/thumb/v7e-m/fpv4-sp/hard\libgcc.a(_udivmoddi4.o)
 .bss           0x0000000000000000        0x0 c:/gnat/2021-arm-elf/bin/../lib/gcc/arm-eabi/10.3.1/thumb/v7e-m/fpv4-sp/hard\libgcc.a(_udivmoddi4.o)
 .ARM.extab     0x0000000000000000        0x0 c:/gnat/2021-arm-elf/bin/../lib/gcc/arm-eabi/10.3.1/thumb/v7e-m/fpv4-sp/hard\libgcc.a(_udivmoddi4.o)
 .ARM.exidx     0x0000000000000000        0x8 c:/gnat/2021-arm-elf/bin/../lib/gcc/arm-eabi/10.3.1/thumb/v7e-m/fpv4-sp/hard\libgcc.a(_udivmoddi4.o)
 .debug_info    0x0000000000000000      0x717 c:/gnat/2021-arm-elf/bin/../lib/gcc/arm-eabi/10.3.1/thumb/v7e-m/fpv4-sp/hard\libgcc.a(_udivmoddi4.o)
 .debug_abbrev  0x0000000000000000      0x163 c:/gnat/2021-arm-elf/bin/../lib/gcc/arm-eabi/10.3.1/thumb/v7e-m/fpv4-sp/hard\libgcc.a(_udivmoddi4.o)
 .debug_loc     0x0000000000000000      0xfd4 c:/gnat/2021-arm-elf/bin/../lib/gcc/arm-eabi/10.3.1/thumb/v7e-m/fpv4-sp/hard\libgcc.a(_udivmoddi4.o)
 .debug_aranges
                0x0000000000000000       0x20 c:/gnat/2021-arm-elf/bin/../lib/gcc/arm-eabi/10.3.1/thumb/v7e-m/fpv4-sp/hard\libgcc.a(_udivmoddi4.o)
 .debug_ranges  0x0000000000000000       0xf0 c:/gnat/2021-arm-elf/bin/../lib/gcc/arm-eabi/10.3.1/thumb/v7e-m/fpv4-sp/hard\libgcc.a(_udivmoddi4.o)
 .debug_line    0x0000000000000000      0x5bf c:/gnat/2021-arm-elf/bin/../lib/gcc/arm-eabi/10.3.1/thumb/v7e-m/fpv4-sp/hard\libgcc.a(_udivmoddi4.o)
 .debug_str     0x0000000000000000      0x64d c:/gnat/2021-arm-elf/bin/../lib/gcc/arm-eabi/10.3.1/thumb/v7e-m/fpv4-sp/hard\libgcc.a(_udivmoddi4.o)
 .comment       0x0000000000000000       0x3f c:/gnat/2021-arm-elf/bin/../lib/gcc/arm-eabi/10.3.1/thumb/v7e-m/fpv4-sp/hard\libgcc.a(_udivmoddi4.o)
 .debug_frame   0x0000000000000000       0x34 c:/gnat/2021-arm-elf/bin/../lib/gcc/arm-eabi/10.3.1/thumb/v7e-m/fpv4-sp/hard\libgcc.a(_udivmoddi4.o)
 .ARM.attributes
                0x0000000000000000       0x34 c:/gnat/2021-arm-elf/bin/../lib/gcc/arm-eabi/10.3.1/thumb/v7e-m/fpv4-sp/hard\libgcc.a(_udivmoddi4.o)
 .text          0x0000000000000000        0x4 c:/gnat/2021-arm-elf/bin/../lib/gcc/arm-eabi/10.3.1/thumb/v7e-m/fpv4-sp/hard\libgcc.a(_dvmd_tls.o)
 .data          0x0000000000000000        0x0 c:/gnat/2021-arm-elf/bin/../lib/gcc/arm-eabi/10.3.1/thumb/v7e-m/fpv4-sp/hard\libgcc.a(_dvmd_tls.o)
 .bss           0x0000000000000000        0x0 c:/gnat/2021-arm-elf/bin/../lib/gcc/arm-eabi/10.3.1/thumb/v7e-m/fpv4-sp/hard\libgcc.a(_dvmd_tls.o)
 .debug_line    0x0000000000000000       0x67 c:/gnat/2021-arm-elf/bin/../lib/gcc/arm-eabi/10.3.1/thumb/v7e-m/fpv4-sp/hard\libgcc.a(_dvmd_tls.o)
 .debug_info    0x0000000000000000       0x26 c:/gnat/2021-arm-elf/bin/../lib/gcc/arm-eabi/10.3.1/thumb/v7e-m/fpv4-sp/hard\libgcc.a(_dvmd_tls.o)
 .debug_abbrev  0x0000000000000000       0x14 c:/gnat/2021-arm-elf/bin/../lib/gcc/arm-eabi/10.3.1/thumb/v7e-m/fpv4-sp/hard\libgcc.a(_dvmd_tls.o)
 .debug_aranges
                0x0000000000000000       0x20 c:/gnat/2021-arm-elf/bin/../lib/gcc/arm-eabi/10.3.1/thumb/v7e-m/fpv4-sp/hard\libgcc.a(_dvmd_tls.o)
 .debug_str     0x0000000000000000       0x9a c:/gnat/2021-arm-elf/bin/../lib/gcc/arm-eabi/10.3.1/thumb/v7e-m/fpv4-sp/hard\libgcc.a(_dvmd_tls.o)
 .ARM.attributes
                0x0000000000000000       0x1e c:/gnat/2021-arm-elf/bin/../lib/gcc/arm-eabi/10.3.1/thumb/v7e-m/fpv4-sp/hard\libgcc.a(_dvmd_tls.o)

Memory Configuration

Name             Origin             Length             Attributes
flash            0x0000000000000000 0x0000000000080000 xr
ram              0x0000000020000000 0x0000000000020000 xrw
*default*        0x0000000000000000 0xffffffffffffffff

Linker script and memory map

LOAD main.o
LOAD b__main.o
LOAD C:\Users\xboxl\Documents\Github\Ada_Drivers_Library_j\boards\MicroBit_v2\obj\zfp_lib_Debug\libada_drivers_library.a
LOAD C:\gnat\2021-arm-elf\arm-eabi\lib\gnat\zfp-cortex-m4f\adalib\libgnat.a
START GROUP
LOAD c:/gnat/2021-arm-elf/bin/../lib/gcc/arm-eabi/10.3.1/thumb/v7e-m/fpv4-sp/hard\libgcc.a
END GROUP
                0x0000000000000000                __DYNAMIC = 0x0
                0x0000000000001000                _DEFAULT_STACK_SIZE = 0x1000

.text           0x0000000000000000     0x5f84
 *(.vectors)
 .vectors       0x0000000000000000      0x240 C:\Users\xboxl\Documents\Github\Ada_Drivers_Library_j\boards\MicroBit_v2\obj\zfp_lib_Debug\libada_drivers_library.a(crt0.o)
                0x0000000000000000                __vectors
 *(.text .text.* .gnu.linkonce.t*)
 .text          0x0000000000000240      0x148 main.o
                0x0000000000000240                _ada_main
 .text          0x0000000000000388      0x224 b__main.o
                0x0000000000000388                ada_main__Tsec_default_sized_stacksBIP
                0x00000000000003cc                adainit
                0x000000000000057c                main
                0x0000000000000598                ada_main___elabb
 .text.cortex_m__nvic__set_priority
                0x00000000000005ac       0x50 C:\Users\xboxl\Documents\Github\Ada_Drivers_Library_j\boards\MicroBit_v2\obj\zfp_lib_Debug\libada_drivers_library.a(cortex_m-nvic.o)
                0x00000000000005ac                cortex_m__nvic__set_priority
 .text.cortex_m__nvic__enable_interrupt
                0x00000000000005fc       0x68 C:\Users\xboxl\Documents\Github\Ada_Drivers_Library_j\boards\MicroBit_v2\obj\zfp_lib_Debug\libada_drivers_library.a(cortex_m-nvic.o)
                0x00000000000005fc                cortex_m__nvic__enable_interrupt
 .text.cortex_m__nvic__disable_interrupt
                0x0000000000000664       0x68 C:\Users\xboxl\Documents\Github\Ada_Drivers_Library_j\boards\MicroBit_v2\obj\zfp_lib_Debug\libada_drivers_library.a(cortex_m-nvic.o)
                0x0000000000000664                cortex_m__nvic__disable_interrupt
 .text.cortex_m__nvic__clear_pending
                0x00000000000006cc       0x68 C:\Users\xboxl\Documents\Github\Ada_Drivers_Library_j\boards\MicroBit_v2\obj\zfp_lib_Debug\libada_drivers_library.a(cortex_m-nvic.o)
                0x00000000000006cc                cortex_m__nvic__clear_pending
 *fill*         0x0000000000000734       0xcc 
 .text          0x0000000000000800       0xa4 C:\Users\xboxl\Documents\Github\Ada_Drivers_Library_j\boards\MicroBit_v2\obj\zfp_lib_Debug\libada_drivers_library.a(crt0.o)
                0x0000000000000800                NMI_Handler
                0x0000000000000802                HardFault_Handler
                0x0000000000000804                MemoryManagement_Handler
                0x0000000000000806                BusFault_Handler
                0x0000000000000808                UsageFault_Handler
                0x000000000000080a                Reserved_Handler
                0x000000000000080c                SVC_Handler
                0x000000000000080e                DebugMon_Handler
                0x0000000000000810                PendSV_Handler
                0x0000000000000812                SysTick_Handler
                0x0000000000000814                __common_int_handler
                0x0000000000000814                __unknown_interrupt_handler
                0x0000000000000816                Reset_Handler
 .text.microbit__buttons__initialize
                0x00000000000008a4       0x70 C:\Users\xboxl\Documents\Github\Ada_Drivers_Library_j\boards\MicroBit_v2\obj\zfp_lib_Debug\libada_drivers_library.a(microbit-buttons.o)
 .text.microbit__buttons__tick_handler
                0x0000000000000914       0xd4 C:\Users\xboxl\Documents\Github\Ada_Drivers_Library_j\boards\MicroBit_v2\obj\zfp_lib_Debug\libada_drivers_library.a(microbit-buttons.o)
 .text.microbit__buttons__state
                0x00000000000009e8       0x24 C:\Users\xboxl\Documents\Github\Ada_Drivers_Library_j\boards\MicroBit_v2\obj\zfp_lib_Debug\libada_drivers_library.a(microbit-buttons.o)
                0x00000000000009e8                microbit__buttons__state
 .text.microbit__buttons___elabb
                0x0000000000000a0c       0x58 C:\Users\xboxl\Documents\Github\Ada_Drivers_Library_j\boards\MicroBit_v2\obj\zfp_lib_Debug\libada_drivers_library.a(microbit-buttons.o)
                0x0000000000000a0c                microbit__buttons___elabb
 .text.microbit__console__put_line
                0x0000000000000a64      0x154 C:\Users\xboxl\Documents\Github\Ada_Drivers_Library_j\boards\MicroBit_v2\obj\zfp_lib_Debug\libada_drivers_library.a(microbit-console.o)
                0x0000000000000a64                microbit__console__put_line
 .text.microbit__console___elabb
                0x0000000000000bb8       0x30 C:\Users\xboxl\Documents\Github\Ada_Drivers_Library_j\boards\MicroBit_v2\obj\zfp_lib_Debug\libada_drivers_library.a(microbit-console.o)
                0x0000000000000bb8                microbit__console___elabb
 .text.microbit__display__print_c
                0x0000000000000be8       0xe8 C:\Users\xboxl\Documents\Github\Ada_Drivers_Library_j\boards\MicroBit_v2\obj\zfp_lib_Debug\libada_drivers_library.a(microbit-display.o)
 .text.microbit__display__initialize
                0x0000000000000cd0       0xb4 C:\Users\xboxl\Documents\Github\Ada_Drivers_Library_j\boards\MicroBit_v2\obj\zfp_lib_Debug\libada_drivers_library.a(microbit-display.o)
 .text.microbit__display__tick_handler
                0x0000000000000d84      0x1cc C:\Users\xboxl\Documents\Github\Ada_Drivers_Library_j\boards\MicroBit_v2\obj\zfp_lib_Debug\libada_drivers_library.a(microbit-display.o)
 .text.microbit__display__update_animation
                0x0000000000000f50      0x110 C:\Users\xboxl\Documents\Github\Ada_Drivers_Library_j\boards\MicroBit_v2\obj\zfp_lib_Debug\libada_drivers_library.a(microbit-display.o)
 .text.microbit__display__shift_left
                0x0000000000001060       0x80 C:\Users\xboxl\Documents\Github\Ada_Drivers_Library_j\boards\MicroBit_v2\obj\zfp_lib_Debug\libada_drivers_library.a(microbit-display.o)
                0x0000000000001060                microbit__display__shift_left
 .text.microbit__display___elabb
                0x00000000000010e0      0x104 C:\Users\xboxl\Documents\Github\Ada_Drivers_Library_j\boards\MicroBit_v2\obj\zfp_lib_Debug\libada_drivers_library.a(microbit-display.o)
                0x00000000000010e0                microbit__display___elabb
 .text.microbit__radio__transmit
                0x00000000000011e4       0x80 C:\Users\xboxl\Documents\Github\Ada_Drivers_Library_j\boards\MicroBit_v2\obj\zfp_lib_Debug\libada_drivers_library.a(microbit-radio.o)
                0x00000000000011e4                microbit__radio__transmit
 .text.microbit__radio__enable
                0x0000000000001264       0x4c C:\Users\xboxl\Documents\Github\Ada_Drivers_Library_j\boards\MicroBit_v2\obj\zfp_lib_Debug\libada_drivers_library.a(microbit-radio.o)
 .text.microbit__radio__setup
                0x00000000000012b0       0x5c C:\Users\xboxl\Documents\Github\Ada_Drivers_Library_j\boards\MicroBit_v2\obj\zfp_lib_Debug\libada_drivers_library.a(microbit-radio.o)
                0x00000000000012b0                microbit__radio__setup
 .text.microbit__radio__transmitandwait
                0x000000000000130c       0x2c C:\Users\xboxl\Documents\Github\Ada_Drivers_Library_j\boards\MicroBit_v2\obj\zfp_lib_Debug\libada_drivers_library.a(microbit-radio.o)
                0x000000000000130c                microbit__radio__transmitandwait
 .text.microbit__radio__startreceiving
                0x0000000000001338       0x38 C:\Users\xboxl\Documents\Github\Ada_Drivers_Library_j\boards\MicroBit_v2\obj\zfp_lib_Debug\libada_drivers_library.a(microbit-radio.o)
                0x0000000000001338                microbit__radio__startreceiving
 .text.microbit__radio__stopreceiving
                0x0000000000001370       0x30 C:\Users\xboxl\Documents\Github\Ada_Drivers_Library_j\boards\MicroBit_v2\obj\zfp_lib_Debug\libada_drivers_library.a(microbit-radio.o)
                0x0000000000001370                microbit__radio__stopreceiving
 .text.microbit__radio__headerok
                0x00000000000013a0       0x4c C:\Users\xboxl\Documents\Github\Ada_Drivers_Library_j\boards\MicroBit_v2\obj\zfp_lib_Debug\libada_drivers_library.a(microbit-radio.o)
                0x00000000000013a0                microbit__radio__headerok
 .text.microbit__radio__radio_irqhandler
                0x00000000000013ec       0xb4 C:\Users\xboxl\Documents\Github\Ada_Drivers_Library_j\boards\MicroBit_v2\obj\zfp_lib_Debug\libada_drivers_library.a(microbit-radio.o)
                0x00000000000013ec                microbit__radio__radio_irqhandler
 .text.microbit__time__mb_delaysIP
                0x00000000000014a0       0x28 C:\Users\xboxl\Documents\Github\Ada_Drivers_Library_j\boards\MicroBit_v2\obj\zfp_lib_Debug\libada_drivers_library.a(microbit-time.o)
                0x00000000000014a0                microbit__time__mb_delaysIP
 .text.microbit__time___size__2
                0x00000000000014c8       0x20 C:\Users\xboxl\Documents\Github\Ada_Drivers_Library_j\boards\MicroBit_v2\obj\zfp_lib_Debug\libada_drivers_library.a(microbit-time.o)
                0x00000000000014c8                microbit__time___size__2
 .text.microbit__time__Oeq
                0x00000000000014e8       0x18 C:\Users\xboxl\Documents\Github\Ada_Drivers_Library_j\boards\MicroBit_v2\obj\zfp_lib_Debug\libada_drivers_library.a(microbit-time.o)
                0x00000000000014e8                microbit__time__Oeq
 .text.microbit__time___assign
                0x0000000000001500       0x24 C:\Users\xboxl\Documents\Github\Ada_Drivers_Library_j\boards\MicroBit_v2\obj\zfp_lib_Debug\libada_drivers_library.a(microbit-time.o)
                0x0000000000001500                microbit__time___assign
 .text.microbit__time__initialize
                0x0000000000001524       0x7c C:\Users\xboxl\Documents\Github\Ada_Drivers_Library_j\boards\MicroBit_v2\obj\zfp_lib_Debug\libada_drivers_library.a(microbit-time.o)
 .text.microbit__time__update_clock
                0x00000000000015a0       0x24 C:\Users\xboxl\Documents\Github\Ada_Drivers_Library_j\boards\MicroBit_v2\obj\zfp_lib_Debug\libada_drivers_library.a(microbit-time.o)
 .text.microbit__time__rtc1_irqhandler
                0x00000000000015c4       0x80 C:\Users\xboxl\Documents\Github\Ada_Drivers_Library_j\boards\MicroBit_v2\obj\zfp_lib_Debug\libada_drivers_library.a(microbit-time.o)
 .text.microbit__time__clock
                0x0000000000001644       0x1c C:\Users\xboxl\Documents\Github\Ada_Drivers_Library_j\boards\MicroBit_v2\obj\zfp_lib_Debug\libada_drivers_library.a(microbit-time.o)
                0x0000000000001644                microbit__time__clock
 .text.microbit__time__delay_ms
                0x0000000000001660       0x38 C:\Users\xboxl\Documents\Github\Ada_Drivers_Library_j\boards\MicroBit_v2\obj\zfp_lib_Debug\libada_drivers_library.a(microbit-time.o)
                0x0000000000001660                microbit__time__delay_ms
 .text.microbit__time__tick_subscriber
                0x0000000000001698       0x44 C:\Users\xboxl\Documents\Github\Ada_Drivers_Library_j\boards\MicroBit_v2\obj\zfp_lib_Debug\libada_drivers_library.a(microbit-time.o)
                0x0000000000001698                microbit__time__tick_subscriber
 .text.microbit__time__tick_subscribe___postconditions.0
                0x00000000000016dc       0x48 C:\Users\xboxl\Documents\Github\Ada_Drivers_Library_j\boards\MicroBit_v2\obj\zfp_lib_Debug\libada_drivers_library.a(microbit-time.o)
 .text.microbit__time__tick_subscribe
                0x0000000000001724       0x8c C:\Users\xboxl\Documents\Github\Ada_Drivers_Library_j\boards\MicroBit_v2\obj\zfp_lib_Debug\libada_drivers_library.a(microbit-time.o)
                0x0000000000001724                microbit__time__tick_subscribe
 .text.microbit__time__delay_microseconds__2
                0x00000000000017b0       0x44 C:\Users\xboxl\Documents\Github\Ada_Drivers_Library_j\boards\MicroBit_v2\obj\zfp_lib_Debug\libada_drivers_library.a(microbit-time.o)
                0x00000000000017b0                microbit__time__delay_microseconds__2
 .text.microbit__time__delay_milliseconds__2
                0x00000000000017f4       0x34 C:\Users\xboxl\Documents\Github\Ada_Drivers_Library_j\boards\MicroBit_v2\obj\zfp_lib_Debug\libada_drivers_library.a(microbit-time.o)
                0x00000000000017f4                microbit__time__delay_milliseconds__2
 .text.microbit__time__delay_seconds__2
                0x0000000000001828       0x58 C:\Users\xboxl\Documents\Github\Ada_Drivers_Library_j\boards\MicroBit_v2\obj\zfp_lib_Debug\libada_drivers_library.a(microbit-time.o)
                0x0000000000001828                microbit__time__delay_seconds__2
 .text.microbit__time___elabb
                0x0000000000001880       0x18 C:\Users\xboxl\Documents\Github\Ada_Drivers_Library_j\boards\MicroBit_v2\obj\zfp_lib_Debug\libada_drivers_library.a(microbit-time.o)
                0x0000000000001880                microbit__time___elabb
 .text.nrf__clock__set_high_freq_source
                0x0000000000001898       0x4c C:\Users\xboxl\Documents\Github\Ada_Drivers_Library_j\boards\MicroBit_v2\obj\zfp_lib_Debug\libada_drivers_library.a(nrf-clock.o)
                0x0000000000001898                nrf__clock__set_high_freq_source
 .text.nrf__clock__high_freq_running
                0x00000000000018e4       0x30 C:\Users\xboxl\Documents\Github\Ada_Drivers_Library_j\boards\MicroBit_v2\obj\zfp_lib_Debug\libada_drivers_library.a(nrf-clock.o)
                0x00000000000018e4                nrf__clock__high_freq_running
 .text.nrf__clock__start_high_freq
                0x0000000000001914       0x10 C:\Users\xboxl\Documents\Github\Ada_Drivers_Library_j\boards\MicroBit_v2\obj\zfp_lib_Debug\libada_drivers_library.a(nrf-clock.o)
                0x0000000000001914                nrf__clock__start_high_freq
 .text.nrf__clock__set_low_freq_source
                0x0000000000001924       0x5c C:\Users\xboxl\Documents\Github\Ada_Drivers_Library_j\boards\MicroBit_v2\obj\zfp_lib_Debug\libada_drivers_library.a(nrf-clock.o)
                0x0000000000001924                nrf__clock__set_low_freq_source
 .text.nrf__clock__low_freq_running
                0x0000000000001980       0x30 C:\Users\xboxl\Documents\Github\Ada_Drivers_Library_j\boards\MicroBit_v2\obj\zfp_lib_Debug\libada_drivers_library.a(nrf-clock.o)
                0x0000000000001980                nrf__clock__low_freq_running
 .text.nrf__clock__start_low_freq
                0x00000000000019b0       0x10 C:\Users\xboxl\Documents\Github\Ada_Drivers_Library_j\boards\MicroBit_v2\obj\zfp_lib_Debug\libada_drivers_library.a(nrf-clock.o)
                0x00000000000019b0                nrf__clock__start_low_freq
 .text.nrf__device__errata_12
                0x00000000000019c0       0x58 C:\Users\xboxl\Documents\Github\Ada_Drivers_Library_j\boards\MicroBit_v2\obj\zfp_lib_Debug\libada_drivers_library.a(nrf-device.o)
 .text.nrf__device__errata_16
                0x0000000000001a18       0x44 C:\Users\xboxl\Documents\Github\Ada_Drivers_Library_j\boards\MicroBit_v2\obj\zfp_lib_Debug\libada_drivers_library.a(nrf-device.o)
 .text.nrf__device__errata_31
                0x0000000000001a5c       0x10 C:\Users\xboxl\Documents\Github\Ada_Drivers_Library_j\boards\MicroBit_v2\obj\zfp_lib_Debug\libada_drivers_library.a(nrf-device.o)
 .text.nrf__device__errata_32
                0x0000000000001a6c       0x10 C:\Users\xboxl\Documents\Github\Ada_Drivers_Library_j\boards\MicroBit_v2\obj\zfp_lib_Debug\libada_drivers_library.a(nrf-device.o)
 .text.nrf__device__errata_36
                0x0000000000001a7c       0x10 C:\Users\xboxl\Documents\Github\Ada_Drivers_Library_j\boards\MicroBit_v2\obj\zfp_lib_Debug\libada_drivers_library.a(nrf-device.o)
 .text.nrf__device__errata_37
                0x0000000000001a8c       0x10 C:\Users\xboxl\Documents\Github\Ada_Drivers_Library_j\boards\MicroBit_v2\obj\zfp_lib_Debug\libada_drivers_library.a(nrf-device.o)
 .text.nrf__device__errata_57
                0x0000000000001a9c       0x10 C:\Users\xboxl\Documents\Github\Ada_Drivers_Library_j\boards\MicroBit_v2\obj\zfp_lib_Debug\libada_drivers_library.a(nrf-device.o)
 .text.nrf__device__errata_66
                0x0000000000001aac       0x44 C:\Users\xboxl\Documents\Github\Ada_Drivers_Library_j\boards\MicroBit_v2\obj\zfp_lib_Debug\libada_drivers_library.a(nrf-device.o)
 .text.nrf__device__errata_108
                0x0000000000001af0       0x10 C:\Users\xboxl\Documents\Github\Ada_Drivers_Library_j\boards\MicroBit_v2\obj\zfp_lib_Debug\libada_drivers_library.a(nrf-device.o)
 .text.nrf__device__errata_136
                0x0000000000001b00       0x10 C:\Users\xboxl\Documents\Github\Ada_Drivers_Library_j\boards\MicroBit_v2\obj\zfp_lib_Debug\libada_drivers_library.a(nrf-device.o)
 .text.nrf__device__errata_182
                0x0000000000001b10       0x40 C:\Users\xboxl\Documents\Github\Ada_Drivers_Library_j\boards\MicroBit_v2\obj\zfp_lib_Debug\libada_drivers_library.a(nrf-device.o)
 .text.nrf__device___elabb
                0x0000000000001b50      0x408 C:\Users\xboxl\Documents\Github\Ada_Drivers_Library_j\boards\MicroBit_v2\obj\zfp_lib_Debug\libada_drivers_library.a(nrf-device.o)
                0x0000000000001b50                nrf__device___elabb
 .text.nrf__device___elabs
                0x0000000000001f58      0x40c C:\Users\xboxl\Documents\Github\Ada_Drivers_Library_j\boards\MicroBit_v2\obj\zfp_lib_Debug\libada_drivers_library.a(nrf-device.o)
                0x0000000000001f58                nrf__device___elabs
 .text.nrf__events__triggered
                0x0000000000002364       0x3c C:\Users\xboxl\Documents\Github\Ada_Drivers_Library_j\boards\MicroBit_v2\obj\zfp_lib_Debug\libada_drivers_library.a(nrf-events.o)
                0x0000000000002364                nrf__events__triggered
 .text.nrf__events__enable_interrupt
                0x00000000000023a0       0x70 C:\Users\xboxl\Documents\Github\Ada_Drivers_Library_j\boards\MicroBit_v2\obj\zfp_lib_Debug\libada_drivers_library.a(nrf-events.o)
                0x00000000000023a0                nrf__events__enable_interrupt
 .text.nrf__events__clear
                0x0000000000002410       0x30 C:\Users\xboxl\Documents\Github\Ada_Drivers_Library_j\boards\MicroBit_v2\obj\zfp_lib_Debug\libada_drivers_library.a(nrf-events.o)
                0x0000000000002410                nrf__events__clear
 .text.nrf__gpio__gpio_configurationIP
                0x0000000000002440       0x24 C:\Users\xboxl\Documents\Github\Ada_Drivers_Library_j\boards\MicroBit_v2\obj\zfp_lib_Debug\libada_drivers_library.a(nrf-gpio.o)
                0x0000000000002440                nrf__gpio__gpio_configurationIP
 .text.nrf__gpio___size
                0x0000000000002464       0x20 C:\Users\xboxl\Documents\Github\Ada_Drivers_Library_j\boards\MicroBit_v2\obj\zfp_lib_Debug\libada_drivers_library.a(nrf-gpio.o)
                0x0000000000002464                nrf__gpio___size
 .text.nrf__gpio__Oeq
                0x0000000000002484       0x28 C:\Users\xboxl\Documents\Github\Ada_Drivers_Library_j\boards\MicroBit_v2\obj\zfp_lib_Debug\libada_drivers_library.a(nrf-gpio.o)
                0x0000000000002484                nrf__gpio__Oeq
 .text.nrf__gpio___assign
                0x00000000000024ac       0x28 C:\Users\xboxl\Documents\Github\Ada_Drivers_Library_j\boards\MicroBit_v2\obj\zfp_lib_Debug\libada_drivers_library.a(nrf-gpio.o)
                0x00000000000024ac                nrf__gpio___assign
 .text.nrf__gpio__support
                0x00000000000024d4       0x2c C:\Users\xboxl\Documents\Github\Ada_Drivers_Library_j\boards\MicroBit_v2\obj\zfp_lib_Debug\libada_drivers_library.a(nrf-gpio.o)
                0x00000000000024d4                nrf__gpio__support
 .text.nrf__gpio__mode
                0x0000000000002500       0xd8 C:\Users\xboxl\Documents\Github\Ada_Drivers_Library_j\boards\MicroBit_v2\obj\zfp_lib_Debug\libada_drivers_library.a(nrf-gpio.o)
                0x0000000000002500                nrf__gpio__mode
 .text.nrf__gpio__set_mode
                0x00000000000025d8      0x1b4 C:\Users\xboxl\Documents\Github\Ada_Drivers_Library_j\boards\MicroBit_v2\obj\zfp_lib_Debug\libada_drivers_library.a(nrf-gpio.o)
                0x00000000000025d8                nrf__gpio__set_mode
 .text.nrf__gpio__set
                0x000000000000278c       0x8c C:\Users\xboxl\Documents\Github\Ada_Drivers_Library_j\boards\MicroBit_v2\obj\zfp_lib_Debug\libada_drivers_library.a(nrf-gpio.o)
                0x000000000000278c                nrf__gpio__set
 .text.nrf__gpio__pull_resistor
                0x0000000000002818       0xc8 C:\Users\xboxl\Documents\Github\Ada_Drivers_Library_j\boards\MicroBit_v2\obj\zfp_lib_Debug\libada_drivers_library.a(nrf-gpio.o)
                0x0000000000002818                nrf__gpio__pull_resistor
 .text.nrf__gpio__set_pull_resistor
                0x00000000000028e0      0x144 C:\Users\xboxl\Documents\Github\Ada_Drivers_Library_j\boards\MicroBit_v2\obj\zfp_lib_Debug\libada_drivers_library.a(nrf-gpio.o)
                0x00000000000028e0                nrf__gpio__set_pull_resistor
 .text.nrf__gpio__set__2
                0x0000000000002a24       0x9c C:\Users\xboxl\Documents\Github\Ada_Drivers_Library_j\boards\MicroBit_v2\obj\zfp_lib_Debug\libada_drivers_library.a(nrf-gpio.o)
                0x0000000000002a24                nrf__gpio__set__2
 .text.nrf__gpio__clear
                0x0000000000002ac0       0xa0 C:\Users\xboxl\Documents\Github\Ada_Drivers_Library_j\boards\MicroBit_v2\obj\zfp_lib_Debug\libada_drivers_library.a(nrf-gpio.o)
                0x0000000000002ac0                nrf__gpio__clear
 .text.nrf__gpio__toggle
                0x0000000000002b60       0x48 C:\Users\xboxl\Documents\Github\Ada_Drivers_Library_j\boards\MicroBit_v2\obj\zfp_lib_Debug\libada_drivers_library.a(nrf-gpio.o)
                0x0000000000002b60                nrf__gpio__toggle
 .text.nrf__gpio__configure_io
                0x0000000000002ba8      0x52c C:\Users\xboxl\Documents\Github\Ada_Drivers_Library_j\boards\MicroBit_v2\obj\zfp_lib_Debug\libada_drivers_library.a(nrf-gpio.o)
                0x0000000000002ba8                nrf__gpio__configure_io
 .text.nrf__interrupts__set_priority
                0x00000000000030d4       0x1c C:\Users\xboxl\Documents\Github\Ada_Drivers_Library_j\boards\MicroBit_v2\obj\zfp_lib_Debug\libada_drivers_library.a(nrf-interrupts.o)
                0x00000000000030d4                nrf__interrupts__set_priority
 .text.nrf__interrupts__enable
                0x00000000000030f0       0x18 C:\Users\xboxl\Documents\Github\Ada_Drivers_Library_j\boards\MicroBit_v2\obj\zfp_lib_Debug\libada_drivers_library.a(nrf-interrupts.o)
                0x00000000000030f0                nrf__interrupts__enable
 .text.nrf__interrupts__disable
                0x0000000000003108       0x18 C:\Users\xboxl\Documents\Github\Ada_Drivers_Library_j\boards\MicroBit_v2\obj\zfp_lib_Debug\libada_drivers_library.a(nrf-interrupts.o)
                0x0000000000003108                nrf__interrupts__disable
 .text.nrf__interrupts__register
                0x0000000000003120       0x34 C:\Users\xboxl\Documents\Github\Ada_Drivers_Library_j\boards\MicroBit_v2\obj\zfp_lib_Debug\libada_drivers_library.a(nrf-interrupts.o)
                0x0000000000003120                nrf__interrupts__register
 .text.__adl_irq_handler
                0x0000000000003154       0x5c C:\Users\xboxl\Documents\Github\Ada_Drivers_Library_j\boards\MicroBit_v2\obj\zfp_lib_Debug\libada_drivers_library.a(nrf-interrupts.o)
                0x0000000000003154                __adl_irq_handler
 .text.nrf__radio__setup_for_rf_nrf52
                0x00000000000031b0      0x100 C:\Users\xboxl\Documents\Github\Ada_Drivers_Library_j\boards\MicroBit_v2\obj\zfp_lib_Debug\libada_drivers_library.a(nrf-radio.o)
                0x00000000000031b0                nrf__radio__setup_for_rf_nrf52
 .text.nrf__radio__enable_shortcut
                0x00000000000032b0      0x100 C:\Users\xboxl\Documents\Github\Ada_Drivers_Library_j\boards\MicroBit_v2\obj\zfp_lib_Debug\libada_drivers_library.a(nrf-radio.o)
                0x00000000000032b0                nrf__radio__enable_shortcut
 .text.nrf__radio__get_queuedepth
                0x00000000000033b0       0x18 C:\Users\xboxl\Documents\Github\Ada_Drivers_Library_j\boards\MicroBit_v2\obj\zfp_lib_Debug\libada_drivers_library.a(nrf-radio.o)
                0x00000000000033b0                nrf__radio__get_queuedepth
 .text.nrf__radio__set_queuedepth
                0x00000000000033c8       0x20 C:\Users\xboxl\Documents\Github\Ada_Drivers_Library_j\boards\MicroBit_v2\obj\zfp_lib_Debug\libada_drivers_library.a(nrf-radio.o)
                0x00000000000033c8                nrf__radio__set_queuedepth
 .text.nrf__radio__deepcopyintosafeframebuffer
                0x00000000000033e8       0x6c C:\Users\xboxl\Documents\Github\Ada_Drivers_Library_j\boards\MicroBit_v2\obj\zfp_lib_Debug\libada_drivers_library.a(nrf-radio.o)
                0x00000000000033e8                nrf__radio__deepcopyintosafeframebuffer
 .text.nrf__radio__get_rssisample
                0x0000000000003454       0x24 C:\Users\xboxl\Documents\Github\Ada_Drivers_Library_j\boards\MicroBit_v2\obj\zfp_lib_Debug\libada_drivers_library.a(nrf-radio.o)
                0x0000000000003454                nrf__radio__get_rssisample
 .text.nrf__radio__isinitialized
                0x0000000000003478       0x18 C:\Users\xboxl\Documents\Github\Ada_Drivers_Library_j\boards\MicroBit_v2\obj\zfp_lib_Debug\libada_drivers_library.a(nrf-radio.o)
                0x0000000000003478                nrf__radio__isinitialized
 .text.nrf__radio__set_nrf52fastrampup
                0x0000000000003490       0x40 C:\Users\xboxl\Documents\Github\Ada_Drivers_Library_j\boards\MicroBit_v2\obj\zfp_lib_Debug\libada_drivers_library.a(nrf-radio.o)
                0x0000000000003490                nrf__radio__set_nrf52fastrampup
 .text.nrf__radio__set_rssi
                0x00000000000034d0       0x40 C:\Users\xboxl\Documents\Github\Ada_Drivers_Library_j\boards\MicroBit_v2\obj\zfp_lib_Debug\libada_drivers_library.a(nrf-radio.o)
                0x00000000000034d0                nrf__radio__set_rssi
 .text.nrf__radio__get_rssi
                0x0000000000003510       0x38 C:\Users\xboxl\Documents\Github\Ada_Drivers_Library_j\boards\MicroBit_v2\obj\zfp_lib_Debug\libada_drivers_library.a(nrf-radio.o)
                0x0000000000003510                nrf__radio__get_rssi
 .text.nrf__radio__set_packet
                0x0000000000003548       0x24 C:\Users\xboxl\Documents\Github\Ada_Drivers_Library_j\boards\MicroBit_v2\obj\zfp_lib_Debug\libada_drivers_library.a(nrf-radio.o)
                0x0000000000003548                nrf__radio__set_packet
 .text.nrf__radio__set_frequency
                0x000000000000356c       0x58 C:\Users\xboxl\Documents\Github\Ada_Drivers_Library_j\boards\MicroBit_v2\obj\zfp_lib_Debug\libada_drivers_library.a(nrf-radio.o)
                0x000000000000356c                nrf__radio__set_frequency
 .text.nrf__radio__set_power
                0x00000000000035c4       0x4c C:\Users\xboxl\Documents\Github\Ada_Drivers_Library_j\boards\MicroBit_v2\obj\zfp_lib_Debug\libada_drivers_library.a(nrf-radio.o)
                0x00000000000035c4                nrf__radio__set_power
 .text.nrf__radio__set_mode
                0x0000000000003610       0x6c C:\Users\xboxl\Documents\Github\Ada_Drivers_Library_j\boards\MicroBit_v2\obj\zfp_lib_Debug\libada_drivers_library.a(nrf-radio.o)
                0x0000000000003610                nrf__radio__set_mode
 .text.nrf__radio__set_logic_addresses
                0x000000000000367c       0xac C:\Users\xboxl\Documents\Github\Ada_Drivers_Library_j\boards\MicroBit_v2\obj\zfp_lib_Debug\libada_drivers_library.a(nrf-radio.o)
                0x000000000000367c                nrf__radio__set_logic_addresses
 .text.nrf__radio__set_tx_address
                0x0000000000003728       0x34 C:\Users\xboxl\Documents\Github\Ada_Drivers_Library_j\boards\MicroBit_v2\obj\zfp_lib_Debug\libada_drivers_library.a(nrf-radio.o)
                0x0000000000003728                nrf__radio__set_tx_address
 .text.nrf__radio__set_rx_addresses
                0x000000000000375c       0x78 C:\Users\xboxl\Documents\Github\Ada_Drivers_Library_j\boards\MicroBit_v2\obj\zfp_lib_Debug\libada_drivers_library.a(nrf-radio.o)
                0x000000000000375c                nrf__radio__set_rx_addresses
 .text.nrf__radio__configure_crc
                0x00000000000037d4      0x12c C:\Users\xboxl\Documents\Github\Ada_Drivers_Library_j\boards\MicroBit_v2\obj\zfp_lib_Debug\libada_drivers_library.a(nrf-radio.o)
                0x00000000000037d4                nrf__radio__configure_crc
 .text.nrf__radio__configure_whitening
                0x0000000000003900       0x60 C:\Users\xboxl\Documents\Github\Ada_Drivers_Library_j\boards\MicroBit_v2\obj\zfp_lib_Debug\libada_drivers_library.a(nrf-radio.o)
                0x0000000000003900                nrf__radio__configure_whitening
 .text.nrf__radio__configure_packet
                0x0000000000003960      0x104 C:\Users\xboxl\Documents\Github\Ada_Drivers_Library_j\boards\MicroBit_v2\obj\zfp_lib_Debug\libada_drivers_library.a(nrf-radio.o)
                0x0000000000003960                nrf__radio__configure_packet
 .text.nrf__rtc__real_time_counterIP
                0x0000000000003a64       0x1c C:\Users\xboxl\Documents\Github\Ada_Drivers_Library_j\boards\MicroBit_v2\obj\zfp_lib_Debug\libada_drivers_library.a(nrf-rtc.o)
                0x0000000000003a64                nrf__rtc__real_time_counterIP
 .text.nrf__rtc__start
                0x0000000000003a80       0x18 C:\Users\xboxl\Documents\Github\Ada_Drivers_Library_j\boards\MicroBit_v2\obj\zfp_lib_Debug\libada_drivers_library.a(nrf-rtc.o)
                0x0000000000003a80                nrf__rtc__start
 .text.nrf__rtc__stop
                0x0000000000003a98       0x18 C:\Users\xboxl\Documents\Github\Ada_Drivers_Library_j\boards\MicroBit_v2\obj\zfp_lib_Debug\libada_drivers_library.a(nrf-rtc.o)
                0x0000000000003a98                nrf__rtc__stop
 .text.nrf__rtc__clear
                0x0000000000003ab0       0x18 C:\Users\xboxl\Documents\Github\Ada_Drivers_Library_j\boards\MicroBit_v2\obj\zfp_lib_Debug\libada_drivers_library.a(nrf-rtc.o)
                0x0000000000003ab0                nrf__rtc__clear
 .text.nrf__rtc__set_prescaler
                0x0000000000003ac8       0x34 C:\Users\xboxl\Documents\Github\Ada_Drivers_Library_j\boards\MicroBit_v2\obj\zfp_lib_Debug\libada_drivers_library.a(nrf-rtc.o)
                0x0000000000003ac8                nrf__rtc__set_prescaler
 .text.nrf__rtc__set_compare
                0x0000000000003afc       0x44 C:\Users\xboxl\Documents\Github\Ada_Drivers_Library_j\boards\MicroBit_v2\obj\zfp_lib_Debug\libada_drivers_library.a(nrf-rtc.o)
                0x0000000000003afc                nrf__rtc__set_compare
 .text.nrf__rtc__enable_event
                0x0000000000003b40      0x164 C:\Users\xboxl\Documents\Github\Ada_Drivers_Library_j\boards\MicroBit_v2\obj\zfp_lib_Debug\libada_drivers_library.a(nrf-rtc.o)
                0x0000000000003b40                nrf__rtc__enable_event
 .text.nrf__spi_master__spi_masterIP
                0x0000000000003ca4       0x30 C:\Users\xboxl\Documents\Github\Ada_Drivers_Library_j\boards\MicroBit_v2\obj\zfp_lib_Debug\libada_drivers_library.a(nrf-spi_master.o)
                0x0000000000003ca4                nrf__spi_master__spi_masterIP
 .text.nrf__spi_master___size__2
                0x0000000000003cd4       0x20 C:\Users\xboxl\Documents\Github\Ada_Drivers_Library_j\boards\MicroBit_v2\obj\zfp_lib_Debug\libada_drivers_library.a(nrf-spi_master.o)
                0x0000000000003cd4                nrf__spi_master___size__2
 .text.nrf__spi_master__Oeq
                0x0000000000003cf4       0x28 C:\Users\xboxl\Documents\Github\Ada_Drivers_Library_j\boards\MicroBit_v2\obj\zfp_lib_Debug\libada_drivers_library.a(nrf-spi_master.o)
                0x0000000000003cf4                nrf__spi_master__Oeq
 .text.nrf__spi_master___assign
                0x0000000000003d1c       0x3c C:\Users\xboxl\Documents\Github\Ada_Drivers_Library_j\boards\MicroBit_v2\obj\zfp_lib_Debug\libada_drivers_library.a(nrf-spi_master.o)
                0x0000000000003d1c                nrf__spi_master___assign
 .text.nrf__spi_master__enable___postconditions.0
                0x0000000000003d58       0x3c C:\Users\xboxl\Documents\Github\Ada_Drivers_Library_j\boards\MicroBit_v2\obj\zfp_lib_Debug\libada_drivers_library.a(nrf-spi_master.o)
 .text.nrf__spi_master__enable
                0x0000000000003d94       0x3c C:\Users\xboxl\Documents\Github\Ada_Drivers_Library_j\boards\MicroBit_v2\obj\zfp_lib_Debug\libada_drivers_library.a(nrf-spi_master.o)
                0x0000000000003d94                nrf__spi_master__enable
 .text.nrf__spi_master__disable___postconditions.1
                0x0000000000003dd0       0x34 C:\Users\xboxl\Documents\Github\Ada_Drivers_Library_j\boards\MicroBit_v2\obj\zfp_lib_Debug\libada_drivers_library.a(nrf-spi_master.o)
 .text.nrf__spi_master__disable
                0x0000000000003e04       0x3c C:\Users\xboxl\Documents\Github\Ada_Drivers_Library_j\boards\MicroBit_v2\obj\zfp_lib_Debug\libada_drivers_library.a(nrf-spi_master.o)
                0x0000000000003e04                nrf__spi_master__disable
 .text.nrf__spi_master__enabled
                0x0000000000003e40       0x34 C:\Users\xboxl\Documents\Github\Ada_Drivers_Library_j\boards\MicroBit_v2\obj\zfp_lib_Debug\libada_drivers_library.a(nrf-spi_master.o)
                0x0000000000003e40                nrf__spi_master__enabled
 .text.nrf__spi_master__configure
                0x0000000000003e74      0x174 C:\Users\xboxl\Documents\Github\Ada_Drivers_Library_j\boards\MicroBit_v2\obj\zfp_lib_Debug\libada_drivers_library.a(nrf-spi_master.o)
                0x0000000000003e74                nrf__spi_master__configure
 .text.nrf__spi_master__disconnect
                0x0000000000003fe8       0x54 C:\Users\xboxl\Documents\Github\Ada_Drivers_Library_j\boards\MicroBit_v2\obj\zfp_lib_Debug\libada_drivers_library.a(nrf-spi_master.o)
                0x0000000000003fe8                nrf__spi_master__disconnect
 .text.nrf__spi_master__data_size
                0x000000000000403c       0x18 C:\Users\xboxl\Documents\Github\Ada_Drivers_Library_j\boards\MicroBit_v2\obj\zfp_lib_Debug\libada_drivers_library.a(nrf-spi_master.o)
                0x000000000000403c                nrf__spi_master__data_size
 .text.nrf__spi_master__transmit
                0x0000000000004054       0xc4 C:\Users\xboxl\Documents\Github\Ada_Drivers_Library_j\boards\MicroBit_v2\obj\zfp_lib_Debug\libada_drivers_library.a(nrf-spi_master.o)
                0x0000000000004054                nrf__spi_master__transmit
 .text.nrf__spi_master__transmit__2
                0x0000000000004118      0x258 C:\Users\xboxl\Documents\Github\Ada_Drivers_Library_j\boards\MicroBit_v2\obj\zfp_lib_Debug\libada_drivers_library.a(nrf-spi_master.o)
                0x0000000000004118                nrf__spi_master__transmit__2
 .text.nrf__spi_master__receive
                0x0000000000004370       0xbc C:\Users\xboxl\Documents\Github\Ada_Drivers_Library_j\boards\MicroBit_v2\obj\zfp_lib_Debug\libada_drivers_library.a(nrf-spi_master.o)
                0x0000000000004370                nrf__spi_master__receive
 .text.nrf__spi_master__receive__2
                0x000000000000442c      0x224 C:\Users\xboxl\Documents\Github\Ada_Drivers_Library_j\boards\MicroBit_v2\obj\zfp_lib_Debug\libada_drivers_library.a(nrf-spi_master.o)
                0x000000000000442c                nrf__spi_master__receive__2
 .text.nrf__tasks__trigger
                0x0000000000004650       0x30 C:\Users\xboxl\Documents\Github\Ada_Drivers_Library_j\boards\MicroBit_v2\obj\zfp_lib_Debug\libada_drivers_library.a(nrf-tasks.o)
                0x0000000000004650                nrf__tasks__trigger
 .text.nrf__timers__timerIP
                0x0000000000004680       0x30 C:\Users\xboxl\Documents\Github\Ada_Drivers_Library_j\boards\MicroBit_v2\obj\zfp_lib_Debug\libada_drivers_library.a(nrf-timers.o)
                0x0000000000004680                nrf__timers__timerIP
 .text.nrf__timers___size
                0x00000000000046b0       0x20 C:\Users\xboxl\Documents\Github\Ada_Drivers_Library_j\boards\MicroBit_v2\obj\zfp_lib_Debug\libada_drivers_library.a(nrf-timers.o)
                0x00000000000046b0                nrf__timers___size
 .text.nrf__timers__Oeq
                0x00000000000046d0       0x28 C:\Users\xboxl\Documents\Github\Ada_Drivers_Library_j\boards\MicroBit_v2\obj\zfp_lib_Debug\libada_drivers_library.a(nrf-timers.o)
                0x00000000000046d0                nrf__timers__Oeq
 .text.nrf__timers___assign
                0x00000000000046f8       0x3c C:\Users\xboxl\Documents\Github\Ada_Drivers_Library_j\boards\MicroBit_v2\obj\zfp_lib_Debug\libada_drivers_library.a(nrf-timers.o)
                0x00000000000046f8                nrf__timers___assign
 .text.nrf__timers__start
                0x0000000000004734       0x1c C:\Users\xboxl\Documents\Github\Ada_Drivers_Library_j\boards\MicroBit_v2\obj\zfp_lib_Debug\libada_drivers_library.a(nrf-timers.o)
                0x0000000000004734                nrf__timers__start
 .text.nrf__timers__stop
                0x0000000000004750       0x1c C:\Users\xboxl\Documents\Github\Ada_Drivers_Library_j\boards\MicroBit_v2\obj\zfp_lib_Debug\libada_drivers_library.a(nrf-timers.o)
                0x0000000000004750                nrf__timers__stop
 .text.nrf__timers__clear
                0x000000000000476c       0x1c C:\Users\xboxl\Documents\Github\Ada_Drivers_Library_j\boards\MicroBit_v2\obj\zfp_lib_Debug\libada_drivers_library.a(nrf-timers.o)
                0x000000000000476c                nrf__timers__clear
 .text.nrf__timers__set_prescaler
                0x0000000000004788       0x38 C:\Users\xboxl\Documents\Github\Ada_Drivers_Library_j\boards\MicroBit_v2\obj\zfp_lib_Debug\libada_drivers_library.a(nrf-timers.o)
                0x0000000000004788                nrf__timers__set_prescaler
 .text.nrf__timers__set_mode
                0x00000000000047c0       0x50 C:\Users\xboxl\Documents\Github\Ada_Drivers_Library_j\boards\MicroBit_v2\obj\zfp_lib_Debug\libada_drivers_library.a(nrf-timers.o)
                0x00000000000047c0                nrf__timers__set_mode
 .text.nrf__timers__set_bitmode___postconditions.0
                0x0000000000004810       0x38 C:\Users\xboxl\Documents\Github\Ada_Drivers_Library_j\boards\MicroBit_v2\obj\zfp_lib_Debug\libada_drivers_library.a(nrf-timers.o)
 .text.nrf__timers__set_bitmode
                0x0000000000004848       0x80 C:\Users\xboxl\Documents\Github\Ada_Drivers_Library_j\boards\MicroBit_v2\obj\zfp_lib_Debug\libada_drivers_library.a(nrf-timers.o)
                0x0000000000004848                nrf__timers__set_bitmode
 .text.nrf__timers__bitmode
                0x00000000000048c8       0x50 C:\Users\xboxl\Documents\Github\Ada_Drivers_Library_j\boards\MicroBit_v2\obj\zfp_lib_Debug\libada_drivers_library.a(nrf-timers.o)
                0x00000000000048c8                nrf__timers__bitmode
 .text.nrf__timers__compare_interrupt
                0x0000000000004918       0xb8 C:\Users\xboxl\Documents\Github\Ada_Drivers_Library_j\boards\MicroBit_v2\obj\zfp_lib_Debug\libada_drivers_library.a(nrf-timers.o)
                0x0000000000004918                nrf__timers__compare_interrupt
 .text.nrf__timers__compare_shortcut
                0x00000000000049d0      0x214 C:\Users\xboxl\Documents\Github\Ada_Drivers_Library_j\boards\MicroBit_v2\obj\zfp_lib_Debug\libada_drivers_library.a(nrf-timers.o)
                0x00000000000049d0                nrf__timers__compare_shortcut
 .text.nrf__timers__set_compare
                0x0000000000004be4       0x2c C:\Users\xboxl\Documents\Github\Ada_Drivers_Library_j\boards\MicroBit_v2\obj\zfp_lib_Debug\libada_drivers_library.a(nrf-timers.o)
                0x0000000000004be4                nrf__timers__set_compare
 .text.nrf__timers__capture
                0x0000000000004c10       0x28 C:\Users\xboxl\Documents\Github\Ada_Drivers_Library_j\boards\MicroBit_v2\obj\zfp_lib_Debug\libada_drivers_library.a(nrf-timers.o)
                0x0000000000004c10                nrf__timers__capture
 .text.nrf__timers__capture__2
                0x0000000000004c38       0x30 C:\Users\xboxl\Documents\Github\Ada_Drivers_Library_j\boards\MicroBit_v2\obj\zfp_lib_Debug\libada_drivers_library.a(nrf-timers.o)
                0x0000000000004c38                nrf__timers__capture__2
 .text.nrf__timers__cc_register
                0x0000000000004c68       0x2c C:\Users\xboxl\Documents\Github\Ada_Drivers_Library_j\boards\MicroBit_v2\obj\zfp_lib_Debug\libada_drivers_library.a(nrf-timers.o)
                0x0000000000004c68                nrf__timers__cc_register
 .text.nrf__timers__start_task
                0x0000000000004c94       0x1c C:\Users\xboxl\Documents\Github\Ada_Drivers_Library_j\boards\MicroBit_v2\obj\zfp_lib_Debug\libada_drivers_library.a(nrf-timers.o)
                0x0000000000004c94                nrf__timers__start_task
 .text.nrf__timers__stop_task
                0x0000000000004cb0       0x1c C:\Users\xboxl\Documents\Github\Ada_Drivers_Library_j\boards\MicroBit_v2\obj\zfp_lib_Debug\libada_drivers_library.a(nrf-timers.o)
                0x0000000000004cb0                nrf__timers__stop_task
 .text.nrf__timers__count_task
                0x0000000000004ccc       0x1c C:\Users\xboxl\Documents\Github\Ada_Drivers_Library_j\boards\MicroBit_v2\obj\zfp_lib_Debug\libada_drivers_library.a(nrf-timers.o)
                0x0000000000004ccc                nrf__timers__count_task
 .text.nrf__timers__clear_task
                0x0000000000004ce8       0x1c C:\Users\xboxl\Documents\Github\Ada_Drivers_Library_j\boards\MicroBit_v2\obj\zfp_lib_Debug\libada_drivers_library.a(nrf-timers.o)
                0x0000000000004ce8                nrf__timers__clear_task
 .text.nrf__timers__capture_task
                0x0000000000004d04       0x28 C:\Users\xboxl\Documents\Github\Ada_Drivers_Library_j\boards\MicroBit_v2\obj\zfp_lib_Debug\libada_drivers_library.a(nrf-timers.o)
                0x0000000000004d04                nrf__timers__capture_task
 .text.nrf__timers__compare_event
                0x0000000000004d2c       0x28 C:\Users\xboxl\Documents\Github\Ada_Drivers_Library_j\boards\MicroBit_v2\obj\zfp_lib_Debug\libada_drivers_library.a(nrf-timers.o)
                0x0000000000004d2c                nrf__timers__compare_event
 .text.nrf__twi__twi_masterIP
                0x0000000000004d54       0x34 C:\Users\xboxl\Documents\Github\Ada_Drivers_Library_j\boards\MicroBit_v2\obj\zfp_lib_Debug\libada_drivers_library.a(nrf-twi.o)
                0x0000000000004d54                nrf__twi__twi_masterIP
 .text.nrf__twi___size__2
                0x0000000000004d88       0x20 C:\Users\xboxl\Documents\Github\Ada_Drivers_Library_j\boards\MicroBit_v2\obj\zfp_lib_Debug\libada_drivers_library.a(nrf-twi.o)
                0x0000000000004d88                nrf__twi___size__2
 .text.nrf__twi__Oeq
                0x0000000000004da8       0x40 C:\Users\xboxl\Documents\Github\Ada_Drivers_Library_j\boards\MicroBit_v2\obj\zfp_lib_Debug\libada_drivers_library.a(nrf-twi.o)
                0x0000000000004da8                nrf__twi__Oeq
 .text.nrf__twi___assign
                0x0000000000004de8       0x3c C:\Users\xboxl\Documents\Github\Ada_Drivers_Library_j\boards\MicroBit_v2\obj\zfp_lib_Debug\libada_drivers_library.a(nrf-twi.o)
                0x0000000000004de8                nrf__twi___assign
 .text.nrf__twi__stop_sequence
                0x0000000000004e24       0x34 C:\Users\xboxl\Documents\Github\Ada_Drivers_Library_j\boards\MicroBit_v2\obj\zfp_lib_Debug\libada_drivers_library.a(nrf-twi.o)
 .text.nrf__twi__enable
                0x0000000000004e58       0x2c C:\Users\xboxl\Documents\Github\Ada_Drivers_Library_j\boards\MicroBit_v2\obj\zfp_lib_Debug\libada_drivers_library.a(nrf-twi.o)
                0x0000000000004e58                nrf__twi__enable
 .text.nrf__twi__disable
                0x0000000000004e84       0x2c C:\Users\xboxl\Documents\Github\Ada_Drivers_Library_j\boards\MicroBit_v2\obj\zfp_lib_Debug\libada_drivers_library.a(nrf-twi.o)
                0x0000000000004e84                nrf__twi__disable
 .text.nrf__twi__enabled
                0x0000000000004eb0       0x34 C:\Users\xboxl\Documents\Github\Ada_Drivers_Library_j\boards\MicroBit_v2\obj\zfp_lib_Debug\libada_drivers_library.a(nrf-twi.o)
                0x0000000000004eb0                nrf__twi__enabled
 .text.nrf__twi__configure
                0x0000000000004ee4       0x64 C:\Users\xboxl\Documents\Github\Ada_Drivers_Library_j\boards\MicroBit_v2\obj\zfp_lib_Debug\libada_drivers_library.a(nrf-twi.o)
                0x0000000000004ee4                nrf__twi__configure
 .text.nrf__twi__disconnect
                0x0000000000004f48       0x2c C:\Users\xboxl\Documents\Github\Ada_Drivers_Library_j\boards\MicroBit_v2\obj\zfp_lib_Debug\libada_drivers_library.a(nrf-twi.o)
                0x0000000000004f48                nrf__twi__disconnect
 .text.nrf__twi__master_transmit
                0x0000000000004f74      0x1a4 C:\Users\xboxl\Documents\Github\Ada_Drivers_Library_j\boards\MicroBit_v2\obj\zfp_lib_Debug\libada_drivers_library.a(nrf-twi.o)
                0x0000000000004f74                nrf__twi__master_transmit
 .text.nrf__twi__master_receive
                0x0000000000005118      0x1fc C:\Users\xboxl\Documents\Github\Ada_Drivers_Library_j\boards\MicroBit_v2\obj\zfp_lib_Debug\libada_drivers_library.a(nrf-twi.o)
                0x0000000000005118                nrf__twi__master_receive
 .text.nrf__twi__mem_write
                0x0000000000005314      0x130 C:\Users\xboxl\Documents\Github\Ada_Drivers_Library_j\boards\MicroBit_v2\obj\zfp_lib_Debug\libada_drivers_library.a(nrf-twi.o)
                0x0000000000005314                nrf__twi__mem_write
 .text.nrf__twi__mem_write_buffer
                0x0000000000005444       0x58 C:\Users\xboxl\Documents\Github\Ada_Drivers_Library_j\boards\MicroBit_v2\obj\zfp_lib_Debug\libada_drivers_library.a(nrf-twi.o)
                0x0000000000005444                nrf__twi__mem_write_buffer
 .text.nrf__twi__mem_read
                0x000000000000549c      0x130 C:\Users\xboxl\Documents\Github\Ada_Drivers_Library_j\boards\MicroBit_v2\obj\zfp_lib_Debug\libada_drivers_library.a(nrf-twi.o)
                0x000000000000549c                nrf__twi__mem_read
 .text.nrf__uart__uart_deviceIP
                0x00000000000055cc       0x34 C:\Users\xboxl\Documents\Github\Ada_Drivers_Library_j\boards\MicroBit_v2\obj\zfp_lib_Debug\libada_drivers_library.a(nrf-uart.o)
                0x00000000000055cc                nrf__uart__uart_deviceIP
 .text.nrf__uart___size__2
                0x0000000000005600       0x20 C:\Users\xboxl\Documents\Github\Ada_Drivers_Library_j\boards\MicroBit_v2\obj\zfp_lib_Debug\libada_drivers_library.a(nrf-uart.o)
                0x0000000000005600                nrf__uart___size__2
 .text.nrf__uart__Oeq
                0x0000000000005620       0x40 C:\Users\xboxl\Documents\Github\Ada_Drivers_Library_j\boards\MicroBit_v2\obj\zfp_lib_Debug\libada_drivers_library.a(nrf-uart.o)
                0x0000000000005620                nrf__uart__Oeq
 .text.nrf__uart___assign
                0x0000000000005660       0x3c C:\Users\xboxl\Documents\Github\Ada_Drivers_Library_j\boards\MicroBit_v2\obj\zfp_lib_Debug\libada_drivers_library.a(nrf-uart.o)
                0x0000000000005660                nrf__uart___assign
 .text.nrf__uart__data_size
                0x000000000000569c       0x18 C:\Users\xboxl\Documents\Github\Ada_Drivers_Library_j\boards\MicroBit_v2\obj\zfp_lib_Debug\libada_drivers_library.a(nrf-uart.o)
                0x000000000000569c                nrf__uart__data_size
 .text.nrf__uart__configure
                0x00000000000056b4       0x48 C:\Users\xboxl\Documents\Github\Ada_Drivers_Library_j\boards\MicroBit_v2\obj\zfp_lib_Debug\libada_drivers_library.a(nrf-uart.o)
                0x00000000000056b4                nrf__uart__configure
 .text.nrf__uart__enable
                0x00000000000056fc       0x6c C:\Users\xboxl\Documents\Github\Ada_Drivers_Library_j\boards\MicroBit_v2\obj\zfp_lib_Debug\libada_drivers_library.a(nrf-uart.o)
                0x00000000000056fc                nrf__uart__enable
 .text.nrf__uart__disable
                0x0000000000005768       0x54 C:\Users\xboxl\Documents\Github\Ada_Drivers_Library_j\boards\MicroBit_v2\obj\zfp_lib_Debug\libada_drivers_library.a(nrf-uart.o)
                0x0000000000005768                nrf__uart__disable
 .text.nrf__uart__enable_flow_control
                0x00000000000057bc       0x48 C:\Users\xboxl\Documents\Github\Ada_Drivers_Library_j\boards\MicroBit_v2\obj\zfp_lib_Debug\libada_drivers_library.a(nrf-uart.o)
                0x00000000000057bc                nrf__uart__enable_flow_control
 .text.nrf__uart__disable_flow_control
                0x0000000000005804       0x44 C:\Users\xboxl\Documents\Github\Ada_Drivers_Library_j\boards\MicroBit_v2\obj\zfp_lib_Debug\libada_drivers_library.a(nrf-uart.o)
                0x0000000000005804                nrf__uart__disable_flow_control
 .text.nrf__uart__transmit
                0x0000000000005848       0xa8 C:\Users\xboxl\Documents\Github\Ada_Drivers_Library_j\boards\MicroBit_v2\obj\zfp_lib_Debug\libada_drivers_library.a(nrf-uart.o)
                0x0000000000005848                nrf__uart__transmit
 .text.nrf__uart__receive
                0x00000000000058f0       0xa0 C:\Users\xboxl\Documents\Github\Ada_Drivers_Library_j\boards\MicroBit_v2\obj\zfp_lib_Debug\libada_drivers_library.a(nrf-uart.o)
                0x00000000000058f0                nrf__uart__receive
 .text.nrf__uart__transmit__2
                0x0000000000005990       0x3c C:\Users\xboxl\Documents\Github\Ada_Drivers_Library_j\boards\MicroBit_v2\obj\zfp_lib_Debug\libada_drivers_library.a(nrf-uart.o)
                0x0000000000005990                nrf__uart__transmit__2
 .text.nrf__uart__receive__2
                0x00000000000059cc       0x3c C:\Users\xboxl\Documents\Github\Ada_Drivers_Library_j\boards\MicroBit_v2\obj\zfp_lib_Debug\libada_drivers_library.a(nrf-uart.o)
                0x00000000000059cc                nrf__uart__receive__2
 .text.nrf_svd__gpio__pin_cnf_pull_fieldRP
                0x0000000000005a08       0x40 C:\Users\xboxl\Documents\Github\Ada_Drivers_Library_j\boards\MicroBit_v2\obj\zfp_lib_Debug\libada_drivers_library.a(nrf_svd-gpio.o)
                0x0000000000005a08                nrf_svd__gpio__pin_cnf_pull_fieldRP
 .text.nrf_svd__radio__txpower_txpower_fieldRP
                0x0000000000005a48      0x110 C:\Users\xboxl\Documents\Github\Ada_Drivers_Library_j\boards\MicroBit_v2\obj\zfp_lib_Debug\libada_drivers_library.a(nrf_svd-radio.o)
                0x0000000000005a48                nrf_svd__radio__txpower_txpower_fieldRP
 .text.nrf_svd__twi__errorsrc_registerIP
                0x0000000000005b58       0x4c C:\Users\xboxl\Documents\Github\Ada_Drivers_Library_j\boards\MicroBit_v2\obj\zfp_lib_Debug\libada_drivers_library.a(nrf_svd-twi.o)
                0x0000000000005b58                nrf_svd__twi__errorsrc_registerIP
 .text.ada__exceptions__last_chance_handler__put.0
                0x0000000000005ba4       0x20 C:\gnat\2021-arm-elf\arm-eabi\lib\gnat\zfp-cortex-m4f\adalib\libgnat.a(a-elchha.o)
 .text.__gnat_last_chance_handler
                0x0000000000005bc4       0x5c C:\gnat\2021-arm-elf\arm-eabi\lib\gnat\zfp-cortex-m4f\adalib\libgnat.a(a-elchha.o)
                0x0000000000005bc4                __gnat_last_chance_handler
 .text.gnat__io__put__2
                0x0000000000005c20       0x44 C:\gnat\2021-arm-elf\arm-eabi\lib\gnat\zfp-cortex-m4f\adalib\libgnat.a(g-io.o)
                0x0000000000005c20                gnat__io__put__2
 .text.gnat__io__new_line
                0x0000000000005c64       0x18 C:\gnat\2021-arm-elf\arm-eabi\lib\gnat\zfp-cortex-m4f\adalib\libgnat.a(g-io.o)
                0x0000000000005c64                gnat__io__new_line
 .text.gnat__io__put
                0x0000000000005c7c       0x74 C:\gnat\2021-arm-elf\arm-eabi\lib\gnat\zfp-cortex-m4f\adalib\libgnat.a(g-io.o)
                0x0000000000005c7c                gnat__io__put
 .text.gnat__io__put__3
                0x0000000000005cf0       0x20 C:\gnat\2021-arm-elf\arm-eabi\lib\gnat\zfp-cortex-m4f\adalib\libgnat.a(g-io.o)
                0x0000000000005cf0                gnat__io__put__3
 .text.gnat__io__put_line
                0x0000000000005d10       0x28 C:\gnat\2021-arm-elf\arm-eabi\lib\gnat\zfp-cortex-m4f\adalib\libgnat.a(g-io.o)
                0x0000000000005d10                gnat__io__put_line
 .text.system__assertions__raise_assert_failure
                0x0000000000005d38       0x1c C:\gnat\2021-arm-elf\arm-eabi\lib\gnat\zfp-cortex-m4f\adalib\libgnat.a(s-assert.o)
                0x0000000000005d38                system__assertions__raise_assert_failure
 .text.system__img_uns__impl__image_unsigned
                0x0000000000005d54       0x5c C:\gnat\2021-arm-elf\arm-eabi\lib\gnat\zfp-cortex-m4f\adalib\libgnat.a(s-imguns.o)
                0x0000000000005d54                system__img_uns__impl__image_unsigned
 .text._exit    0x0000000000005db0       0x18 C:\gnat\2021-arm-elf\arm-eabi\lib\gnat\zfp-cortex-m4f\adalib\libgnat.a(s-macres.o)
                0x0000000000005db0                _exit
 .text.system__machine_reset__stop
                0x0000000000005dc8        0x8 C:\gnat\2021-arm-elf\arm-eabi\lib\gnat\zfp-cortex-m4f\adalib\libgnat.a(s-macres.o)
                0x0000000000005dc8                system__machine_reset__stop
 .text.memcpy   0x0000000000005dd0       0x6c C:\gnat\2021-arm-elf\arm-eabi\lib\gnat\zfp-cortex-m4f\adalib\libgnat.a(s-memcop.o)
                0x0000000000005dd0                memcpy
 .text.memset   0x0000000000005e3c       0x50 C:\gnat\2021-arm-elf\arm-eabi\lib\gnat\zfp-cortex-m4f\adalib\libgnat.a(s-memset.o)
                0x0000000000005e3c                memset
 .text.system__secondary_stack__ss_stackIP
                0x0000000000005e8c        0x4 C:\gnat\2021-arm-elf\arm-eabi\lib\gnat\zfp-cortex-m4f\adalib\libgnat.a(s-secsta.o)
                0x0000000000005e8c                system__secondary_stack__ss_stackIP
 .text.system__text_io__initialize
                0x0000000000005e90        0xc C:\gnat\2021-arm-elf\arm-eabi\lib\gnat\zfp-cortex-m4f\adalib\libgnat.a(s-textio.o)
                0x0000000000005e90                system__text_io__initialize
 .text.system__text_io__is_tx_ready
                0x0000000000005e9c        0x4 C:\gnat\2021-arm-elf\arm-eabi\lib\gnat\zfp-cortex-m4f\adalib\libgnat.a(s-textio.o)
                0x0000000000005e9c                system__text_io__is_tx_ready
 .text.system__text_io__put
                0x0000000000005ea0        0x4 C:\gnat\2021-arm-elf\arm-eabi\lib\gnat\zfp-cortex-m4f\adalib\libgnat.a(s-textio.o)
                0x0000000000005ea0                system__text_io__put
 .text.system__text_io__use_cr_lf_for_new_line
                0x0000000000005ea4        0x4 C:\gnat\2021-arm-elf\arm-eabi\lib\gnat\zfp-cortex-m4f\adalib\libgnat.a(s-textio.o)
                0x0000000000005ea4                system__text_io__use_cr_lf_for_new_line
 .text.ada__exceptions__call_last_chance_handler_with_message
                0x0000000000005ea8       0x58 C:\gnat\2021-arm-elf\arm-eabi\lib\gnat\zfp-cortex-m4f\adalib\libgnat.a(a-except.o)
                0x0000000000005ea8                ada__exceptions__call_last_chance_handler_with_message
 .text.system__semihosting__put
                0x0000000000005f00       0x84 C:\gnat\2021-arm-elf\arm-eabi\lib\gnat\zfp-cortex-m4f\adalib\libgnat.a(s-semiho.o)
                0x0000000000005f00                system__semihosting__put
 *(.gnu.warning)

.glue_7         0x0000000000005f84        0x0
 .glue_7        0x0000000000005f84        0x0 linker stubs

.glue_7t        0x0000000000005f84        0x0
 .glue_7t       0x0000000000005f84        0x0 linker stubs

.vfp11_veneer   0x0000000000005f84        0x0
 .vfp11_veneer  0x0000000000005f84        0x0 linker stubs

.v4_bx          0x0000000000005f84        0x0
 .v4_bx         0x0000000000005f84        0x0 linker stubs

.iplt           0x0000000000005f84        0x0
 .iplt          0x0000000000005f84        0x0 main.o

.ARM.extab
 *(.ARM.extab* .gnu.linkonce.armextab.*)
                0x0000000000005f84                . = ALIGN (0x4)
                [!provide]                        PROVIDE (__exidx_start = .)

.ARM.exidx
 *(.ARM.exidx* .gnu.linkonce.armexidx.*)
                [!provide]                        PROVIDE (__exidx_end = .)

.preinit_array  0x0000000000005f84        0x0
                [!provide]                        PROVIDE (__preinit_array_start = .)
 *(.preinit_array*)
                [!provide]                        PROVIDE (__preinit_array_end = .)

.init_array     0x0000000000005f84        0x0
                [!provide]                        PROVIDE (__init_array_start = .)
 *(SORT_BY_NAME(.init_array.*))
 *(.init_array*)
                [!provide]                        PROVIDE (__init_array_end = .)

.fini_array     0x0000000000005f84        0x0
                [!provide]                        PROVIDE (__fini_array_start = .)
 *(SORT_BY_NAME(.fini_array.*))
 *(.fini_array*)
                [!provide]                        PROVIDE (__fini_array_end = .)

.rodata         0x0000000000005f88      0xfc4
 *(.lit)
 *(.rodata .rodata.* .gnu.linkonce.r*)
 .rodata        0x0000000000005f88       0x15 main.o
 *fill*         0x0000000000005f9d        0x3 
 .rodata        0x0000000000005fa0       0x4a b__main.o
                0x0000000000005fb0                __gnat_version
                0x0000000000005fdc                __gnat_version_address
                0x0000000000005fe0                __gnat_ada_main_program_name
 *fill*         0x0000000000005fea        0x2 
 .rodata        0x0000000000005fec       0x12 C:\Users\xboxl\Documents\Github\Ada_Drivers_Library_j\boards\MicroBit_v2\obj\zfp_lib_Debug\libada_drivers_library.a(cortex_m-nvic.o)
 *fill*         0x0000000000005ffe        0x2 
 .rodata        0x0000000000006000       0x15 C:\Users\xboxl\Documents\Github\Ada_Drivers_Library_j\boards\MicroBit_v2\obj\zfp_lib_Debug\libada_drivers_library.a(microbit-buttons.o)
 *fill*         0x0000000000006015        0x3 
 .rodata        0x0000000000006018       0x2c C:\Users\xboxl\Documents\Github\Ada_Drivers_Library_j\boards\MicroBit_v2\obj\zfp_lib_Debug\libada_drivers_library.a(microbit-console.o)
 .rodata        0x0000000000006044       0x80 C:\Users\xboxl\Documents\Github\Ada_Drivers_Library_j\boards\MicroBit_v2\obj\zfp_lib_Debug\libada_drivers_library.a(microbit-display.o)
 .rodata.microbit__display__map
                0x00000000000060c4       0xc8 C:\Users\xboxl\Documents\Github\Ada_Drivers_Library_j\boards\MicroBit_v2\obj\zfp_lib_Debug\libada_drivers_library.a(microbit-display.o)
                0x00000000000060c4                microbit__display__map
 .rodata.microbit__display__font
                0x000000000000618c      0x1d6 C:\Users\xboxl\Documents\Github\Ada_Drivers_Library_j\boards\MicroBit_v2\obj\zfp_lib_Debug\libada_drivers_library.a(microbit-display.o)
                0x000000000000618c                microbit__display__font
 *fill*         0x0000000000006362        0x2 
 .rodata        0x0000000000006364       0xe1 C:\Users\xboxl\Documents\Github\Ada_Drivers_Library_j\boards\MicroBit_v2\obj\zfp_lib_Debug\libada_drivers_library.a(microbit-time.o)
 *fill*         0x0000000000006445        0x3 
 .rodata.microbit__time__mb_delaysE17s
                0x0000000000006448       0x18 C:\Users\xboxl\Documents\Github\Ada_Drivers_Library_j\boards\MicroBit_v2\obj\zfp_lib_Debug\libada_drivers_library.a(microbit-time.o)
                0x0000000000006448                microbit__time__mb_delaysE17s
 .rodata.microbit__time__mb_delaysB21s
                0x0000000000006460       0x20 C:\Users\xboxl\Documents\Github\Ada_Drivers_Library_j\boards\MicroBit_v2\obj\zfp_lib_Debug\libada_drivers_library.a(microbit-time.o)
                0x0000000000006460                microbit__time__mb_delaysB21s
 .rodata.microbit__time__mb_delaysR19s___UNC
                0x0000000000006480       0x24 C:\Users\xboxl\Documents\Github\Ada_Drivers_Library_j\boards\MicroBit_v2\obj\zfp_lib_Debug\libada_drivers_library.a(microbit-time.o)
                0x0000000000006480                microbit__time__mb_delaysR19s___UNC
 .rodata.microbit__time__mb_delaysT
                0x00000000000064a4       0x1c C:\Users\xboxl\Documents\Github\Ada_Drivers_Library_j\boards\MicroBit_v2\obj\zfp_lib_Debug\libada_drivers_library.a(microbit-time.o)
                0x00000000000064a4                microbit__time__mb_delaysT
 .rodata        0x00000000000064c0        0xe C:\Users\xboxl\Documents\Github\Ada_Drivers_Library_j\boards\MicroBit_v2\obj\zfp_lib_Debug\libada_drivers_library.a(nrf-clock.o)
 *fill*         0x00000000000064ce        0x2 
 .rodata        0x00000000000064d0        0xf C:\Users\xboxl\Documents\Github\Ada_Drivers_Library_j\boards\MicroBit_v2\obj\zfp_lib_Debug\libada_drivers_library.a(nrf-events.o)
 *fill*         0x00000000000064df        0x1 
 .rodata        0x00000000000064e0       0xc2 C:\Users\xboxl\Documents\Github\Ada_Drivers_Library_j\boards\MicroBit_v2\obj\zfp_lib_Debug\libada_drivers_library.a(nrf-gpio.o)
 *fill*         0x00000000000065a2        0x2 
 .rodata.nrf__gpio__gpio_pointE13s
                0x00000000000065a4       0x14 C:\Users\xboxl\Documents\Github\Ada_Drivers_Library_j\boards\MicroBit_v2\obj\zfp_lib_Debug\libada_drivers_library.a(nrf-gpio.o)
                0x00000000000065a4                nrf__gpio__gpio_pointE13s
 .rodata.nrf__gpio__gpio_pointB17s
                0x00000000000065b8       0x20 C:\Users\xboxl\Documents\Github\Ada_Drivers_Library_j\boards\MicroBit_v2\obj\zfp_lib_Debug\libada_drivers_library.a(nrf-gpio.o)
                0x00000000000065b8                nrf__gpio__gpio_pointB17s
 .rodata.nrf__gpio__gpio_pointR15s___UNC
                0x00000000000065d8       0x24 C:\Users\xboxl\Documents\Github\Ada_Drivers_Library_j\boards\MicroBit_v2\obj\zfp_lib_Debug\libada_drivers_library.a(nrf-gpio.o)
                0x00000000000065d8                nrf__gpio__gpio_pointR15s___UNC
 .rodata.nrf__gpio__gpio_pointT
                0x00000000000065fc       0x38 C:\Users\xboxl\Documents\Github\Ada_Drivers_Library_j\boards\MicroBit_v2\obj\zfp_lib_Debug\libada_drivers_library.a(nrf-gpio.o)
                0x00000000000065fc                nrf__gpio__gpio_pointT
 .rodata        0x0000000000006634       0x13 C:\Users\xboxl\Documents\Github\Ada_Drivers_Library_j\boards\MicroBit_v2\obj\zfp_lib_Debug\libada_drivers_library.a(nrf-interrupts.o)
 *fill*         0x0000000000006647        0x1 
 .rodata        0x0000000000006648       0xc6 C:\Users\xboxl\Documents\Github\Ada_Drivers_Library_j\boards\MicroBit_v2\obj\zfp_lib_Debug\libada_drivers_library.a(nrf-radio.o)
 *fill*         0x000000000000670e        0x2 
 .rodata        0x0000000000006710        0xc C:\Users\xboxl\Documents\Github\Ada_Drivers_Library_j\boards\MicroBit_v2\obj\zfp_lib_Debug\libada_drivers_library.a(nrf-rtc.o)
 .rodata        0x000000000000671c      0x1cd C:\Users\xboxl\Documents\Github\Ada_Drivers_Library_j\boards\MicroBit_v2\obj\zfp_lib_Debug\libada_drivers_library.a(nrf-spi_master.o)
 *fill*         0x00000000000068e9        0x3 
 .rodata.nrf__spi_master__spi_masterE26s
                0x00000000000068ec       0x1a C:\Users\xboxl\Documents\Github\Ada_Drivers_Library_j\boards\MicroBit_v2\obj\zfp_lib_Debug\libada_drivers_library.a(nrf-spi_master.o)
                0x00000000000068ec                nrf__spi_master__spi_masterE26s
 *fill*         0x0000000000006906        0x2 
 .rodata.nrf__spi_master__spi_masterB30s
                0x0000000000006908       0x20 C:\Users\xboxl\Documents\Github\Ada_Drivers_Library_j\boards\MicroBit_v2\obj\zfp_lib_Debug\libada_drivers_library.a(nrf-spi_master.o)
                0x0000000000006908                nrf__spi_master__spi_masterB30s
 .rodata.nrf__spi_master__spi_masterR28s___UNC
                0x0000000000006928       0x24 C:\Users\xboxl\Documents\Github\Ada_Drivers_Library_j\boards\MicroBit_v2\obj\zfp_lib_Debug\libada_drivers_library.a(nrf-spi_master.o)
                0x0000000000006928                nrf__spi_master__spi_masterR28s___UNC
 .rodata.nrf__spi_master__spi_masterT
                0x000000000000694c       0x38 C:\Users\xboxl\Documents\Github\Ada_Drivers_Library_j\boards\MicroBit_v2\obj\zfp_lib_Debug\libada_drivers_library.a(nrf-spi_master.o)
                0x000000000000694c                nrf__spi_master__spi_masterT
 .rodata        0x0000000000006984        0xe C:\Users\xboxl\Documents\Github\Ada_Drivers_Library_j\boards\MicroBit_v2\obj\zfp_lib_Debug\libada_drivers_library.a(nrf-tasks.o)
 *fill*         0x0000000000006992        0x2 
 .rodata        0x0000000000006994       0x54 C:\Users\xboxl\Documents\Github\Ada_Drivers_Library_j\boards\MicroBit_v2\obj\zfp_lib_Debug\libada_drivers_library.a(nrf-timers.o)
 .rodata.nrf__timers__timerE19s
                0x00000000000069e8       0x11 C:\Users\xboxl\Documents\Github\Ada_Drivers_Library_j\boards\MicroBit_v2\obj\zfp_lib_Debug\libada_drivers_library.a(nrf-timers.o)
                0x00000000000069e8                nrf__timers__timerE19s
 *fill*         0x00000000000069f9        0x3 
 .rodata.nrf__timers__timerB23s
                0x00000000000069fc       0x1c C:\Users\xboxl\Documents\Github\Ada_Drivers_Library_j\boards\MicroBit_v2\obj\zfp_lib_Debug\libada_drivers_library.a(nrf-timers.o)
                0x00000000000069fc                nrf__timers__timerB23s
 .rodata.nrf__timers__timerR21s___UNC
                0x0000000000006a18       0x24 C:\Users\xboxl\Documents\Github\Ada_Drivers_Library_j\boards\MicroBit_v2\obj\zfp_lib_Debug\libada_drivers_library.a(nrf-timers.o)
                0x0000000000006a18                nrf__timers__timerR21s___UNC
 .rodata.nrf__timers__timerT
                0x0000000000006a3c       0x5c C:\Users\xboxl\Documents\Github\Ada_Drivers_Library_j\boards\MicroBit_v2\obj\zfp_lib_Debug\libada_drivers_library.a(nrf-timers.o)
                0x0000000000006a3c                nrf__timers__timerT
 .rodata        0x0000000000006a98      0x103 C:\Users\xboxl\Documents\Github\Ada_Drivers_Library_j\boards\MicroBit_v2\obj\zfp_lib_Debug\libada_drivers_library.a(nrf-twi.o)
 *fill*         0x0000000000006b9b        0x1 
 .rodata.nrf__twi__twi_masterE23s
                0x0000000000006b9c       0x13 C:\Users\xboxl\Documents\Github\Ada_Drivers_Library_j\boards\MicroBit_v2\obj\zfp_lib_Debug\libada_drivers_library.a(nrf-twi.o)
                0x0000000000006b9c                nrf__twi__twi_masterE23s
 *fill*         0x0000000000006baf        0x1 
 .rodata.nrf__twi__twi_masterB27s
                0x0000000000006bb0       0x20 C:\Users\xboxl\Documents\Github\Ada_Drivers_Library_j\boards\MicroBit_v2\obj\zfp_lib_Debug\libada_drivers_library.a(nrf-twi.o)
                0x0000000000006bb0                nrf__twi__twi_masterB27s
 .rodata.nrf__twi__twi_masterR25s___UNC
                0x0000000000006bd0       0x24 C:\Users\xboxl\Documents\Github\Ada_Drivers_Library_j\boards\MicroBit_v2\obj\zfp_lib_Debug\libada_drivers_library.a(nrf-twi.o)
                0x0000000000006bd0                nrf__twi__twi_masterR25s___UNC
 .rodata.nrf__twi__twi_masterT
                0x0000000000006bf4       0x38 C:\Users\xboxl\Documents\Github\Ada_Drivers_Library_j\boards\MicroBit_v2\obj\zfp_lib_Debug\libada_drivers_library.a(nrf-twi.o)
                0x0000000000006bf4                nrf__twi__twi_masterT
 .rodata        0x0000000000006c2c       0xf6 C:\Users\xboxl\Documents\Github\Ada_Drivers_Library_j\boards\MicroBit_v2\obj\zfp_lib_Debug\libada_drivers_library.a(nrf-uart.o)
 *fill*         0x0000000000006d22        0x2 
 .rodata.nrf__uart__uart_deviceE45s
                0x0000000000006d24       0x15 C:\Users\xboxl\Documents\Github\Ada_Drivers_Library_j\boards\MicroBit_v2\obj\zfp_lib_Debug\libada_drivers_library.a(nrf-uart.o)
                0x0000000000006d24                nrf__uart__uart_deviceE45s
 *fill*         0x0000000000006d39        0x3 
 .rodata.nrf__uart__uart_deviceB49s
                0x0000000000006d3c       0x20 C:\Users\xboxl\Documents\Github\Ada_Drivers_Library_j\boards\MicroBit_v2\obj\zfp_lib_Debug\libada_drivers_library.a(nrf-uart.o)
                0x0000000000006d3c                nrf__uart__uart_deviceB49s
 .rodata.nrf__uart__uart_deviceR47s___UNC
                0x0000000000006d5c       0x24 C:\Users\xboxl\Documents\Github\Ada_Drivers_Library_j\boards\MicroBit_v2\obj\zfp_lib_Debug\libada_drivers_library.a(nrf-uart.o)
                0x0000000000006d5c                nrf__uart__uart_deviceR47s___UNC
 .rodata.nrf__uart__uart_deviceT
                0x0000000000006d80       0x38 C:\Users\xboxl\Documents\Github\Ada_Drivers_Library_j\boards\MicroBit_v2\obj\zfp_lib_Debug\libada_drivers_library.a(nrf-uart.o)
                0x0000000000006d80                nrf__uart__uart_deviceT
 .rodata.hal__gpio__gpio_pointE5s
                0x0000000000006db8       0x14 C:\Users\xboxl\Documents\Github\Ada_Drivers_Library_j\boards\MicroBit_v2\obj\zfp_lib_Debug\libada_drivers_library.a(hal-gpio.o)
                0x0000000000006db8                hal__gpio__gpio_pointE5s
 .rodata.hal__gpio__gpio_pointB9s
                0x0000000000006dcc       0x1c C:\Users\xboxl\Documents\Github\Ada_Drivers_Library_j\boards\MicroBit_v2\obj\zfp_lib_Debug\libada_drivers_library.a(hal-gpio.o)
                0x0000000000006dcc                hal__gpio__gpio_pointB9s
 .rodata.hal__gpio__gpio_pointT
                0x0000000000006de8        0x8 C:\Users\xboxl\Documents\Github\Ada_Drivers_Library_j\boards\MicroBit_v2\obj\zfp_lib_Debug\libada_drivers_library.a(hal-gpio.o)
                0x0000000000006de8                hal__gpio__gpio_pointT
 .rodata.hal__i2c__i2c_portE2s
                0x0000000000006df0       0x11 C:\Users\xboxl\Documents\Github\Ada_Drivers_Library_j\boards\MicroBit_v2\obj\zfp_lib_Debug\libada_drivers_library.a(hal-i2c.o)
                0x0000000000006df0                hal__i2c__i2c_portE2s
 *fill*         0x0000000000006e01        0x3 
 .rodata.hal__i2c__i2c_portB6s
                0x0000000000006e04       0x1c C:\Users\xboxl\Documents\Github\Ada_Drivers_Library_j\boards\MicroBit_v2\obj\zfp_lib_Debug\libada_drivers_library.a(hal-i2c.o)
                0x0000000000006e04                hal__i2c__i2c_portB6s
 .rodata.hal__i2c__i2c_portT
                0x0000000000006e20        0x8 C:\Users\xboxl\Documents\Github\Ada_Drivers_Library_j\boards\MicroBit_v2\obj\zfp_lib_Debug\libada_drivers_library.a(hal-i2c.o)
                0x0000000000006e20                hal__i2c__i2c_portT
 .rodata.hal__spi__spi_portE10s
                0x0000000000006e28       0x11 C:\Users\xboxl\Documents\Github\Ada_Drivers_Library_j\boards\MicroBit_v2\obj\zfp_lib_Debug\libada_drivers_library.a(hal-spi.o)
                0x0000000000006e28                hal__spi__spi_portE10s
 *fill*         0x0000000000006e39        0x3 
 .rodata.hal__spi__spi_portB14s
                0x0000000000006e3c       0x1c C:\Users\xboxl\Documents\Github\Ada_Drivers_Library_j\boards\MicroBit_v2\obj\zfp_lib_Debug\libada_drivers_library.a(hal-spi.o)
                0x0000000000006e3c                hal__spi__spi_portB14s
 .rodata.hal__spi__spi_portT
                0x0000000000006e58        0x8 C:\Users\xboxl\Documents\Github\Ada_Drivers_Library_j\boards\MicroBit_v2\obj\zfp_lib_Debug\libada_drivers_library.a(hal-spi.o)
                0x0000000000006e58                hal__spi__spi_portT
 .rodata.hal__time__delaysE2s
                0x0000000000006e60       0x10 C:\Users\xboxl\Documents\Github\Ada_Drivers_Library_j\boards\MicroBit_v2\obj\zfp_lib_Debug\libada_drivers_library.a(hal-time.o)
                0x0000000000006e60                hal__time__delaysE2s
 .rodata.hal__time__delaysB6s
                0x0000000000006e70       0x1c C:\Users\xboxl\Documents\Github\Ada_Drivers_Library_j\boards\MicroBit_v2\obj\zfp_lib_Debug\libada_drivers_library.a(hal-time.o)
                0x0000000000006e70                hal__time__delaysB6s
 .rodata.hal__time__delaysT
                0x0000000000006e8c        0x8 C:\Users\xboxl\Documents\Github\Ada_Drivers_Library_j\boards\MicroBit_v2\obj\zfp_lib_Debug\libada_drivers_library.a(hal-time.o)
                0x0000000000006e8c                hal__time__delaysT
 .rodata.hal__uart__uart_portE10s
                0x0000000000006e94       0x13 C:\Users\xboxl\Documents\Github\Ada_Drivers_Library_j\boards\MicroBit_v2\obj\zfp_lib_Debug\libada_drivers_library.a(hal-uart.o)
                0x0000000000006e94                hal__uart__uart_portE10s
 *fill*         0x0000000000006ea7        0x1 
 .rodata.hal__uart__uart_portB14s
                0x0000000000006ea8       0x1c C:\Users\xboxl\Documents\Github\Ada_Drivers_Library_j\boards\MicroBit_v2\obj\zfp_lib_Debug\libada_drivers_library.a(hal-uart.o)
                0x0000000000006ea8                hal__uart__uart_portB14s
 .rodata.hal__uart__uart_portT
                0x0000000000006ec4        0x8 C:\Users\xboxl\Documents\Github\Ada_Drivers_Library_j\boards\MicroBit_v2\obj\zfp_lib_Debug\libada_drivers_library.a(hal-uart.o)
                0x0000000000006ec4                hal__uart__uart_portT
 .rodata.__gnat_last_chance_handler.str1.4
                0x0000000000006ecc       0x5a C:\gnat\2021-arm-elf\arm-eabi\lib\gnat\zfp-cortex-m4f\adalib\libgnat.a(a-elchha.o)
 *fill*         0x0000000000006f26        0x2 
 .rodata        0x0000000000006f28       0x18 C:\gnat\2021-arm-elf\arm-eabi\lib\gnat\zfp-cortex-m4f\adalib\libgnat.a(a-elchha.o)
 .rodata.ada__exceptions__empty_c_string___UNC
                0x0000000000006f40        0xc C:\gnat\2021-arm-elf\arm-eabi\lib\gnat\zfp-cortex-m4f\adalib\libgnat.a(a-except.o)
                0x0000000000006f40                ada__exceptions__empty_c_string___UNC
                0x0000000000006f4c                . = ALIGN (0x4)
                0x0000000000006f4c                __rom_end = .
                0x0000000000006f4c                __data_load = LOADADDR (.data)

.rel.dyn        0x0000000000006f4c        0x0
 .rel.iplt      0x0000000000006f4c        0x0 main.o

.data           0x0000000020000000      0x2c8 load address 0x0000000000006f4c
                0x0000000020000000                __data_start = .
 *(.data .data.* .gnu.linkonce.d*)
 .data.cortex_m__nvic_E
                0x0000000020000000        0x2 C:\Users\xboxl\Documents\Github\Ada_Drivers_Library_j\boards\MicroBit_v2\obj\zfp_lib_Debug\libada_drivers_library.a(cortex_m-nvic.o)
                0x0000000020000000                cortex_m__nvic_E
 *fill*         0x0000000020000002        0xe 
 .data.argv     0x0000000020000010       0x18 C:\Users\xboxl\Documents\Github\Ada_Drivers_Library_j\boards\MicroBit_v2\obj\zfp_lib_Debug\libada_drivers_library.a(crt0.o)
 .data.memory_barriers_E
                0x0000000020000028        0x2 C:\Users\xboxl\Documents\Github\Ada_Drivers_Library_j\boards\MicroBit_v2\obj\zfp_lib_Debug\libada_drivers_library.a(memory_barriers.o)
                0x0000000020000028                memory_barriers_E
 .data.microbit__buttons_E
                0x000000002000002a        0x2 C:\Users\xboxl\Documents\Github\Ada_Drivers_Library_j\boards\MicroBit_v2\obj\zfp_lib_Debug\libada_drivers_library.a(microbit-buttons.o)
                0x000000002000002a                microbit__buttons_E
 .data.microbit__buttons__states
                0x000000002000002c        0x4 C:\Users\xboxl\Documents\Github\Ada_Drivers_Library_j\boards\MicroBit_v2\obj\zfp_lib_Debug\libada_drivers_library.a(microbit-buttons.o)
 .data.microbit__buttons__subscribers
                0x0000000020000030       0x28 C:\Users\xboxl\Documents\Github\Ada_Drivers_Library_j\boards\MicroBit_v2\obj\zfp_lib_Debug\libada_drivers_library.a(microbit-buttons.o)
 .data.microbit__console_E
                0x0000000020000058        0x2 C:\Users\xboxl\Documents\Github\Ada_Drivers_Library_j\boards\MicroBit_v2\obj\zfp_lib_Debug\libada_drivers_library.a(microbit-console.o)
                0x0000000020000058                microbit__console_E
 .data.microbit__display__symbols_E
                0x000000002000005a        0x2 C:\Users\xboxl\Documents\Github\Ada_Drivers_Library_j\boards\MicroBit_v2\obj\zfp_lib_Debug\libada_drivers_library.a(microbit-display-symbols.o)
                0x000000002000005a                microbit__display__symbols_E
 .data.microbit__display_E
                0x000000002000005c        0x2 C:\Users\xboxl\Documents\Github\Ada_Drivers_Library_j\boards\MicroBit_v2\obj\zfp_lib_Debug\libada_drivers_library.a(microbit-display.o)
                0x000000002000005c                microbit__display_E
 *fill*         0x000000002000005e        0x2 
 .data.microbit__display__animation_step_duration_ms
                0x0000000020000060        0x4 C:\Users\xboxl\Documents\Github\Ada_Drivers_Library_j\boards\MicroBit_v2\obj\zfp_lib_Debug\libada_drivers_library.a(microbit-display.o)
                0x0000000020000060                microbit__display__animation_step_duration_ms
 .data.microbit__display__animation_elapsed
                0x0000000020000064        0x4 C:\Users\xboxl\Documents\Github\Ada_Drivers_Library_j\boards\MicroBit_v2\obj\zfp_lib_Debug\libada_drivers_library.a(microbit-display.o)
                0x0000000020000064                microbit__display__animation_elapsed
 .data.microbit__display__animation_state
                0x0000000020000068        0x1 C:\Users\xboxl\Documents\Github\Ada_Drivers_Library_j\boards\MicroBit_v2\obj\zfp_lib_Debug\libada_drivers_library.a(microbit-display.o)
                0x0000000020000068                microbit__display__animation_state
 *fill*         0x0000000020000069        0x3 
 .data.microbit__display__current_x
                0x000000002000006c        0x4 C:\Users\xboxl\Documents\Github\Ada_Drivers_Library_j\boards\MicroBit_v2\obj\zfp_lib_Debug\libada_drivers_library.a(microbit-display.o)
                0x000000002000006c                microbit__display__current_x
 .data.microbit__display__current_y
                0x0000000020000070        0x4 C:\Users\xboxl\Documents\Github\Ada_Drivers_Library_j\boards\MicroBit_v2\obj\zfp_lib_Debug\libada_drivers_library.a(microbit-display.o)
                0x0000000020000070                microbit__display__current_y
 .data.microbit__display__scroll_text_length
                0x0000000020000074        0x4 C:\Users\xboxl\Documents\Github\Ada_Drivers_Library_j\boards\MicroBit_v2\obj\zfp_lib_Debug\libada_drivers_library.a(microbit-display.o)
                0x0000000020000074                microbit__display__scroll_text_length
 .data.microbit__display__scroll_text_index
                0x0000000020000078        0x4 C:\Users\xboxl\Documents\Github\Ada_Drivers_Library_j\boards\MicroBit_v2\obj\zfp_lib_Debug\libada_drivers_library.a(microbit-display.o)
                0x0000000020000078                microbit__display__scroll_text_index
 .data.microbit__display__scroll_position
                0x000000002000007c        0x4 C:\Users\xboxl\Documents\Github\Ada_Drivers_Library_j\boards\MicroBit_v2\obj\zfp_lib_Debug\libada_drivers_library.a(microbit-display.o)
                0x000000002000007c                microbit__display__scroll_position
 .data.microbit__display__bitmap
                0x0000000020000080       0x37 C:\Users\xboxl\Documents\Github\Ada_Drivers_Library_j\boards\MicroBit_v2\obj\zfp_lib_Debug\libada_drivers_library.a(microbit-display.o)
                0x0000000020000080                microbit__display__bitmap
 *fill*         0x00000000200000b7        0x1 
 .data.microbit__display__scroll_text_buffer
                0x00000000200000b8       0x80 C:\Users\xboxl\Documents\Github\Ada_Drivers_Library_j\boards\MicroBit_v2\obj\zfp_lib_Debug\libada_drivers_library.a(microbit-display.o)
                0x00000000200000b8                microbit__display__scroll_text_buffer
 .data.microbit__radio_E
                0x0000000020000138        0x2 C:\Users\xboxl\Documents\Github\Ada_Drivers_Library_j\boards\MicroBit_v2\obj\zfp_lib_Debug\libada_drivers_library.a(microbit-radio.o)
                0x0000000020000138                microbit__radio_E
 .data.microbit__time_E
                0x000000002000013a        0x2 C:\Users\xboxl\Documents\Github\Ada_Drivers_Library_j\boards\MicroBit_v2\obj\zfp_lib_Debug\libada_drivers_library.a(microbit-time.o)
                0x000000002000013a                microbit__time_E
 *fill*         0x000000002000013c        0x4 
 .data.microbit__time__clock_ms
                0x0000000020000140        0x8 C:\Users\xboxl\Documents\Github\Ada_Drivers_Library_j\boards\MicroBit_v2\obj\zfp_lib_Debug\libada_drivers_library.a(microbit-time.o)
 .data.microbit__time__subscribers
                0x0000000020000148       0x28 C:\Users\xboxl\Documents\Github\Ada_Drivers_Library_j\boards\MicroBit_v2\obj\zfp_lib_Debug\libada_drivers_library.a(microbit-time.o)
 .data.nrf__clock_E
                0x0000000020000170        0x2 C:\Users\xboxl\Documents\Github\Ada_Drivers_Library_j\boards\MicroBit_v2\obj\zfp_lib_Debug\libada_drivers_library.a(nrf-clock.o)
                0x0000000020000170                nrf__clock_E
 .data.nrf__device_E
                0x0000000020000172        0x2 C:\Users\xboxl\Documents\Github\Ada_Drivers_Library_j\boards\MicroBit_v2\obj\zfp_lib_Debug\libada_drivers_library.a(nrf-device.o)
                0x0000000020000172                nrf__device_E
 .data.nrf__events_E
                0x0000000020000174        0x2 C:\Users\xboxl\Documents\Github\Ada_Drivers_Library_j\boards\MicroBit_v2\obj\zfp_lib_Debug\libada_drivers_library.a(nrf-events.o)
                0x0000000020000174                nrf__events_E
 .data.nrf__gpio_E
                0x0000000020000176        0x2 C:\Users\xboxl\Documents\Github\Ada_Drivers_Library_j\boards\MicroBit_v2\obj\zfp_lib_Debug\libada_drivers_library.a(nrf-gpio.o)
                0x0000000020000176                nrf__gpio_E
 .data.nrf__interrupts_E
                0x0000000020000178        0x2 C:\Users\xboxl\Documents\Github\Ada_Drivers_Library_j\boards\MicroBit_v2\obj\zfp_lib_Debug\libada_drivers_library.a(nrf-interrupts.o)
                0x0000000020000178                nrf__interrupts_E
 *fill*         0x000000002000017a        0x2 
 .data.nrf__interrupts__handlers
                0x000000002000017c       0xc0 C:\Users\xboxl\Documents\Github\Ada_Drivers_Library_j\boards\MicroBit_v2\obj\zfp_lib_Debug\libada_drivers_library.a(nrf-interrupts.o)
 .data.nrf__radio_E
                0x000000002000023c        0x2 C:\Users\xboxl\Documents\Github\Ada_Drivers_Library_j\boards\MicroBit_v2\obj\zfp_lib_Debug\libada_drivers_library.a(nrf-radio.o)
                0x000000002000023c                nrf__radio_E
 .data.nrf__radio__isinit
                0x000000002000023e        0x1 C:\Users\xboxl\Documents\Github\Ada_Drivers_Library_j\boards\MicroBit_v2\obj\zfp_lib_Debug\libada_drivers_library.a(nrf-radio.o)
                0x000000002000023e                nrf__radio__isinit
 .data.nrf__radio__queuedepth
                0x000000002000023f        0x1 C:\Users\xboxl\Documents\Github\Ada_Drivers_Library_j\boards\MicroBit_v2\obj\zfp_lib_Debug\libada_drivers_library.a(nrf-radio.o)
                0x000000002000023f                nrf__radio__queuedepth
 .data.nrf__radio__rxbuf
                0x0000000020000240       0x25 C:\Users\xboxl\Documents\Github\Ada_Drivers_Library_j\boards\MicroBit_v2\obj\zfp_lib_Debug\libada_drivers_library.a(nrf-radio.o)
                0x0000000020000240                nrf__radio__rxbuf
 *fill*         0x0000000020000265        0x3 
 .data.nrf__radio__txbuf
                0x0000000020000268       0x25 C:\Users\xboxl\Documents\Github\Ada_Drivers_Library_j\boards\MicroBit_v2\obj\zfp_lib_Debug\libada_drivers_library.a(nrf-radio.o)
                0x0000000020000268                nrf__radio__txbuf
 *fill*         0x000000002000028d        0x3 
 .data.nrf__radio__safeframebuffer
                0x0000000020000290       0x25 C:\Users\xboxl\Documents\Github\Ada_Drivers_Library_j\boards\MicroBit_v2\obj\zfp_lib_Debug\libada_drivers_library.a(nrf-radio.o)
                0x0000000020000290                nrf__radio__safeframebuffer
 *fill*         0x00000000200002b5        0x1 
 .data.nrf__rtc_E
                0x00000000200002b6        0x2 C:\Users\xboxl\Documents\Github\Ada_Drivers_Library_j\boards\MicroBit_v2\obj\zfp_lib_Debug\libada_drivers_library.a(nrf-rtc.o)
                0x00000000200002b6                nrf__rtc_E
 .data.nrf__spi_master_E
                0x00000000200002b8        0x2 C:\Users\xboxl\Documents\Github\Ada_Drivers_Library_j\boards\MicroBit_v2\obj\zfp_lib_Debug\libada_drivers_library.a(nrf-spi_master.o)
                0x00000000200002b8                nrf__spi_master_E
 .data.nrf__tasks_E
                0x00000000200002ba        0x2 C:\Users\xboxl\Documents\Github\Ada_Drivers_Library_j\boards\MicroBit_v2\obj\zfp_lib_Debug\libada_drivers_library.a(nrf-tasks.o)
                0x00000000200002ba                nrf__tasks_E
 .data.nrf__timers_E
                0x00000000200002bc        0x2 C:\Users\xboxl\Documents\Github\Ada_Drivers_Library_j\boards\MicroBit_v2\obj\zfp_lib_Debug\libada_drivers_library.a(nrf-timers.o)
                0x00000000200002bc                nrf__timers_E
 .data.nrf__twi_E
                0x00000000200002be        0x2 C:\Users\xboxl\Documents\Github\Ada_Drivers_Library_j\boards\MicroBit_v2\obj\zfp_lib_Debug\libada_drivers_library.a(nrf-twi.o)
                0x00000000200002be                nrf__twi_E
 .data.nrf__uart_E
                0x00000000200002c0        0x2 C:\Users\xboxl\Documents\Github\Ada_Drivers_Library_j\boards\MicroBit_v2\obj\zfp_lib_Debug\libada_drivers_library.a(nrf-uart.o)
                0x00000000200002c0                nrf__uart_E
 .data.system__text_io__initialized
                0x00000000200002c2        0x1 C:\gnat\2021-arm-elf\arm-eabi\lib\gnat\zfp-cortex-m4f\adalib\libgnat.a(s-textio.o)
                0x00000000200002c2                system__text_io__initialized
 *fill*         0x00000000200002c3        0x1 
 .data.system__semihosting__buffer_index
                0x00000000200002c4        0x2 C:\gnat\2021-arm-elf\arm-eabi\lib\gnat\zfp-cortex-m4f\adalib\libgnat.a(s-semiho.o)
                0x00000000200002c8                . = ALIGN (0x4)
 *fill*         0x00000000200002c6        0x2 
                0x00000000200002c8                __data_end = .
                0x00000000000000b2                __data_words = ((__data_end - __data_start) >> 0x2)

.igot.plt       0x00000000200002c8        0x0 load address 0x0000000000007214
 .igot.plt      0x00000000200002c8        0x0 main.o

.bss            0x00000000200002c8     0x1508 load address 0x0000000000007214
                0x00000000200002c8                . = ALIGN (0x8)
                0x00000000200002c8                __bss_start = .
 *(.bss .bss.*)
 .bss           0x00000000200002c8      0x210 b__main.o
 .bss.microbit__buttons__points
                0x00000000200004d8       0x18 C:\Users\xboxl\Documents\Github\Ada_Drivers_Library_j\boards\MicroBit_v2\obj\zfp_lib_Debug\libada_drivers_library.a(microbit-buttons.o)
 .bss.microbit__display__row_points
                0x00000000200004f0       0x28 C:\Users\xboxl\Documents\Github\Ada_Drivers_Library_j\boards\MicroBit_v2\obj\zfp_lib_Debug\libada_drivers_library.a(microbit-display.o)
                0x00000000200004f0                microbit__display__row_points
 .bss.microbit__display__column_points
                0x0000000020000518       0x28 C:\Users\xboxl\Documents\Github\Ada_Drivers_Library_j\boards\MicroBit_v2\obj\zfp_lib_Debug\libada_drivers_library.a(microbit-display.o)
                0x0000000020000518                microbit__display__column_points
 .bss.microbit__radio__frequency
                0x0000000020000540        0x2 C:\Users\xboxl\Documents\Github\Ada_Drivers_Library_j\boards\MicroBit_v2\obj\zfp_lib_Debug\libada_drivers_library.a(microbit-radio.o)
                0x0000000020000540                microbit__radio__frequency
 .bss.microbit__radio__headerlength
                0x0000000020000542        0x1 C:\Users\xboxl\Documents\Github\Ada_Drivers_Library_j\boards\MicroBit_v2\obj\zfp_lib_Debug\libada_drivers_library.a(microbit-radio.o)
                0x0000000020000542                microbit__radio__headerlength
 .bss.microbit__radio__headerversion
                0x0000000020000543        0x1 C:\Users\xboxl\Documents\Github\Ada_Drivers_Library_j\boards\MicroBit_v2\obj\zfp_lib_Debug\libada_drivers_library.a(microbit-radio.o)
                0x0000000020000543                microbit__radio__headerversion
 .bss.microbit__radio__headergroup
                0x0000000020000544        0x1 C:\Users\xboxl\Documents\Github\Ada_Drivers_Library_j\boards\MicroBit_v2\obj\zfp_lib_Debug\libada_drivers_library.a(microbit-radio.o)
                0x0000000020000544                microbit__radio__headergroup
 .bss.microbit__radio__headerprotocol
                0x0000000020000545        0x1 C:\Users\xboxl\Documents\Github\Ada_Drivers_Library_j\boards\MicroBit_v2\obj\zfp_lib_Debug\libada_drivers_library.a(microbit-radio.o)
                0x0000000020000545                microbit__radio__headerprotocol
 *fill*         0x0000000020000546        0x2 
 .bss.microbit__time__delay_instance
                0x0000000020000548        0x4 C:\Users\xboxl\Documents\Github\Ada_Drivers_Library_j\boards\MicroBit_v2\obj\zfp_lib_Debug\libada_drivers_library.a(microbit-time.o)
 .bss.nrf__device__fe0_is_six
                0x000000002000054c        0x1 C:\Users\xboxl\Documents\Github\Ada_Drivers_Library_j\boards\MicroBit_v2\obj\zfp_lib_Debug\libada_drivers_library.a(nrf-device.o)
 .bss.nrf__device__fe4_is_zero
                0x000000002000054d        0x1 C:\Users\xboxl\Documents\Github\Ada_Drivers_Library_j\boards\MicroBit_v2\obj\zfp_lib_Debug\libada_drivers_library.a(nrf-device.o)
 *fill*         0x000000002000054e        0x2 
 .bss.nrf__device__p00
                0x0000000020000550        0x8 C:\Users\xboxl\Documents\Github\Ada_Drivers_Library_j\boards\MicroBit_v2\obj\zfp_lib_Debug\libada_drivers_library.a(nrf-device.o)
                0x0000000020000550                nrf__device__p00
 .bss.nrf__device__p01
                0x0000000020000558        0x8 C:\Users\xboxl\Documents\Github\Ada_Drivers_Library_j\boards\MicroBit_v2\obj\zfp_lib_Debug\libada_drivers_library.a(nrf-device.o)
                0x0000000020000558                nrf__device__p01
 .bss.nrf__device__p02
                0x0000000020000560        0x8 C:\Users\xboxl\Documents\Github\Ada_Drivers_Library_j\boards\MicroBit_v2\obj\zfp_lib_Debug\libada_drivers_library.a(nrf-device.o)
                0x0000000020000560                nrf__device__p02
 .bss.nrf__device__p03
                0x0000000020000568        0x8 C:\Users\xboxl\Documents\Github\Ada_Drivers_Library_j\boards\MicroBit_v2\obj\zfp_lib_Debug\libada_drivers_library.a(nrf-device.o)
                0x0000000020000568                nrf__device__p03
 .bss.nrf__device__p04
                0x0000000020000570        0x8 C:\Users\xboxl\Documents\Github\Ada_Drivers_Library_j\boards\MicroBit_v2\obj\zfp_lib_Debug\libada_drivers_library.a(nrf-device.o)
                0x0000000020000570                nrf__device__p04
 .bss.nrf__device__p05
                0x0000000020000578        0x8 C:\Users\xboxl\Documents\Github\Ada_Drivers_Library_j\boards\MicroBit_v2\obj\zfp_lib_Debug\libada_drivers_library.a(nrf-device.o)
                0x0000000020000578                nrf__device__p05
 .bss.nrf__device__p06
                0x0000000020000580        0x8 C:\Users\xboxl\Documents\Github\Ada_Drivers_Library_j\boards\MicroBit_v2\obj\zfp_lib_Debug\libada_drivers_library.a(nrf-device.o)
                0x0000000020000580                nrf__device__p06
 .bss.nrf__device__p07
                0x0000000020000588        0x8 C:\Users\xboxl\Documents\Github\Ada_Drivers_Library_j\boards\MicroBit_v2\obj\zfp_lib_Debug\libada_drivers_library.a(nrf-device.o)
                0x0000000020000588                nrf__device__p07
 .bss.nrf__device__p08
                0x0000000020000590        0x8 C:\Users\xboxl\Documents\Github\Ada_Drivers_Library_j\boards\MicroBit_v2\obj\zfp_lib_Debug\libada_drivers_library.a(nrf-device.o)
                0x0000000020000590                nrf__device__p08
 .bss.nrf__device__p09
                0x0000000020000598        0x8 C:\Users\xboxl\Documents\Github\Ada_Drivers_Library_j\boards\MicroBit_v2\obj\zfp_lib_Debug\libada_drivers_library.a(nrf-device.o)
                0x0000000020000598                nrf__device__p09
 .bss.nrf__device__p10
                0x00000000200005a0        0x8 C:\Users\xboxl\Documents\Github\Ada_Drivers_Library_j\boards\MicroBit_v2\obj\zfp_lib_Debug\libada_drivers_library.a(nrf-device.o)
                0x00000000200005a0                nrf__device__p10
 .bss.nrf__device__p11
                0x00000000200005a8        0x8 C:\Users\xboxl\Documents\Github\Ada_Drivers_Library_j\boards\MicroBit_v2\obj\zfp_lib_Debug\libada_drivers_library.a(nrf-device.o)
                0x00000000200005a8                nrf__device__p11
 .bss.nrf__device__p12
                0x00000000200005b0        0x8 C:\Users\xboxl\Documents\Github\Ada_Drivers_Library_j\boards\MicroBit_v2\obj\zfp_lib_Debug\libada_drivers_library.a(nrf-device.o)
                0x00000000200005b0                nrf__device__p12
 .bss.nrf__device__p13
                0x00000000200005b8        0x8 C:\Users\xboxl\Documents\Github\Ada_Drivers_Library_j\boards\MicroBit_v2\obj\zfp_lib_Debug\libada_drivers_library.a(nrf-device.o)
                0x00000000200005b8                nrf__device__p13
 .bss.nrf__device__p14
                0x00000000200005c0        0x8 C:\Users\xboxl\Documents\Github\Ada_Drivers_Library_j\boards\MicroBit_v2\obj\zfp_lib_Debug\libada_drivers_library.a(nrf-device.o)
                0x00000000200005c0                nrf__device__p14
 .bss.nrf__device__p15
                0x00000000200005c8        0x8 C:\Users\xboxl\Documents\Github\Ada_Drivers_Library_j\boards\MicroBit_v2\obj\zfp_lib_Debug\libada_drivers_library.a(nrf-device.o)
                0x00000000200005c8                nrf__device__p15
 .bss.nrf__device__p16
                0x00000000200005d0        0x8 C:\Users\xboxl\Documents\Github\Ada_Drivers_Library_j\boards\MicroBit_v2\obj\zfp_lib_Debug\libada_drivers_library.a(nrf-device.o)
                0x00000000200005d0                nrf__device__p16
 .bss.nrf__device__p17
                0x00000000200005d8        0x8 C:\Users\xboxl\Documents\Github\Ada_Drivers_Library_j\boards\MicroBit_v2\obj\zfp_lib_Debug\libada_drivers_library.a(nrf-device.o)
                0x00000000200005d8                nrf__device__p17
 .bss.nrf__device__p18
                0x00000000200005e0        0x8 C:\Users\xboxl\Documents\Github\Ada_Drivers_Library_j\boards\MicroBit_v2\obj\zfp_lib_Debug\libada_drivers_library.a(nrf-device.o)
                0x00000000200005e0                nrf__device__p18
 .bss.nrf__device__p19
                0x00000000200005e8        0x8 C:\Users\xboxl\Documents\Github\Ada_Drivers_Library_j\boards\MicroBit_v2\obj\zfp_lib_Debug\libada_drivers_library.a(nrf-device.o)
                0x00000000200005e8                nrf__device__p19
 .bss.nrf__device__p20
                0x00000000200005f0        0x8 C:\Users\xboxl\Documents\Github\Ada_Drivers_Library_j\boards\MicroBit_v2\obj\zfp_lib_Debug\libada_drivers_library.a(nrf-device.o)
                0x00000000200005f0                nrf__device__p20
 .bss.nrf__device__p21
                0x00000000200005f8        0x8 C:\Users\xboxl\Documents\Github\Ada_Drivers_Library_j\boards\MicroBit_v2\obj\zfp_lib_Debug\libada_drivers_library.a(nrf-device.o)
                0x00000000200005f8                nrf__device__p21
 .bss.nrf__device__p22
                0x0000000020000600        0x8 C:\Users\xboxl\Documents\Github\Ada_Drivers_Library_j\boards\MicroBit_v2\obj\zfp_lib_Debug\libada_drivers_library.a(nrf-device.o)
                0x0000000020000600                nrf__device__p22
 .bss.nrf__device__p23
                0x0000000020000608        0x8 C:\Users\xboxl\Documents\Github\Ada_Drivers_Library_j\boards\MicroBit_v2\obj\zfp_lib_Debug\libada_drivers_library.a(nrf-device.o)
                0x0000000020000608                nrf__device__p23
 .bss.nrf__device__p24
                0x0000000020000610        0x8 C:\Users\xboxl\Documents\Github\Ada_Drivers_Library_j\boards\MicroBit_v2\obj\zfp_lib_Debug\libada_drivers_library.a(nrf-device.o)
                0x0000000020000610                nrf__device__p24
 .bss.nrf__device__p25
                0x0000000020000618        0x8 C:\Users\xboxl\Documents\Github\Ada_Drivers_Library_j\boards\MicroBit_v2\obj\zfp_lib_Debug\libada_drivers_library.a(nrf-device.o)
                0x0000000020000618                nrf__device__p25
 .bss.nrf__device__p26
                0x0000000020000620        0x8 C:\Users\xboxl\Documents\Github\Ada_Drivers_Library_j\boards\MicroBit_v2\obj\zfp_lib_Debug\libada_drivers_library.a(nrf-device.o)
                0x0000000020000620                nrf__device__p26
 .bss.nrf__device__p27
                0x0000000020000628        0x8 C:\Users\xboxl\Documents\Github\Ada_Drivers_Library_j\boards\MicroBit_v2\obj\zfp_lib_Debug\libada_drivers_library.a(nrf-device.o)
                0x0000000020000628                nrf__device__p27
 .bss.nrf__device__p28
                0x0000000020000630        0x8 C:\Users\xboxl\Documents\Github\Ada_Drivers_Library_j\boards\MicroBit_v2\obj\zfp_lib_Debug\libada_drivers_library.a(nrf-device.o)
                0x0000000020000630                nrf__device__p28
 .bss.nrf__device__p29
                0x0000000020000638        0x8 C:\Users\xboxl\Documents\Github\Ada_Drivers_Library_j\boards\MicroBit_v2\obj\zfp_lib_Debug\libada_drivers_library.a(nrf-device.o)
                0x0000000020000638                nrf__device__p29
 .bss.nrf__device__p30
                0x0000000020000640        0x8 C:\Users\xboxl\Documents\Github\Ada_Drivers_Library_j\boards\MicroBit_v2\obj\zfp_lib_Debug\libada_drivers_library.a(nrf-device.o)
                0x0000000020000640                nrf__device__p30
 .bss.nrf__device__p31
                0x0000000020000648        0x8 C:\Users\xboxl\Documents\Github\Ada_Drivers_Library_j\boards\MicroBit_v2\obj\zfp_lib_Debug\libada_drivers_library.a(nrf-device.o)
                0x0000000020000648                nrf__device__p31
 .bss.nrf__device__p32
                0x0000000020000650        0x8 C:\Users\xboxl\Documents\Github\Ada_Drivers_Library_j\boards\MicroBit_v2\obj\zfp_lib_Debug\libada_drivers_library.a(nrf-device.o)
                0x0000000020000650                nrf__device__p32
 .bss.nrf__device__p33
                0x0000000020000658        0x8 C:\Users\xboxl\Documents\Github\Ada_Drivers_Library_j\boards\MicroBit_v2\obj\zfp_lib_Debug\libada_drivers_library.a(nrf-device.o)
                0x0000000020000658                nrf__device__p33
 .bss.nrf__device__p34
                0x0000000020000660        0x8 C:\Users\xboxl\Documents\Github\Ada_Drivers_Library_j\boards\MicroBit_v2\obj\zfp_lib_Debug\libada_drivers_library.a(nrf-device.o)
                0x0000000020000660                nrf__device__p34
 .bss.nrf__device__p35
                0x0000000020000668        0x8 C:\Users\xboxl\Documents\Github\Ada_Drivers_Library_j\boards\MicroBit_v2\obj\zfp_lib_Debug\libada_drivers_library.a(nrf-device.o)
                0x0000000020000668                nrf__device__p35
 .bss.nrf__device__p36
                0x0000000020000670        0x8 C:\Users\xboxl\Documents\Github\Ada_Drivers_Library_j\boards\MicroBit_v2\obj\zfp_lib_Debug\libada_drivers_library.a(nrf-device.o)
                0x0000000020000670                nrf__device__p36
 .bss.nrf__device__p37
                0x0000000020000678        0x8 C:\Users\xboxl\Documents\Github\Ada_Drivers_Library_j\boards\MicroBit_v2\obj\zfp_lib_Debug\libada_drivers_library.a(nrf-device.o)
                0x0000000020000678                nrf__device__p37
 .bss.nrf__device__p38
                0x0000000020000680        0x8 C:\Users\xboxl\Documents\Github\Ada_Drivers_Library_j\boards\MicroBit_v2\obj\zfp_lib_Debug\libada_drivers_library.a(nrf-device.o)
                0x0000000020000680                nrf__device__p38
 .bss.nrf__device__p39
                0x0000000020000688        0x8 C:\Users\xboxl\Documents\Github\Ada_Drivers_Library_j\boards\MicroBit_v2\obj\zfp_lib_Debug\libada_drivers_library.a(nrf-device.o)
                0x0000000020000688                nrf__device__p39
 .bss.nrf__device__p40
                0x0000000020000690        0x8 C:\Users\xboxl\Documents\Github\Ada_Drivers_Library_j\boards\MicroBit_v2\obj\zfp_lib_Debug\libada_drivers_library.a(nrf-device.o)
                0x0000000020000690                nrf__device__p40
 .bss.nrf__device__p41
                0x0000000020000698        0x8 C:\Users\xboxl\Documents\Github\Ada_Drivers_Library_j\boards\MicroBit_v2\obj\zfp_lib_Debug\libada_drivers_library.a(nrf-device.o)
                0x0000000020000698                nrf__device__p41
 .bss.nrf__device__p42
                0x00000000200006a0        0x8 C:\Users\xboxl\Documents\Github\Ada_Drivers_Library_j\boards\MicroBit_v2\obj\zfp_lib_Debug\libada_drivers_library.a(nrf-device.o)
                0x00000000200006a0                nrf__device__p42
 .bss.nrf__device__p43
                0x00000000200006a8        0x8 C:\Users\xboxl\Documents\Github\Ada_Drivers_Library_j\boards\MicroBit_v2\obj\zfp_lib_Debug\libada_drivers_library.a(nrf-device.o)
                0x00000000200006a8                nrf__device__p43
 .bss.nrf__device__p44
                0x00000000200006b0        0x8 C:\Users\xboxl\Documents\Github\Ada_Drivers_Library_j\boards\MicroBit_v2\obj\zfp_lib_Debug\libada_drivers_library.a(nrf-device.o)
                0x00000000200006b0                nrf__device__p44
 .bss.nrf__device__p45
                0x00000000200006b8        0x8 C:\Users\xboxl\Documents\Github\Ada_Drivers_Library_j\boards\MicroBit_v2\obj\zfp_lib_Debug\libada_drivers_library.a(nrf-device.o)
                0x00000000200006b8                nrf__device__p45
 .bss.nrf__device__p46
                0x00000000200006c0        0x8 C:\Users\xboxl\Documents\Github\Ada_Drivers_Library_j\boards\MicroBit_v2\obj\zfp_lib_Debug\libada_drivers_library.a(nrf-device.o)
                0x00000000200006c0                nrf__device__p46
 .bss.nrf__device__p47
                0x00000000200006c8        0x8 C:\Users\xboxl\Documents\Github\Ada_Drivers_Library_j\boards\MicroBit_v2\obj\zfp_lib_Debug\libada_drivers_library.a(nrf-device.o)
                0x00000000200006c8                nrf__device__p47
 .bss.nrf__device__rtc_0
                0x00000000200006d0        0x4 C:\Users\xboxl\Documents\Github\Ada_Drivers_Library_j\boards\MicroBit_v2\obj\zfp_lib_Debug\libada_drivers_library.a(nrf-device.o)
                0x00000000200006d0                nrf__device__rtc_0
 .bss.nrf__device__rtc_1
                0x00000000200006d4        0x4 C:\Users\xboxl\Documents\Github\Ada_Drivers_Library_j\boards\MicroBit_v2\obj\zfp_lib_Debug\libada_drivers_library.a(nrf-device.o)
                0x00000000200006d4                nrf__device__rtc_1
 .bss.nrf__device__rtc_2
                0x00000000200006d8        0x4 C:\Users\xboxl\Documents\Github\Ada_Drivers_Library_j\boards\MicroBit_v2\obj\zfp_lib_Debug\libada_drivers_library.a(nrf-device.o)
                0x00000000200006d8                nrf__device__rtc_2
 .bss.nrf__device__twi_0
                0x00000000200006dc        0xc C:\Users\xboxl\Documents\Github\Ada_Drivers_Library_j\boards\MicroBit_v2\obj\zfp_lib_Debug\libada_drivers_library.a(nrf-device.o)
                0x00000000200006dc                nrf__device__twi_0
 .bss.nrf__device__twi_1
                0x00000000200006e8        0xc C:\Users\xboxl\Documents\Github\Ada_Drivers_Library_j\boards\MicroBit_v2\obj\zfp_lib_Debug\libada_drivers_library.a(nrf-device.o)
                0x00000000200006e8                nrf__device__twi_1
 .bss.nrf__device__spi_master_0
                0x00000000200006f4        0x8 C:\Users\xboxl\Documents\Github\Ada_Drivers_Library_j\boards\MicroBit_v2\obj\zfp_lib_Debug\libada_drivers_library.a(nrf-device.o)
                0x00000000200006f4                nrf__device__spi_master_0
 .bss.nrf__device__spi_master_1
                0x00000000200006fc        0x8 C:\Users\xboxl\Documents\Github\Ada_Drivers_Library_j\boards\MicroBit_v2\obj\zfp_lib_Debug\libada_drivers_library.a(nrf-device.o)
                0x00000000200006fc                nrf__device__spi_master_1
 .bss.nrf__device__spi_master_2
                0x0000000020000704        0x8 C:\Users\xboxl\Documents\Github\Ada_Drivers_Library_j\boards\MicroBit_v2\obj\zfp_lib_Debug\libada_drivers_library.a(nrf-device.o)
                0x0000000020000704                nrf__device__spi_master_2
 .bss.nrf__device__timer_0
                0x000000002000070c        0x8 C:\Users\xboxl\Documents\Github\Ada_Drivers_Library_j\boards\MicroBit_v2\obj\zfp_lib_Debug\libada_drivers_library.a(nrf-device.o)
                0x000000002000070c                nrf__device__timer_0
 .bss.nrf__device__timer_1
                0x0000000020000714        0x8 C:\Users\xboxl\Documents\Github\Ada_Drivers_Library_j\boards\MicroBit_v2\obj\zfp_lib_Debug\libada_drivers_library.a(nrf-device.o)
                0x0000000020000714                nrf__device__timer_1
 .bss.nrf__device__timer_2
                0x000000002000071c        0x8 C:\Users\xboxl\Documents\Github\Ada_Drivers_Library_j\boards\MicroBit_v2\obj\zfp_lib_Debug\libada_drivers_library.a(nrf-device.o)
                0x000000002000071c                nrf__device__timer_2
 .bss.nrf__device__timer_3
                0x0000000020000724        0x8 C:\Users\xboxl\Documents\Github\Ada_Drivers_Library_j\boards\MicroBit_v2\obj\zfp_lib_Debug\libada_drivers_library.a(nrf-device.o)
                0x0000000020000724                nrf__device__timer_3
 .bss.nrf__device__timer_4
                0x000000002000072c        0x8 C:\Users\xboxl\Documents\Github\Ada_Drivers_Library_j\boards\MicroBit_v2\obj\zfp_lib_Debug\libada_drivers_library.a(nrf-device.o)
                0x000000002000072c                nrf__device__timer_4
 .bss.nrf__device__uart_0
                0x0000000020000734        0xc C:\Users\xboxl\Documents\Github\Ada_Drivers_Library_j\boards\MicroBit_v2\obj\zfp_lib_Debug\libada_drivers_library.a(nrf-device.o)
                0x0000000020000734                nrf__device__uart_0
 .bss.nrf__radio__rssi
                0x0000000020000740        0x1 C:\Users\xboxl\Documents\Github\Ada_Drivers_Library_j\boards\MicroBit_v2\obj\zfp_lib_Debug\libada_drivers_library.a(nrf-radio.o)
                0x0000000020000740                nrf__radio__rssi
 *fill*         0x0000000020000741        0x3 
 .bss.__gnat_binder_ss_count
                0x0000000020000744        0x4 C:\gnat\2021-arm-elf\arm-eabi\lib\gnat\zfp-cortex-m4f\adalib\libgnat.a(s-secsta.o)
                0x0000000020000744                __gnat_binder_ss_count
 .bss.__gnat_default_ss_pool
                0x0000000020000748        0x4 C:\gnat\2021-arm-elf\arm-eabi\lib\gnat\zfp-cortex-m4f\adalib\libgnat.a(s-secsta.o)
                0x0000000020000748                __gnat_default_ss_pool
 .bss.__gnat_default_ss_size
                0x000000002000074c        0x4 C:\gnat\2021-arm-elf\arm-eabi\lib\gnat\zfp-cortex-m4f\adalib\libgnat.a(s-secsta.o)
                0x000000002000074c                __gnat_default_ss_size
 .bss.system__semihosting__buffer
                0x0000000020000750       0x80 C:\gnat\2021-arm-elf\arm-eabi\lib\gnat\zfp-cortex-m4f\adalib\libgnat.a(s-semiho.o)
 *(COMMON)
                0x00000000200007d0                . = ALIGN (0x8)
                0x00000000200007d0                __bss_end = .
                0x00000000200007d0                __interrupt_stack_start = .
 *(.interrupt_stacks)
                0x00000000200007d0                . = ALIGN (0x8)
                0x00000000200007d0                __interrupt_stack_end = .
                0x00000000200007d0                __stack_start = .
                0x00000000200017d0                . = (. + DEFINED (__stack_size)?__stack_size:_DEFAULT_STACK_SIZE)
 *fill*         0x00000000200007d0     0x1000 
                0x00000000200017d0                . = ALIGN (0x8)
                0x00000000200017d0                __stack_end = .
                0x00000000200017d0                _end = .
                0x00000000200017d0                __heap_start = .
                0x0000000020020000                __heap_end = (ORIGIN (ram) + LENGTH (ram))
                0x0000000000000142                __bss_words = ((__bss_end - __bss_start) >> 0x2)

.debug
 *(.debug)

.line
 *(.line)

.debug_srcinfo
 *(.debug_srcinfo)

.debug_sfnames
 *(.debug_sfnames)

.debug_aranges  0x0000000000000000      0x9d8
 *(.debug_aranges)
 .debug_aranges
                0x0000000000000000       0x20 main.o
 .debug_aranges
                0x0000000000000020       0x20 b__main.o
 .debug_aranges
                0x0000000000000040       0x78 C:\Users\xboxl\Documents\Github\Ada_Drivers_Library_j\boards\MicroBit_v2\obj\zfp_lib_Debug\libada_drivers_library.a(cortex_m-nvic.o)
 .debug_aranges
                0x00000000000000b8       0x20 C:\Users\xboxl\Documents\Github\Ada_Drivers_Library_j\boards\MicroBit_v2\obj\zfp_lib_Debug\libada_drivers_library.a(memory_barriers.o)
 .debug_aranges
                0x00000000000000d8       0x48 C:\Users\xboxl\Documents\Github\Ada_Drivers_Library_j\boards\MicroBit_v2\obj\zfp_lib_Debug\libada_drivers_library.a(microbit-buttons.o)
 .debug_aranges
                0x0000000000000120       0x48 C:\Users\xboxl\Documents\Github\Ada_Drivers_Library_j\boards\MicroBit_v2\obj\zfp_lib_Debug\libada_drivers_library.a(microbit-console.o)
 .debug_aranges
                0x0000000000000168       0x60 C:\Users\xboxl\Documents\Github\Ada_Drivers_Library_j\boards\MicroBit_v2\obj\zfp_lib_Debug\libada_drivers_library.a(microbit-display-symbols.o)
 .debug_aranges
                0x00000000000001c8       0x88 C:\Users\xboxl\Documents\Github\Ada_Drivers_Library_j\boards\MicroBit_v2\obj\zfp_lib_Debug\libada_drivers_library.a(microbit-display.o)
 .debug_aranges
                0x0000000000000250       0x78 C:\Users\xboxl\Documents\Github\Ada_Drivers_Library_j\boards\MicroBit_v2\obj\zfp_lib_Debug\libada_drivers_library.a(microbit-radio.o)
 .debug_aranges
                0x00000000000002c8       0x98 C:\Users\xboxl\Documents\Github\Ada_Drivers_Library_j\boards\MicroBit_v2\obj\zfp_lib_Debug\libada_drivers_library.a(microbit-time.o)
 .debug_aranges
                0x0000000000000360       0x70 C:\Users\xboxl\Documents\Github\Ada_Drivers_Library_j\boards\MicroBit_v2\obj\zfp_lib_Debug\libada_drivers_library.a(nrf-clock.o)
 .debug_aranges
                0x00000000000003d0       0x80 C:\Users\xboxl\Documents\Github\Ada_Drivers_Library_j\boards\MicroBit_v2\obj\zfp_lib_Debug\libada_drivers_library.a(nrf-device.o)
 .debug_aranges
                0x0000000000000450       0x48 C:\Users\xboxl\Documents\Github\Ada_Drivers_Library_j\boards\MicroBit_v2\obj\zfp_lib_Debug\libada_drivers_library.a(nrf-events.o)
 .debug_aranges
                0x0000000000000498       0x68 C:\Users\xboxl\Documents\Github\Ada_Drivers_Library_j\boards\MicroBit_v2\obj\zfp_lib_Debug\libada_drivers_library.a(nrf-gpio.o)
 .debug_aranges
                0x0000000000000500       0x48 C:\Users\xboxl\Documents\Github\Ada_Drivers_Library_j\boards\MicroBit_v2\obj\zfp_lib_Debug\libada_drivers_library.a(nrf-interrupts.o)
 .debug_aranges
                0x0000000000000548       0xf8 C:\Users\xboxl\Documents\Github\Ada_Drivers_Library_j\boards\MicroBit_v2\obj\zfp_lib_Debug\libada_drivers_library.a(nrf-radio.o)
 .debug_aranges
                0x0000000000000640       0x60 C:\Users\xboxl\Documents\Github\Ada_Drivers_Library_j\boards\MicroBit_v2\obj\zfp_lib_Debug\libada_drivers_library.a(nrf-rtc.o)
 .debug_aranges
                0x00000000000006a0       0x78 C:\Users\xboxl\Documents\Github\Ada_Drivers_Library_j\boards\MicroBit_v2\obj\zfp_lib_Debug\libada_drivers_library.a(nrf-spi_master.o)
 .debug_aranges
                0x0000000000000718       0x30 C:\Users\xboxl\Documents\Github\Ada_Drivers_Library_j\boards\MicroBit_v2\obj\zfp_lib_Debug\libada_drivers_library.a(nrf-tasks.o)
 .debug_aranges
                0x0000000000000748       0xb8 C:\Users\xboxl\Documents\Github\Ada_Drivers_Library_j\boards\MicroBit_v2\obj\zfp_lib_Debug\libada_drivers_library.a(nrf-timers.o)
 .debug_aranges
                0x0000000000000800       0x70 C:\Users\xboxl\Documents\Github\Ada_Drivers_Library_j\boards\MicroBit_v2\obj\zfp_lib_Debug\libada_drivers_library.a(nrf-twi.o)
 .debug_aranges
                0x0000000000000870       0x68 C:\Users\xboxl\Documents\Github\Ada_Drivers_Library_j\boards\MicroBit_v2\obj\zfp_lib_Debug\libada_drivers_library.a(nrf-uart.o)
 .debug_aranges
                0x00000000000008d8       0x18 C:\Users\xboxl\Documents\Github\Ada_Drivers_Library_j\boards\MicroBit_v2\obj\zfp_lib_Debug\libada_drivers_library.a(nrf_svd-gpio.o)
 .debug_aranges
                0x00000000000008f0       0x18 C:\Users\xboxl\Documents\Github\Ada_Drivers_Library_j\boards\MicroBit_v2\obj\zfp_lib_Debug\libada_drivers_library.a(nrf_svd-radio.o)
 .debug_aranges
                0x0000000000000908       0x18 C:\Users\xboxl\Documents\Github\Ada_Drivers_Library_j\boards\MicroBit_v2\obj\zfp_lib_Debug\libada_drivers_library.a(nrf_svd-twi.o)
 .debug_aranges
                0x0000000000000920       0x18 C:\Users\xboxl\Documents\Github\Ada_Drivers_Library_j\boards\MicroBit_v2\obj\zfp_lib_Debug\libada_drivers_library.a(hal-gpio.o)
 .debug_aranges
                0x0000000000000938       0x18 C:\Users\xboxl\Documents\Github\Ada_Drivers_Library_j\boards\MicroBit_v2\obj\zfp_lib_Debug\libada_drivers_library.a(hal-i2c.o)
 .debug_aranges
                0x0000000000000950       0x18 C:\Users\xboxl\Documents\Github\Ada_Drivers_Library_j\boards\MicroBit_v2\obj\zfp_lib_Debug\libada_drivers_library.a(hal-spi.o)
 .debug_aranges
                0x0000000000000968       0x18 C:\Users\xboxl\Documents\Github\Ada_Drivers_Library_j\boards\MicroBit_v2\obj\zfp_lib_Debug\libada_drivers_library.a(hal-time.o)
 .debug_aranges
                0x0000000000000980       0x18 C:\Users\xboxl\Documents\Github\Ada_Drivers_Library_j\boards\MicroBit_v2\obj\zfp_lib_Debug\libada_drivers_library.a(hal-uart.o)
 .debug_aranges
                0x0000000000000998       0x20 C:\gnat\2021-arm-elf\arm-eabi\lib\gnat\zfp-cortex-m4f\adalib\libgnat.a(s-assert.o)
 .debug_aranges
                0x00000000000009b8       0x20 C:\gnat\2021-arm-elf\arm-eabi\lib\gnat\zfp-cortex-m4f\adalib\libgnat.a(a-except.o)

.debug_pubnames
 *(.debug_pubnames)

.debug_info     0x0000000000000000    0x10a08
 *(.debug_info .gnu.linkonce.wi.*)
 .debug_info    0x0000000000000000      0x192 main.o
 .debug_info    0x0000000000000192      0x55c b__main.o
 .debug_info    0x00000000000006ee      0xb01 C:\Users\xboxl\Documents\Github\Ada_Drivers_Library_j\boards\MicroBit_v2\obj\zfp_lib_Debug\libada_drivers_library.a(cortex_m-nvic.o)
 .debug_info    0x00000000000011ef       0x44 C:\Users\xboxl\Documents\Github\Ada_Drivers_Library_j\boards\MicroBit_v2\obj\zfp_lib_Debug\libada_drivers_library.a(memory_barriers.o)
 .debug_info    0x0000000000001233      0x543 C:\Users\xboxl\Documents\Github\Ada_Drivers_Library_j\boards\MicroBit_v2\obj\zfp_lib_Debug\libada_drivers_library.a(microbit-buttons.o)
 .debug_info    0x0000000000001776      0xe5b C:\Users\xboxl\Documents\Github\Ada_Drivers_Library_j\boards\MicroBit_v2\obj\zfp_lib_Debug\libada_drivers_library.a(microbit-console.o)
 .debug_info    0x00000000000025d1       0xcf C:\Users\xboxl\Documents\Github\Ada_Drivers_Library_j\boards\MicroBit_v2\obj\zfp_lib_Debug\libada_drivers_library.a(microbit-display-symbols.o)
 .debug_info    0x00000000000026a0      0x814 C:\Users\xboxl\Documents\Github\Ada_Drivers_Library_j\boards\MicroBit_v2\obj\zfp_lib_Debug\libada_drivers_library.a(microbit-display.o)
 .debug_info    0x0000000000002eb4      0x474 C:\Users\xboxl\Documents\Github\Ada_Drivers_Library_j\boards\MicroBit_v2\obj\zfp_lib_Debug\libada_drivers_library.a(microbit-radio.o)
 .debug_info    0x0000000000003328      0x542 C:\Users\xboxl\Documents\Github\Ada_Drivers_Library_j\boards\MicroBit_v2\obj\zfp_lib_Debug\libada_drivers_library.a(microbit-time.o)
 .debug_info    0x000000000000386a      0x1ee C:\Users\xboxl\Documents\Github\Ada_Drivers_Library_j\boards\MicroBit_v2\obj\zfp_lib_Debug\libada_drivers_library.a(nrf-clock.o)
 .debug_info    0x0000000000003a58     0x3090 C:\Users\xboxl\Documents\Github\Ada_Drivers_Library_j\boards\MicroBit_v2\obj\zfp_lib_Debug\libada_drivers_library.a(nrf-device.o)
 .debug_info    0x0000000000006ae8      0xa5b C:\Users\xboxl\Documents\Github\Ada_Drivers_Library_j\boards\MicroBit_v2\obj\zfp_lib_Debug\libada_drivers_library.a(nrf-events.o)
 .debug_info    0x0000000000007543      0x6bd C:\Users\xboxl\Documents\Github\Ada_Drivers_Library_j\boards\MicroBit_v2\obj\zfp_lib_Debug\libada_drivers_library.a(nrf-gpio.o)
 .debug_info    0x0000000000007c00      0x30f C:\Users\xboxl\Documents\Github\Ada_Drivers_Library_j\boards\MicroBit_v2\obj\zfp_lib_Debug\libada_drivers_library.a(nrf-interrupts.o)
 .debug_info    0x0000000000007f0f      0xa59 C:\Users\xboxl\Documents\Github\Ada_Drivers_Library_j\boards\MicroBit_v2\obj\zfp_lib_Debug\libada_drivers_library.a(nrf-radio.o)
 .debug_info    0x0000000000008968      0xcd7 C:\Users\xboxl\Documents\Github\Ada_Drivers_Library_j\boards\MicroBit_v2\obj\zfp_lib_Debug\libada_drivers_library.a(nrf-rtc.o)
 .debug_info    0x000000000000963f      0xdb7 C:\Users\xboxl\Documents\Github\Ada_Drivers_Library_j\boards\MicroBit_v2\obj\zfp_lib_Debug\libada_drivers_library.a(nrf-spi_master.o)
 .debug_info    0x000000000000a3f6      0xaee C:\Users\xboxl\Documents\Github\Ada_Drivers_Library_j\boards\MicroBit_v2\obj\zfp_lib_Debug\libada_drivers_library.a(nrf-tasks.o)
 .debug_info    0x000000000000aee4      0xda9 C:\Users\xboxl\Documents\Github\Ada_Drivers_Library_j\boards\MicroBit_v2\obj\zfp_lib_Debug\libada_drivers_library.a(nrf-timers.o)
 .debug_info    0x000000000000bc8d      0xfc4 C:\Users\xboxl\Documents\Github\Ada_Drivers_Library_j\boards\MicroBit_v2\obj\zfp_lib_Debug\libada_drivers_library.a(nrf-twi.o)
 .debug_info    0x000000000000cc51      0xfbd C:\Users\xboxl\Documents\Github\Ada_Drivers_Library_j\boards\MicroBit_v2\obj\zfp_lib_Debug\libada_drivers_library.a(nrf-uart.o)
 .debug_info    0x000000000000dc0e      0x853 C:\Users\xboxl\Documents\Github\Ada_Drivers_Library_j\boards\MicroBit_v2\obj\zfp_lib_Debug\libada_drivers_library.a(nrf_svd-gpio.o)
 .debug_info    0x000000000000e461     0x17ad C:\Users\xboxl\Documents\Github\Ada_Drivers_Library_j\boards\MicroBit_v2\obj\zfp_lib_Debug\libada_drivers_library.a(nrf_svd-radio.o)
 .debug_info    0x000000000000fc0e      0x86d C:\Users\xboxl\Documents\Github\Ada_Drivers_Library_j\boards\MicroBit_v2\obj\zfp_lib_Debug\libada_drivers_library.a(nrf_svd-twi.o)
 .debug_info    0x000000000001047b       0x3a C:\Users\xboxl\Documents\Github\Ada_Drivers_Library_j\boards\MicroBit_v2\obj\zfp_lib_Debug\libada_drivers_library.a(hal-gpio.o)
 .debug_info    0x00000000000104b5       0x5d C:\Users\xboxl\Documents\Github\Ada_Drivers_Library_j\boards\MicroBit_v2\obj\zfp_lib_Debug\libada_drivers_library.a(hal-i2c.o)
 .debug_info    0x0000000000010512       0x56 C:\Users\xboxl\Documents\Github\Ada_Drivers_Library_j\boards\MicroBit_v2\obj\zfp_lib_Debug\libada_drivers_library.a(hal-spi.o)
 .debug_info    0x0000000000010568       0x3a C:\Users\xboxl\Documents\Github\Ada_Drivers_Library_j\boards\MicroBit_v2\obj\zfp_lib_Debug\libada_drivers_library.a(hal-time.o)
 .debug_info    0x00000000000105a2       0x4f C:\Users\xboxl\Documents\Github\Ada_Drivers_Library_j\boards\MicroBit_v2\obj\zfp_lib_Debug\libada_drivers_library.a(hal-uart.o)
 .debug_info    0x00000000000105f1      0x1af C:\gnat\2021-arm-elf\arm-eabi\lib\gnat\zfp-cortex-m4f\adalib\libgnat.a(s-assert.o)
 .debug_info    0x00000000000107a0      0x268 C:\gnat\2021-arm-elf\arm-eabi\lib\gnat\zfp-cortex-m4f\adalib\libgnat.a(a-except.o)

.debug_abbrev   0x0000000000000000     0x385c
 *(.debug_abbrev)
 .debug_abbrev  0x0000000000000000      0x106 main.o
 .debug_abbrev  0x0000000000000106      0x213 b__main.o
 .debug_abbrev  0x0000000000000319      0x20b C:\Users\xboxl\Documents\Github\Ada_Drivers_Library_j\boards\MicroBit_v2\obj\zfp_lib_Debug\libada_drivers_library.a(cortex_m-nvic.o)
 .debug_abbrev  0x0000000000000524       0x3b C:\Users\xboxl\Documents\Github\Ada_Drivers_Library_j\boards\MicroBit_v2\obj\zfp_lib_Debug\libada_drivers_library.a(memory_barriers.o)
 .debug_abbrev  0x000000000000055f      0x1c2 C:\Users\xboxl\Documents\Github\Ada_Drivers_Library_j\boards\MicroBit_v2\obj\zfp_lib_Debug\libada_drivers_library.a(microbit-buttons.o)
 .debug_abbrev  0x0000000000000721      0x389 C:\Users\xboxl\Documents\Github\Ada_Drivers_Library_j\boards\MicroBit_v2\obj\zfp_lib_Debug\libada_drivers_library.a(microbit-console.o)
 .debug_abbrev  0x0000000000000aaa       0x37 C:\Users\xboxl\Documents\Github\Ada_Drivers_Library_j\boards\MicroBit_v2\obj\zfp_lib_Debug\libada_drivers_library.a(microbit-display-symbols.o)
 .debug_abbrev  0x0000000000000ae1      0x2c3 C:\Users\xboxl\Documents\Github\Ada_Drivers_Library_j\boards\MicroBit_v2\obj\zfp_lib_Debug\libada_drivers_library.a(microbit-display.o)
 .debug_abbrev  0x0000000000000da4      0x1ff C:\Users\xboxl\Documents\Github\Ada_Drivers_Library_j\boards\MicroBit_v2\obj\zfp_lib_Debug\libada_drivers_library.a(microbit-radio.o)
 .debug_abbrev  0x0000000000000fa3      0x22a C:\Users\xboxl\Documents\Github\Ada_Drivers_Library_j\boards\MicroBit_v2\obj\zfp_lib_Debug\libada_drivers_library.a(microbit-time.o)
 .debug_abbrev  0x00000000000011cd       0xef C:\Users\xboxl\Documents\Github\Ada_Drivers_Library_j\boards\MicroBit_v2\obj\zfp_lib_Debug\libada_drivers_library.a(nrf-clock.o)
 .debug_abbrev  0x00000000000012bc      0x394 C:\Users\xboxl\Documents\Github\Ada_Drivers_Library_j\boards\MicroBit_v2\obj\zfp_lib_Debug\libada_drivers_library.a(nrf-device.o)
 .debug_abbrev  0x0000000000001650      0x11e C:\Users\xboxl\Documents\Github\Ada_Drivers_Library_j\boards\MicroBit_v2\obj\zfp_lib_Debug\libada_drivers_library.a(nrf-events.o)
 .debug_abbrev  0x000000000000176e      0x21c C:\Users\xboxl\Documents\Github\Ada_Drivers_Library_j\boards\MicroBit_v2\obj\zfp_lib_Debug\libada_drivers_library.a(nrf-gpio.o)
 .debug_abbrev  0x000000000000198a      0x164 C:\Users\xboxl\Documents\Github\Ada_Drivers_Library_j\boards\MicroBit_v2\obj\zfp_lib_Debug\libada_drivers_library.a(nrf-interrupts.o)
 .debug_abbrev  0x0000000000001aee      0x2d4 C:\Users\xboxl\Documents\Github\Ada_Drivers_Library_j\boards\MicroBit_v2\obj\zfp_lib_Debug\libada_drivers_library.a(nrf-radio.o)
 .debug_abbrev  0x0000000000001dc2      0x32b C:\Users\xboxl\Documents\Github\Ada_Drivers_Library_j\boards\MicroBit_v2\obj\zfp_lib_Debug\libada_drivers_library.a(nrf-rtc.o)
 .debug_abbrev  0x00000000000020ed      0x336 C:\Users\xboxl\Documents\Github\Ada_Drivers_Library_j\boards\MicroBit_v2\obj\zfp_lib_Debug\libada_drivers_library.a(nrf-spi_master.o)
 .debug_abbrev  0x0000000000002423       0xdf C:\Users\xboxl\Documents\Github\Ada_Drivers_Library_j\boards\MicroBit_v2\obj\zfp_lib_Debug\libada_drivers_library.a(nrf-tasks.o)
 .debug_abbrev  0x0000000000002502      0x34d C:\Users\xboxl\Documents\Github\Ada_Drivers_Library_j\boards\MicroBit_v2\obj\zfp_lib_Debug\libada_drivers_library.a(nrf-timers.o)
 .debug_abbrev  0x000000000000284f      0x39c C:\Users\xboxl\Documents\Github\Ada_Drivers_Library_j\boards\MicroBit_v2\obj\zfp_lib_Debug\libada_drivers_library.a(nrf-twi.o)
 .debug_abbrev  0x0000000000002beb      0x34a C:\Users\xboxl\Documents\Github\Ada_Drivers_Library_j\boards\MicroBit_v2\obj\zfp_lib_Debug\libada_drivers_library.a(nrf-uart.o)
 .debug_abbrev  0x0000000000002f35      0x1f0 C:\Users\xboxl\Documents\Github\Ada_Drivers_Library_j\boards\MicroBit_v2\obj\zfp_lib_Debug\libada_drivers_library.a(nrf_svd-gpio.o)
 .debug_abbrev  0x0000000000003125      0x1ef C:\Users\xboxl\Documents\Github\Ada_Drivers_Library_j\boards\MicroBit_v2\obj\zfp_lib_Debug\libada_drivers_library.a(nrf_svd-radio.o)
 .debug_abbrev  0x0000000000003314      0x1c5 C:\Users\xboxl\Documents\Github\Ada_Drivers_Library_j\boards\MicroBit_v2\obj\zfp_lib_Debug\libada_drivers_library.a(nrf_svd-twi.o)
 .debug_abbrev  0x00000000000034d9       0x1b C:\Users\xboxl\Documents\Github\Ada_Drivers_Library_j\boards\MicroBit_v2\obj\zfp_lib_Debug\libada_drivers_library.a(hal-gpio.o)
 .debug_abbrev  0x00000000000034f4       0x28 C:\Users\xboxl\Documents\Github\Ada_Drivers_Library_j\boards\MicroBit_v2\obj\zfp_lib_Debug\libada_drivers_library.a(hal-i2c.o)
 .debug_abbrev  0x000000000000351c       0x28 C:\Users\xboxl\Documents\Github\Ada_Drivers_Library_j\boards\MicroBit_v2\obj\zfp_lib_Debug\libada_drivers_library.a(hal-spi.o)
 .debug_abbrev  0x0000000000003544       0x1b C:\Users\xboxl\Documents\Github\Ada_Drivers_Library_j\boards\MicroBit_v2\obj\zfp_lib_Debug\libada_drivers_library.a(hal-time.o)
 .debug_abbrev  0x000000000000355f       0x28 C:\Users\xboxl\Documents\Github\Ada_Drivers_Library_j\boards\MicroBit_v2\obj\zfp_lib_Debug\libada_drivers_library.a(hal-uart.o)
 .debug_abbrev  0x0000000000003587      0x12c C:\gnat\2021-arm-elf\arm-eabi\lib\gnat\zfp-cortex-m4f\adalib\libgnat.a(s-assert.o)
 .debug_abbrev  0x00000000000036b3      0x1a9 C:\gnat\2021-arm-elf\arm-eabi\lib\gnat\zfp-cortex-m4f\adalib\libgnat.a(a-except.o)

.debug_line     0x0000000000000000     0x562d
 *(.debug_line)
 .debug_line    0x0000000000000000      0x13a main.o
 .debug_line    0x000000000000013a      0x16f b__main.o
 .debug_line    0x00000000000002a9      0x4a9 C:\Users\xboxl\Documents\Github\Ada_Drivers_Library_j\boards\MicroBit_v2\obj\zfp_lib_Debug\libada_drivers_library.a(cortex_m-nvic.o)
 .debug_line    0x0000000000000752       0xae C:\Users\xboxl\Documents\Github\Ada_Drivers_Library_j\boards\MicroBit_v2\obj\zfp_lib_Debug\libada_drivers_library.a(memory_barriers.o)
 .debug_line    0x0000000000000800      0x31e C:\Users\xboxl\Documents\Github\Ada_Drivers_Library_j\boards\MicroBit_v2\obj\zfp_lib_Debug\libada_drivers_library.a(microbit-buttons.o)
 .debug_line    0x0000000000000b1e      0x45b C:\Users\xboxl\Documents\Github\Ada_Drivers_Library_j\boards\MicroBit_v2\obj\zfp_lib_Debug\libada_drivers_library.a(microbit-console.o)
 .debug_line    0x0000000000000f79      0x1a6 C:\Users\xboxl\Documents\Github\Ada_Drivers_Library_j\boards\MicroBit_v2\obj\zfp_lib_Debug\libada_drivers_library.a(microbit-display-symbols.o)
 .debug_line    0x000000000000111f      0x6a0 C:\Users\xboxl\Documents\Github\Ada_Drivers_Library_j\boards\MicroBit_v2\obj\zfp_lib_Debug\libada_drivers_library.a(microbit-display.o)
 .debug_line    0x00000000000017bf      0x2e4 C:\Users\xboxl\Documents\Github\Ada_Drivers_Library_j\boards\MicroBit_v2\obj\zfp_lib_Debug\libada_drivers_library.a(microbit-radio.o)
 .debug_line    0x0000000000001aa3      0x45b C:\Users\xboxl\Documents\Github\Ada_Drivers_Library_j\boards\MicroBit_v2\obj\zfp_lib_Debug\libada_drivers_library.a(microbit-time.o)
 .debug_line    0x0000000000001efe      0x29a C:\Users\xboxl\Documents\Github\Ada_Drivers_Library_j\boards\MicroBit_v2\obj\zfp_lib_Debug\libada_drivers_library.a(nrf-clock.o)
 .debug_line    0x0000000000002198      0x54b C:\Users\xboxl\Documents\Github\Ada_Drivers_Library_j\boards\MicroBit_v2\obj\zfp_lib_Debug\libada_drivers_library.a(nrf-device.o)
 .debug_line    0x00000000000026e3      0x21f C:\Users\xboxl\Documents\Github\Ada_Drivers_Library_j\boards\MicroBit_v2\obj\zfp_lib_Debug\libada_drivers_library.a(nrf-events.o)
 .debug_line    0x0000000000002902      0x701 C:\Users\xboxl\Documents\Github\Ada_Drivers_Library_j\boards\MicroBit_v2\obj\zfp_lib_Debug\libada_drivers_library.a(nrf-gpio.o)
 .debug_line    0x0000000000003003      0x1c1 C:\Users\xboxl\Documents\Github\Ada_Drivers_Library_j\boards\MicroBit_v2\obj\zfp_lib_Debug\libada_drivers_library.a(nrf-interrupts.o)
 .debug_line    0x00000000000031c4      0x653 C:\Users\xboxl\Documents\Github\Ada_Drivers_Library_j\boards\MicroBit_v2\obj\zfp_lib_Debug\libada_drivers_library.a(nrf-radio.o)
 .debug_line    0x0000000000003817      0x342 C:\Users\xboxl\Documents\Github\Ada_Drivers_Library_j\boards\MicroBit_v2\obj\zfp_lib_Debug\libada_drivers_library.a(nrf-rtc.o)
 .debug_line    0x0000000000003b59      0x675 C:\Users\xboxl\Documents\Github\Ada_Drivers_Library_j\boards\MicroBit_v2\obj\zfp_lib_Debug\libada_drivers_library.a(nrf-spi_master.o)
 .debug_line    0x00000000000041ce      0x13e C:\Users\xboxl\Documents\Github\Ada_Drivers_Library_j\boards\MicroBit_v2\obj\zfp_lib_Debug\libada_drivers_library.a(nrf-tasks.o)
 .debug_line    0x000000000000430c      0x54a C:\Users\xboxl\Documents\Github\Ada_Drivers_Library_j\boards\MicroBit_v2\obj\zfp_lib_Debug\libada_drivers_library.a(nrf-timers.o)
 .debug_line    0x0000000000004856      0x520 C:\Users\xboxl\Documents\Github\Ada_Drivers_Library_j\boards\MicroBit_v2\obj\zfp_lib_Debug\libada_drivers_library.a(nrf-twi.o)
 .debug_line    0x0000000000004d76      0x397 C:\Users\xboxl\Documents\Github\Ada_Drivers_Library_j\boards\MicroBit_v2\obj\zfp_lib_Debug\libada_drivers_library.a(nrf-uart.o)
 .debug_line    0x000000000000510d       0xca C:\Users\xboxl\Documents\Github\Ada_Drivers_Library_j\boards\MicroBit_v2\obj\zfp_lib_Debug\libada_drivers_library.a(nrf_svd-gpio.o)
 .debug_line    0x00000000000051d7       0xcb C:\Users\xboxl\Documents\Github\Ada_Drivers_Library_j\boards\MicroBit_v2\obj\zfp_lib_Debug\libada_drivers_library.a(nrf_svd-radio.o)
 .debug_line    0x00000000000052a2      0x114 C:\Users\xboxl\Documents\Github\Ada_Drivers_Library_j\boards\MicroBit_v2\obj\zfp_lib_Debug\libada_drivers_library.a(nrf_svd-twi.o)
 .debug_line    0x00000000000053b6       0x1d C:\Users\xboxl\Documents\Github\Ada_Drivers_Library_j\boards\MicroBit_v2\obj\zfp_lib_Debug\libada_drivers_library.a(hal-gpio.o)
 .debug_line    0x00000000000053d3       0x1d C:\Users\xboxl\Documents\Github\Ada_Drivers_Library_j\boards\MicroBit_v2\obj\zfp_lib_Debug\libada_drivers_library.a(hal-i2c.o)
 .debug_line    0x00000000000053f0       0x1d C:\Users\xboxl\Documents\Github\Ada_Drivers_Library_j\boards\MicroBit_v2\obj\zfp_lib_Debug\libada_drivers_library.a(hal-spi.o)
 .debug_line    0x000000000000540d       0x1d C:\Users\xboxl\Documents\Github\Ada_Drivers_Library_j\boards\MicroBit_v2\obj\zfp_lib_Debug\libada_drivers_library.a(hal-time.o)
 .debug_line    0x000000000000542a       0x1d C:\Users\xboxl\Documents\Github\Ada_Drivers_Library_j\boards\MicroBit_v2\obj\zfp_lib_Debug\libada_drivers_library.a(hal-uart.o)
 .debug_line    0x0000000000005447       0xde C:\gnat\2021-arm-elf\arm-eabi\lib\gnat\zfp-cortex-m4f\adalib\libgnat.a(s-assert.o)
 .debug_line    0x0000000000005525      0x108 C:\gnat\2021-arm-elf\arm-eabi\lib\gnat\zfp-cortex-m4f\adalib\libgnat.a(a-except.o)

.debug_frame    0x0000000000000000     0x377c
 *(.debug_frame)
 .debug_frame   0x0000000000000000       0x38 main.o
 .debug_frame   0x0000000000000038       0x98 b__main.o
 .debug_frame   0x00000000000000d0      0x258 C:\Users\xboxl\Documents\Github\Ada_Drivers_Library_j\boards\MicroBit_v2\obj\zfp_lib_Debug\libada_drivers_library.a(cortex_m-nvic.o)
 .debug_frame   0x0000000000000328       0x30 C:\Users\xboxl\Documents\Github\Ada_Drivers_Library_j\boards\MicroBit_v2\obj\zfp_lib_Debug\libada_drivers_library.a(memory_barriers.o)
 .debug_frame   0x0000000000000358      0x11c C:\Users\xboxl\Documents\Github\Ada_Drivers_Library_j\boards\MicroBit_v2\obj\zfp_lib_Debug\libada_drivers_library.a(microbit-buttons.o)
 .debug_frame   0x0000000000000474       0xec C:\Users\xboxl\Documents\Github\Ada_Drivers_Library_j\boards\MicroBit_v2\obj\zfp_lib_Debug\libada_drivers_library.a(microbit-console.o)
 .debug_frame   0x0000000000000560      0x10c C:\Users\xboxl\Documents\Github\Ada_Drivers_Library_j\boards\MicroBit_v2\obj\zfp_lib_Debug\libada_drivers_library.a(microbit-display-symbols.o)
 .debug_frame   0x000000000000066c      0x25c C:\Users\xboxl\Documents\Github\Ada_Drivers_Library_j\boards\MicroBit_v2\obj\zfp_lib_Debug\libada_drivers_library.a(microbit-display.o)
 .debug_frame   0x00000000000008c8      0x1b4 C:\Users\xboxl\Documents\Github\Ada_Drivers_Library_j\boards\MicroBit_v2\obj\zfp_lib_Debug\libada_drivers_library.a(microbit-radio.o)
 .debug_frame   0x0000000000000a7c      0x2f8 C:\Users\xboxl\Documents\Github\Ada_Drivers_Library_j\boards\MicroBit_v2\obj\zfp_lib_Debug\libada_drivers_library.a(microbit-time.o)
 .debug_frame   0x0000000000000d74      0x168 C:\Users\xboxl\Documents\Github\Ada_Drivers_Library_j\boards\MicroBit_v2\obj\zfp_lib_Debug\libada_drivers_library.a(nrf-clock.o)
 .debug_frame   0x0000000000000edc      0x194 C:\Users\xboxl\Documents\Github\Ada_Drivers_Library_j\boards\MicroBit_v2\obj\zfp_lib_Debug\libada_drivers_library.a(nrf-device.o)
 .debug_frame   0x0000000000001070       0xf0 C:\Users\xboxl\Documents\Github\Ada_Drivers_Library_j\boards\MicroBit_v2\obj\zfp_lib_Debug\libada_drivers_library.a(nrf-events.o)
 .debug_frame   0x0000000000001160      0x260 C:\Users\xboxl\Documents\Github\Ada_Drivers_Library_j\boards\MicroBit_v2\obj\zfp_lib_Debug\libada_drivers_library.a(nrf-gpio.o)
 .debug_frame   0x00000000000013c0       0xe8 C:\Users\xboxl\Documents\Github\Ada_Drivers_Library_j\boards\MicroBit_v2\obj\zfp_lib_Debug\libada_drivers_library.a(nrf-interrupts.o)
 .debug_frame   0x00000000000014a8      0x508 C:\Users\xboxl\Documents\Github\Ada_Drivers_Library_j\boards\MicroBit_v2\obj\zfp_lib_Debug\libada_drivers_library.a(nrf-radio.o)
 .debug_frame   0x00000000000019b0      0x194 C:\Users\xboxl\Documents\Github\Ada_Drivers_Library_j\boards\MicroBit_v2\obj\zfp_lib_Debug\libada_drivers_library.a(nrf-rtc.o)
 .debug_frame   0x0000000000001b44      0x294 C:\Users\xboxl\Documents\Github\Ada_Drivers_Library_j\boards\MicroBit_v2\obj\zfp_lib_Debug\libada_drivers_library.a(nrf-spi_master.o)
 .debug_frame   0x0000000000001dd8       0x84 C:\Users\xboxl\Documents\Github\Ada_Drivers_Library_j\boards\MicroBit_v2\obj\zfp_lib_Debug\libada_drivers_library.a(nrf-tasks.o)
 .debug_frame   0x0000000000001e5c      0x3c0 C:\Users\xboxl\Documents\Github\Ada_Drivers_Library_j\boards\MicroBit_v2\obj\zfp_lib_Debug\libada_drivers_library.a(nrf-timers.o)
 .debug_frame   0x000000000000221c      0x270 C:\Users\xboxl\Documents\Github\Ada_Drivers_Library_j\boards\MicroBit_v2\obj\zfp_lib_Debug\libada_drivers_library.a(nrf-twi.o)
 .debug_frame   0x000000000000248c      0x260 C:\Users\xboxl\Documents\Github\Ada_Drivers_Library_j\boards\MicroBit_v2\obj\zfp_lib_Debug\libada_drivers_library.a(nrf-uart.o)
 .debug_frame   0x00000000000026ec      0x604 C:\Users\xboxl\Documents\Github\Ada_Drivers_Library_j\boards\MicroBit_v2\obj\zfp_lib_Debug\libada_drivers_library.a(nrf_svd-gpio.o)
 .debug_frame   0x0000000000002cf0      0x7e0 C:\Users\xboxl\Documents\Github\Ada_Drivers_Library_j\boards\MicroBit_v2\obj\zfp_lib_Debug\libada_drivers_library.a(nrf_svd-radio.o)
 .debug_frame   0x00000000000034d0      0x19c C:\Users\xboxl\Documents\Github\Ada_Drivers_Library_j\boards\MicroBit_v2\obj\zfp_lib_Debug\libada_drivers_library.a(nrf_svd-twi.o)
 .debug_frame   0x000000000000366c       0x60 C:\Users\xboxl\Documents\Github\Ada_Drivers_Library_j\boards\MicroBit_v2\obj\zfp_lib_Debug\libada_drivers_library.a(hal-spi.o)
 .debug_frame   0x00000000000036cc       0x60 C:\Users\xboxl\Documents\Github\Ada_Drivers_Library_j\boards\MicroBit_v2\obj\zfp_lib_Debug\libada_drivers_library.a(hal-uart.o)
 .debug_frame   0x000000000000372c       0x28 C:\gnat\2021-arm-elf\arm-eabi\lib\gnat\zfp-cortex-m4f\adalib\libgnat.a(s-assert.o)
 .debug_frame   0x0000000000003754       0x28 C:\gnat\2021-arm-elf\arm-eabi\lib\gnat\zfp-cortex-m4f\adalib\libgnat.a(a-except.o)

.debug_str      0x0000000000000000     0xe035
 *(.debug_str)
 .debug_str     0x0000000000000000      0x36c main.o
                                        0x3ae (size before relaxing)
 .debug_str     0x000000000000036c      0x82d b__main.o
                                        0x8c4 (size before relaxing)
 .debug_str     0x0000000000000b99      0xd17 C:\Users\xboxl\Documents\Github\Ada_Drivers_Library_j\boards\MicroBit_v2\obj\zfp_lib_Debug\libada_drivers_library.a(cortex_m-nvic.o)
                                        0xda1 (size before relaxing)
 .debug_str     0x00000000000018b0       0xa3 C:\Users\xboxl\Documents\Github\Ada_Drivers_Library_j\boards\MicroBit_v2\obj\zfp_lib_Debug\libada_drivers_library.a(memory_barriers.o)
                                        0x2d0 (size before relaxing)
 .debug_str     0x0000000000001953      0x71d C:\Users\xboxl\Documents\Github\Ada_Drivers_Library_j\boards\MicroBit_v2\obj\zfp_lib_Debug\libada_drivers_library.a(microbit-buttons.o)
                                        0x99e (size before relaxing)
 .debug_str     0x0000000000002070     0x102d C:\Users\xboxl\Documents\Github\Ada_Drivers_Library_j\boards\MicroBit_v2\obj\zfp_lib_Debug\libada_drivers_library.a(microbit-console.o)
                                       0x1417 (size before relaxing)
 .debug_str     0x000000000000309d      0x1b7 C:\Users\xboxl\Documents\Github\Ada_Drivers_Library_j\boards\MicroBit_v2\obj\zfp_lib_Debug\libada_drivers_library.a(microbit-display-symbols.o)
                                        0x3ec (size before relaxing)
 .debug_str     0x0000000000003254      0x652 C:\Users\xboxl\Documents\Github\Ada_Drivers_Library_j\boards\MicroBit_v2\obj\zfp_lib_Debug\libada_drivers_library.a(microbit-display.o)
                                        0xcd3 (size before relaxing)
 .debug_str     0x00000000000038a6      0x420 C:\Users\xboxl\Documents\Github\Ada_Drivers_Library_j\boards\MicroBit_v2\obj\zfp_lib_Debug\libada_drivers_library.a(microbit-radio.o)
                                        0x89d (size before relaxing)
 .debug_str     0x0000000000003cc6      0x43c C:\Users\xboxl\Documents\Github\Ada_Drivers_Library_j\boards\MicroBit_v2\obj\zfp_lib_Debug\libada_drivers_library.a(microbit-time.o)
                                        0x880 (size before relaxing)
 .debug_str     0x0000000000004102      0x2db C:\Users\xboxl\Documents\Github\Ada_Drivers_Library_j\boards\MicroBit_v2\obj\zfp_lib_Debug\libada_drivers_library.a(nrf-clock.o)
                                        0x5b3 (size before relaxing)
 .debug_str     0x00000000000043dd     0x2da1 C:\Users\xboxl\Documents\Github\Ada_Drivers_Library_j\boards\MicroBit_v2\obj\zfp_lib_Debug\libada_drivers_library.a(nrf-device.o)
                                       0x3f3e (size before relaxing)
 .debug_str     0x000000000000717e      0x9e2 C:\Users\xboxl\Documents\Github\Ada_Drivers_Library_j\boards\MicroBit_v2\obj\zfp_lib_Debug\libada_drivers_library.a(nrf-events.o)
                                        0xecd (size before relaxing)
 .debug_str     0x0000000000007b60      0x4ba C:\Users\xboxl\Documents\Github\Ada_Drivers_Library_j\boards\MicroBit_v2\obj\zfp_lib_Debug\libada_drivers_library.a(nrf-gpio.o)
                                        0xb99 (size before relaxing)
 .debug_str     0x000000000000801a      0x826 C:\Users\xboxl\Documents\Github\Ada_Drivers_Library_j\boards\MicroBit_v2\obj\zfp_lib_Debug\libada_drivers_library.a(nrf-interrupts.o)
                                        0xad1 (size before relaxing)
 .debug_str     0x0000000000008840      0xad2 C:\Users\xboxl\Documents\Github\Ada_Drivers_Library_j\boards\MicroBit_v2\obj\zfp_lib_Debug\libada_drivers_library.a(nrf-radio.o)
                                       0x1001 (size before relaxing)
 .debug_str     0x0000000000009312      0x1e4 C:\Users\xboxl\Documents\Github\Ada_Drivers_Library_j\boards\MicroBit_v2\obj\zfp_lib_Debug\libada_drivers_library.a(nrf-rtc.o)
                                       0x106e (size before relaxing)
 .debug_str     0x00000000000094f6      0x691 C:\Users\xboxl\Documents\Github\Ada_Drivers_Library_j\boards\MicroBit_v2\obj\zfp_lib_Debug\libada_drivers_library.a(nrf-spi_master.o)
                                        0xf4c (size before relaxing)
 .debug_str     0x0000000000009b87      0xa64 C:\Users\xboxl\Documents\Github\Ada_Drivers_Library_j\boards\MicroBit_v2\obj\zfp_lib_Debug\libada_drivers_library.a(nrf-tasks.o)
                                        0xf87 (size before relaxing)
 .debug_str     0x000000000000a5eb      0x372 C:\Users\xboxl\Documents\Github\Ada_Drivers_Library_j\boards\MicroBit_v2\obj\zfp_lib_Debug\libada_drivers_library.a(nrf-timers.o)
                                       0x12f7 (size before relaxing)
 .debug_str     0x000000000000a95d      0x334 C:\Users\xboxl\Documents\Github\Ada_Drivers_Library_j\boards\MicroBit_v2\obj\zfp_lib_Debug\libada_drivers_library.a(nrf-twi.o)
                                       0x13f9 (size before relaxing)
 .debug_str     0x000000000000ac91      0x35f C:\Users\xboxl\Documents\Github\Ada_Drivers_Library_j\boards\MicroBit_v2\obj\zfp_lib_Debug\libada_drivers_library.a(nrf-uart.o)
                                       0x1551 (size before relaxing)
 .debug_str     0x000000000000aff0      0x7b0 C:\Users\xboxl\Documents\Github\Ada_Drivers_Library_j\boards\MicroBit_v2\obj\zfp_lib_Debug\libada_drivers_library.a(nrf_svd-gpio.o)
                                        0xd3f (size before relaxing)
 .debug_str     0x000000000000b7a0     0x1e3d C:\Users\xboxl\Documents\Github\Ada_Drivers_Library_j\boards\MicroBit_v2\obj\zfp_lib_Debug\libada_drivers_library.a(nrf_svd-radio.o)
                                       0x23ca (size before relaxing)
 .debug_str     0x000000000000d5dd       0x94 C:\Users\xboxl\Documents\Github\Ada_Drivers_Library_j\boards\MicroBit_v2\obj\zfp_lib_Debug\libada_drivers_library.a(nrf_svd-twi.o)
                                        0xdf8 (size before relaxing)
 .debug_str     0x000000000000d671       0x4b C:\Users\xboxl\Documents\Github\Ada_Drivers_Library_j\boards\MicroBit_v2\obj\zfp_lib_Debug\libada_drivers_library.a(hal-gpio.o)
                                        0x2a2 (size before relaxing)
 .debug_str     0x000000000000d6bc       0x4a C:\Users\xboxl\Documents\Github\Ada_Drivers_Library_j\boards\MicroBit_v2\obj\zfp_lib_Debug\libada_drivers_library.a(hal-i2c.o)
                                        0x2fd (size before relaxing)
 .debug_str     0x000000000000d706       0x4a C:\Users\xboxl\Documents\Github\Ada_Drivers_Library_j\boards\MicroBit_v2\obj\zfp_lib_Debug\libada_drivers_library.a(hal-spi.o)
                                        0x2eb (size before relaxing)
 .debug_str     0x000000000000d750       0x4b C:\Users\xboxl\Documents\Github\Ada_Drivers_Library_j\boards\MicroBit_v2\obj\zfp_lib_Debug\libada_drivers_library.a(hal-time.o)
                                        0x2a2 (size before relaxing)
 .debug_str     0x000000000000d79b       0x4b C:\Users\xboxl\Documents\Github\Ada_Drivers_Library_j\boards\MicroBit_v2\obj\zfp_lib_Debug\libada_drivers_library.a(hal-uart.o)
                                        0x2d7 (size before relaxing)
 .debug_str     0x000000000000d7e6      0x45a C:\gnat\2021-arm-elf\arm-eabi\lib\gnat\zfp-cortex-m4f\adalib\libgnat.a(s-assert.o)
                                        0x4ef (size before relaxing)
 .debug_str     0x000000000000dc40      0x3f5 C:\gnat\2021-arm-elf\arm-eabi\lib\gnat\zfp-cortex-m4f\adalib\libgnat.a(a-except.o)
                                        0x566 (size before relaxing)

.debug_loc      0x0000000000000000       0x7c
 *(.debug_loc)
 .debug_loc     0x0000000000000000       0x2c C:\gnat\2021-arm-elf\arm-eabi\lib\gnat\zfp-cortex-m4f\adalib\libgnat.a(s-assert.o)
 .debug_loc     0x000000000000002c       0x50 C:\gnat\2021-arm-elf\arm-eabi\lib\gnat\zfp-cortex-m4f\adalib\libgnat.a(a-except.o)

.debug_macinfo
 *(.debug_macinfo)

.debug_pubtypes
 *(.debug_pubtypes)

.debug_ranges   0x0000000000000000      0x778
 *(.debug_ranges)
 .debug_ranges  0x0000000000000000       0x68 C:\Users\xboxl\Documents\Github\Ada_Drivers_Library_j\boards\MicroBit_v2\obj\zfp_lib_Debug\libada_drivers_library.a(cortex_m-nvic.o)
 .debug_ranges  0x0000000000000068       0x10 C:\Users\xboxl\Documents\Github\Ada_Drivers_Library_j\boards\MicroBit_v2\obj\zfp_lib_Debug\libada_drivers_library.a(memory_barriers.o)
 .debug_ranges  0x0000000000000078       0x38 C:\Users\xboxl\Documents\Github\Ada_Drivers_Library_j\boards\MicroBit_v2\obj\zfp_lib_Debug\libada_drivers_library.a(microbit-buttons.o)
 .debug_ranges  0x00000000000000b0       0x38 C:\Users\xboxl\Documents\Github\Ada_Drivers_Library_j\boards\MicroBit_v2\obj\zfp_lib_Debug\libada_drivers_library.a(microbit-console.o)
 .debug_ranges  0x00000000000000e8       0x50 C:\Users\xboxl\Documents\Github\Ada_Drivers_Library_j\boards\MicroBit_v2\obj\zfp_lib_Debug\libada_drivers_library.a(microbit-display-symbols.o)
 .debug_ranges  0x0000000000000138       0x78 C:\Users\xboxl\Documents\Github\Ada_Drivers_Library_j\boards\MicroBit_v2\obj\zfp_lib_Debug\libada_drivers_library.a(microbit-display.o)
 .debug_ranges  0x00000000000001b0       0x68 C:\Users\xboxl\Documents\Github\Ada_Drivers_Library_j\boards\MicroBit_v2\obj\zfp_lib_Debug\libada_drivers_library.a(microbit-radio.o)
 .debug_ranges  0x0000000000000218       0x88 C:\Users\xboxl\Documents\Github\Ada_Drivers_Library_j\boards\MicroBit_v2\obj\zfp_lib_Debug\libada_drivers_library.a(microbit-time.o)
 .debug_ranges  0x00000000000002a0       0x60 C:\Users\xboxl\Documents\Github\Ada_Drivers_Library_j\boards\MicroBit_v2\obj\zfp_lib_Debug\libada_drivers_library.a(nrf-clock.o)
 .debug_ranges  0x0000000000000300       0x70 C:\Users\xboxl\Documents\Github\Ada_Drivers_Library_j\boards\MicroBit_v2\obj\zfp_lib_Debug\libada_drivers_library.a(nrf-device.o)
 .debug_ranges  0x0000000000000370       0x38 C:\Users\xboxl\Documents\Github\Ada_Drivers_Library_j\boards\MicroBit_v2\obj\zfp_lib_Debug\libada_drivers_library.a(nrf-events.o)
 .debug_ranges  0x00000000000003a8       0x58 C:\Users\xboxl\Documents\Github\Ada_Drivers_Library_j\boards\MicroBit_v2\obj\zfp_lib_Debug\libada_drivers_library.a(nrf-gpio.o)
 .debug_ranges  0x0000000000000400       0x38 C:\Users\xboxl\Documents\Github\Ada_Drivers_Library_j\boards\MicroBit_v2\obj\zfp_lib_Debug\libada_drivers_library.a(nrf-interrupts.o)
 .debug_ranges  0x0000000000000438       0xe8 C:\Users\xboxl\Documents\Github\Ada_Drivers_Library_j\boards\MicroBit_v2\obj\zfp_lib_Debug\libada_drivers_library.a(nrf-radio.o)
 .debug_ranges  0x0000000000000520       0x50 C:\Users\xboxl\Documents\Github\Ada_Drivers_Library_j\boards\MicroBit_v2\obj\zfp_lib_Debug\libada_drivers_library.a(nrf-rtc.o)
 .debug_ranges  0x0000000000000570       0x68 C:\Users\xboxl\Documents\Github\Ada_Drivers_Library_j\boards\MicroBit_v2\obj\zfp_lib_Debug\libada_drivers_library.a(nrf-spi_master.o)
 .debug_ranges  0x00000000000005d8       0x20 C:\Users\xboxl\Documents\Github\Ada_Drivers_Library_j\boards\MicroBit_v2\obj\zfp_lib_Debug\libada_drivers_library.a(nrf-tasks.o)
 .debug_ranges  0x00000000000005f8       0xa8 C:\Users\xboxl\Documents\Github\Ada_Drivers_Library_j\boards\MicroBit_v2\obj\zfp_lib_Debug\libada_drivers_library.a(nrf-timers.o)
 .debug_ranges  0x00000000000006a0       0x60 C:\Users\xboxl\Documents\Github\Ada_Drivers_Library_j\boards\MicroBit_v2\obj\zfp_lib_Debug\libada_drivers_library.a(nrf-twi.o)
 .debug_ranges  0x0000000000000700       0x58 C:\Users\xboxl\Documents\Github\Ada_Drivers_Library_j\boards\MicroBit_v2\obj\zfp_lib_Debug\libada_drivers_library.a(nrf-uart.o)
 .debug_ranges  0x0000000000000758       0x10 C:\gnat\2021-arm-elf\arm-eabi\lib\gnat\zfp-cortex-m4f\adalib\libgnat.a(s-assert.o)
 .debug_ranges  0x0000000000000768       0x10 C:\gnat\2021-arm-elf\arm-eabi\lib\gnat\zfp-cortex-m4f\adalib\libgnat.a(a-except.o)

.comment        0x0000000000000000       0x3e
 .comment       0x0000000000000000       0x3e main.o
                                         0x3f (size before relaxing)
 .comment       0x000000000000003e       0x3f b__main.o
 .comment       0x000000000000003e       0x3f C:\Users\xboxl\Documents\Github\Ada_Drivers_Library_j\boards\MicroBit_v2\obj\zfp_lib_Debug\libada_drivers_library.a(cortex_m-nvic.o)
 .comment       0x000000000000003e       0x3f C:\Users\xboxl\Documents\Github\Ada_Drivers_Library_j\boards\MicroBit_v2\obj\zfp_lib_Debug\libada_drivers_library.a(memory_barriers.o)
 .comment       0x000000000000003e       0x3f C:\Users\xboxl\Documents\Github\Ada_Drivers_Library_j\boards\MicroBit_v2\obj\zfp_lib_Debug\libada_drivers_library.a(microbit-buttons.o)
 .comment       0x000000000000003e       0x3f C:\Users\xboxl\Documents\Github\Ada_Drivers_Library_j\boards\MicroBit_v2\obj\zfp_lib_Debug\libada_drivers_library.a(microbit-console.o)
 .comment       0x000000000000003e       0x3f C:\Users\xboxl\Documents\Github\Ada_Drivers_Library_j\boards\MicroBit_v2\obj\zfp_lib_Debug\libada_drivers_library.a(microbit-display-symbols.o)
 .comment       0x000000000000003e       0x3f C:\Users\xboxl\Documents\Github\Ada_Drivers_Library_j\boards\MicroBit_v2\obj\zfp_lib_Debug\libada_drivers_library.a(microbit-display.o)
 .comment       0x000000000000003e       0x3f C:\Users\xboxl\Documents\Github\Ada_Drivers_Library_j\boards\MicroBit_v2\obj\zfp_lib_Debug\libada_drivers_library.a(microbit-radio.o)
 .comment       0x000000000000003e       0x3f C:\Users\xboxl\Documents\Github\Ada_Drivers_Library_j\boards\MicroBit_v2\obj\zfp_lib_Debug\libada_drivers_library.a(microbit-time.o)
 .comment       0x000000000000003e       0x3f C:\Users\xboxl\Documents\Github\Ada_Drivers_Library_j\boards\MicroBit_v2\obj\zfp_lib_Debug\libada_drivers_library.a(nrf-clock.o)
 .comment       0x000000000000003e       0x3f C:\Users\xboxl\Documents\Github\Ada_Drivers_Library_j\boards\MicroBit_v2\obj\zfp_lib_Debug\libada_drivers_library.a(nrf-device.o)
 .comment       0x000000000000003e       0x3f C:\Users\xboxl\Documents\Github\Ada_Drivers_Library_j\boards\MicroBit_v2\obj\zfp_lib_Debug\libada_drivers_library.a(nrf-events.o)
 .comment       0x000000000000003e       0x3f C:\Users\xboxl\Documents\Github\Ada_Drivers_Library_j\boards\MicroBit_v2\obj\zfp_lib_Debug\libada_drivers_library.a(nrf-gpio.o)
 .comment       0x000000000000003e       0x3f C:\Users\xboxl\Documents\Github\Ada_Drivers_Library_j\boards\MicroBit_v2\obj\zfp_lib_Debug\libada_drivers_library.a(nrf-interrupts.o)
 .comment       0x000000000000003e       0x3f C:\Users\xboxl\Documents\Github\Ada_Drivers_Library_j\boards\MicroBit_v2\obj\zfp_lib_Debug\libada_drivers_library.a(nrf-radio.o)
 .comment       0x000000000000003e       0x3f C:\Users\xboxl\Documents\Github\Ada_Drivers_Library_j\boards\MicroBit_v2\obj\zfp_lib_Debug\libada_drivers_library.a(nrf-rtc.o)
 .comment       0x000000000000003e       0x3f C:\Users\xboxl\Documents\Github\Ada_Drivers_Library_j\boards\MicroBit_v2\obj\zfp_lib_Debug\libada_drivers_library.a(nrf-spi_master.o)
 .comment       0x000000000000003e       0x3f C:\Users\xboxl\Documents\Github\Ada_Drivers_Library_j\boards\MicroBit_v2\obj\zfp_lib_Debug\libada_drivers_library.a(nrf-tasks.o)
 .comment       0x000000000000003e       0x3f C:\Users\xboxl\Documents\Github\Ada_Drivers_Library_j\boards\MicroBit_v2\obj\zfp_lib_Debug\libada_drivers_library.a(nrf-timers.o)
 .comment       0x000000000000003e       0x3f C:\Users\xboxl\Documents\Github\Ada_Drivers_Library_j\boards\MicroBit_v2\obj\zfp_lib_Debug\libada_drivers_library.a(nrf-twi.o)
 .comment       0x000000000000003e       0x3f C:\Users\xboxl\Documents\Github\Ada_Drivers_Library_j\boards\MicroBit_v2\obj\zfp_lib_Debug\libada_drivers_library.a(nrf-uart.o)
 .comment       0x000000000000003e       0x3f C:\Users\xboxl\Documents\Github\Ada_Drivers_Library_j\boards\MicroBit_v2\obj\zfp_lib_Debug\libada_drivers_library.a(nrf_svd-gpio.o)
 .comment       0x000000000000003e       0x3f C:\Users\xboxl\Documents\Github\Ada_Drivers_Library_j\boards\MicroBit_v2\obj\zfp_lib_Debug\libada_drivers_library.a(nrf_svd-radio.o)
 .comment       0x000000000000003e       0x3f C:\Users\xboxl\Documents\Github\Ada_Drivers_Library_j\boards\MicroBit_v2\obj\zfp_lib_Debug\libada_drivers_library.a(nrf_svd-twi.o)
 .comment       0x000000000000003e       0x3f C:\Users\xboxl\Documents\Github\Ada_Drivers_Library_j\boards\MicroBit_v2\obj\zfp_lib_Debug\libada_drivers_library.a(hal-gpio.o)
 .comment       0x000000000000003e       0x3f C:\Users\xboxl\Documents\Github\Ada_Drivers_Library_j\boards\MicroBit_v2\obj\zfp_lib_Debug\libada_drivers_library.a(hal-i2c.o)
 .comment       0x000000000000003e       0x3f C:\Users\xboxl\Documents\Github\Ada_Drivers_Library_j\boards\MicroBit_v2\obj\zfp_lib_Debug\libada_drivers_library.a(hal-spi.o)
 .comment       0x000000000000003e       0x3f C:\Users\xboxl\Documents\Github\Ada_Drivers_Library_j\boards\MicroBit_v2\obj\zfp_lib_Debug\libada_drivers_library.a(hal-time.o)
 .comment       0x000000000000003e       0x3f C:\Users\xboxl\Documents\Github\Ada_Drivers_Library_j\boards\MicroBit_v2\obj\zfp_lib_Debug\libada_drivers_library.a(hal-uart.o)
 .comment       0x000000000000003e       0x3f C:\gnat\2021-arm-elf\arm-eabi\lib\gnat\zfp-cortex-m4f\adalib\libgnat.a(a-elchha.o)
 .comment       0x000000000000003e       0x3f C:\gnat\2021-arm-elf\arm-eabi\lib\gnat\zfp-cortex-m4f\adalib\libgnat.a(g-io.o)
 .comment       0x000000000000003e       0x3f C:\gnat\2021-arm-elf\arm-eabi\lib\gnat\zfp-cortex-m4f\adalib\libgnat.a(s-assert.o)
 .comment       0x000000000000003e       0x3f C:\gnat\2021-arm-elf\arm-eabi\lib\gnat\zfp-cortex-m4f\adalib\libgnat.a(s-imguns.o)
 .comment       0x000000000000003e       0x3f C:\gnat\2021-arm-elf\arm-eabi\lib\gnat\zfp-cortex-m4f\adalib\libgnat.a(s-macres.o)
 .comment       0x000000000000003e       0x3f C:\gnat\2021-arm-elf\arm-eabi\lib\gnat\zfp-cortex-m4f\adalib\libgnat.a(s-memcop.o)
 .comment       0x000000000000003e       0x3f C:\gnat\2021-arm-elf\arm-eabi\lib\gnat\zfp-cortex-m4f\adalib\libgnat.a(s-memset.o)
 .comment       0x000000000000003e       0x3f C:\gnat\2021-arm-elf\arm-eabi\lib\gnat\zfp-cortex-m4f\adalib\libgnat.a(s-secsta.o)
 .comment       0x000000000000003e       0x3f C:\gnat\2021-arm-elf\arm-eabi\lib\gnat\zfp-cortex-m4f\adalib\libgnat.a(s-textio.o)
 .comment       0x000000000000003e       0x3f C:\gnat\2021-arm-elf\arm-eabi\lib\gnat\zfp-cortex-m4f\adalib\libgnat.a(a-except.o)
 .comment       0x000000000000003e       0x3f C:\gnat\2021-arm-elf\arm-eabi\lib\gnat\zfp-cortex-m4f\adalib\libgnat.a(s-semiho.o)

.ARM.attributes
                0x0000000000000000       0x32
 .ARM.attributes
                0x0000000000000000       0x32 main.o
 .ARM.attributes
                0x0000000000000032       0x32 b__main.o
 .ARM.attributes
                0x0000000000000064       0x32 C:\Users\xboxl\Documents\Github\Ada_Drivers_Library_j\boards\MicroBit_v2\obj\zfp_lib_Debug\libada_drivers_library.a(cortex_m-nvic.o)
 .ARM.attributes
                0x0000000000000096       0x25 C:\Users\xboxl\Documents\Github\Ada_Drivers_Library_j\boards\MicroBit_v2\obj\zfp_lib_Debug\libada_drivers_library.a(crt0.o)
 .ARM.attributes
                0x00000000000000bb       0x32 C:\Users\xboxl\Documents\Github\Ada_Drivers_Library_j\boards\MicroBit_v2\obj\zfp_lib_Debug\libada_drivers_library.a(memory_barriers.o)
 .ARM.attributes
                0x00000000000000ed       0x32 C:\Users\xboxl\Documents\Github\Ada_Drivers_Library_j\boards\MicroBit_v2\obj\zfp_lib_Debug\libada_drivers_library.a(microbit-buttons.o)
 .ARM.attributes
                0x000000000000011f       0x32 C:\Users\xboxl\Documents\Github\Ada_Drivers_Library_j\boards\MicroBit_v2\obj\zfp_lib_Debug\libada_drivers_library.a(microbit-console.o)
 .ARM.attributes
                0x0000000000000151       0x32 C:\Users\xboxl\Documents\Github\Ada_Drivers_Library_j\boards\MicroBit_v2\obj\zfp_lib_Debug\libada_drivers_library.a(microbit-display-symbols.o)
 .ARM.attributes
                0x0000000000000183       0x32 C:\Users\xboxl\Documents\Github\Ada_Drivers_Library_j\boards\MicroBit_v2\obj\zfp_lib_Debug\libada_drivers_library.a(microbit-display.o)
 .ARM.attributes
                0x00000000000001b5       0x32 C:\Users\xboxl\Documents\Github\Ada_Drivers_Library_j\boards\MicroBit_v2\obj\zfp_lib_Debug\libada_drivers_library.a(microbit-radio.o)
 .ARM.attributes
                0x00000000000001e7       0x32 C:\Users\xboxl\Documents\Github\Ada_Drivers_Library_j\boards\MicroBit_v2\obj\zfp_lib_Debug\libada_drivers_library.a(microbit-time.o)
 .ARM.attributes
                0x0000000000000219       0x32 C:\Users\xboxl\Documents\Github\Ada_Drivers_Library_j\boards\MicroBit_v2\obj\zfp_lib_Debug\libada_drivers_library.a(nrf-clock.o)
 .ARM.attributes
                0x000000000000024b       0x32 C:\Users\xboxl\Documents\Github\Ada_Drivers_Library_j\boards\MicroBit_v2\obj\zfp_lib_Debug\libada_drivers_library.a(nrf-device.o)
 .ARM.attributes
                0x000000000000027d       0x32 C:\Users\xboxl\Documents\Github\Ada_Drivers_Library_j\boards\MicroBit_v2\obj\zfp_lib_Debug\libada_drivers_library.a(nrf-events.o)
 .ARM.attributes
                0x00000000000002af       0x32 C:\Users\xboxl\Documents\Github\Ada_Drivers_Library_j\boards\MicroBit_v2\obj\zfp_lib_Debug\libada_drivers_library.a(nrf-gpio.o)
 .ARM.attributes
                0x00000000000002e1       0x32 C:\Users\xboxl\Documents\Github\Ada_Drivers_Library_j\boards\MicroBit_v2\obj\zfp_lib_Debug\libada_drivers_library.a(nrf-interrupts.o)
 .ARM.attributes
                0x0000000000000313       0x32 C:\Users\xboxl\Documents\Github\Ada_Drivers_Library_j\boards\MicroBit_v2\obj\zfp_lib_Debug\libada_drivers_library.a(nrf-radio.o)
 .ARM.attributes
                0x0000000000000345       0x32 C:\Users\xboxl\Documents\Github\Ada_Drivers_Library_j\boards\MicroBit_v2\obj\zfp_lib_Debug\libada_drivers_library.a(nrf-rtc.o)
 .ARM.attributes
                0x0000000000000377       0x32 C:\Users\xboxl\Documents\Github\Ada_Drivers_Library_j\boards\MicroBit_v2\obj\zfp_lib_Debug\libada_drivers_library.a(nrf-spi_master.o)
 .ARM.attributes
                0x00000000000003a9       0x32 C:\Users\xboxl\Documents\Github\Ada_Drivers_Library_j\boards\MicroBit_v2\obj\zfp_lib_Debug\libada_drivers_library.a(nrf-tasks.o)
 .ARM.attributes
                0x00000000000003db       0x32 C:\Users\xboxl\Documents\Github\Ada_Drivers_Library_j\boards\MicroBit_v2\obj\zfp_lib_Debug\libada_drivers_library.a(nrf-timers.o)
 .ARM.attributes
                0x000000000000040d       0x32 C:\Users\xboxl\Documents\Github\Ada_Drivers_Library_j\boards\MicroBit_v2\obj\zfp_lib_Debug\libada_drivers_library.a(nrf-twi.o)
 .ARM.attributes
                0x000000000000043f       0x32 C:\Users\xboxl\Documents\Github\Ada_Drivers_Library_j\boards\MicroBit_v2\obj\zfp_lib_Debug\libada_drivers_library.a(nrf-uart.o)
 .ARM.attributes
                0x0000000000000471       0x32 C:\Users\xboxl\Documents\Github\Ada_Drivers_Library_j\boards\MicroBit_v2\obj\zfp_lib_Debug\libada_drivers_library.a(nrf_svd-gpio.o)
 .ARM.attributes
                0x00000000000004a3       0x32 C:\Users\xboxl\Documents\Github\Ada_Drivers_Library_j\boards\MicroBit_v2\obj\zfp_lib_Debug\libada_drivers_library.a(nrf_svd-radio.o)
 .ARM.attributes
                0x00000000000004d5       0x32 C:\Users\xboxl\Documents\Github\Ada_Drivers_Library_j\boards\MicroBit_v2\obj\zfp_lib_Debug\libada_drivers_library.a(nrf_svd-twi.o)
 .ARM.attributes
                0x0000000000000507       0x37 C:\Users\xboxl\Documents\Github\Ada_Drivers_Library_j\boards\MicroBit_v2\obj\zfp_lib_Debug\libada_drivers_library.a(hal-gpio.o)
 .ARM.attributes
                0x000000000000053e       0x37 C:\Users\xboxl\Documents\Github\Ada_Drivers_Library_j\boards\MicroBit_v2\obj\zfp_lib_Debug\libada_drivers_library.a(hal-i2c.o)
 .ARM.attributes
                0x0000000000000575       0x32 C:\Users\xboxl\Documents\Github\Ada_Drivers_Library_j\boards\MicroBit_v2\obj\zfp_lib_Debug\libada_drivers_library.a(hal-spi.o)
 .ARM.attributes
                0x00000000000005a7       0x37 C:\Users\xboxl\Documents\Github\Ada_Drivers_Library_j\boards\MicroBit_v2\obj\zfp_lib_Debug\libada_drivers_library.a(hal-time.o)
 .ARM.attributes
                0x00000000000005de       0x32 C:\Users\xboxl\Documents\Github\Ada_Drivers_Library_j\boards\MicroBit_v2\obj\zfp_lib_Debug\libada_drivers_library.a(hal-uart.o)
 .ARM.attributes
                0x0000000000000610       0x32 C:\gnat\2021-arm-elf\arm-eabi\lib\gnat\zfp-cortex-m4f\adalib\libgnat.a(a-elchha.o)
 .ARM.attributes
                0x0000000000000642       0x32 C:\gnat\2021-arm-elf\arm-eabi\lib\gnat\zfp-cortex-m4f\adalib\libgnat.a(g-io.o)
 .ARM.attributes
                0x0000000000000674       0x32 C:\gnat\2021-arm-elf\arm-eabi\lib\gnat\zfp-cortex-m4f\adalib\libgnat.a(s-assert.o)
 .ARM.attributes
                0x00000000000006a6       0x32 C:\gnat\2021-arm-elf\arm-eabi\lib\gnat\zfp-cortex-m4f\adalib\libgnat.a(s-imguns.o)
 .ARM.attributes
                0x00000000000006d8       0x32 C:\gnat\2021-arm-elf\arm-eabi\lib\gnat\zfp-cortex-m4f\adalib\libgnat.a(s-macres.o)
 .ARM.attributes
                0x000000000000070a       0x32 C:\gnat\2021-arm-elf\arm-eabi\lib\gnat\zfp-cortex-m4f\adalib\libgnat.a(s-memcop.o)
 .ARM.attributes
                0x000000000000073c       0x32 C:\gnat\2021-arm-elf\arm-eabi\lib\gnat\zfp-cortex-m4f\adalib\libgnat.a(s-memset.o)
 .ARM.attributes
                0x000000000000076e       0x32 C:\gnat\2021-arm-elf\arm-eabi\lib\gnat\zfp-cortex-m4f\adalib\libgnat.a(s-secsta.o)
 .ARM.attributes
                0x00000000000007a0       0x32 C:\gnat\2021-arm-elf\arm-eabi\lib\gnat\zfp-cortex-m4f\adalib\libgnat.a(s-textio.o)
 .ARM.attributes
                0x00000000000007d2       0x32 C:\gnat\2021-arm-elf\arm-eabi\lib\gnat\zfp-cortex-m4f\adalib\libgnat.a(a-except.o)
 .ARM.attributes
                0x0000000000000804       0x32 C:\gnat\2021-arm-elf\arm-eabi\lib\gnat\zfp-cortex-m4f\adalib\libgnat.a(s-semiho.o)

.gnu.attributes
 *(.gnu.attributes)

/DISCARD/
 *(.note.GNU-stack)
 *(.gnu_debuglink)
 *(.gnu.lto_*)
OUTPUT(main elf32-littlearm)
LOAD linker stubs
