Archive member included to satisfy reference by file (symbol)

C:\Users\aditi.DESKTOP-49PGKM5\OneDrive - USN\Dokumenter\ada\Ada_Drivers_Library_j\boards\MicroBit_v2\obj\zfp_lib_Debug\libada_drivers_library.a(cortex_m-nvic.o)
                              b__main.o (cortex_m__nvic_E)
C:\Users\aditi.DESKTOP-49PGKM5\OneDrive - USN\Dokumenter\ada\Ada_Drivers_Library_j\boards\MicroBit_v2\obj\zfp_lib_Debug\libada_drivers_library.a(crt0.o)
                              (Reset_Handler)
C:\Users\aditi.DESKTOP-49PGKM5\OneDrive - USN\Dokumenter\ada\Ada_Drivers_Library_j\boards\MicroBit_v2\obj\zfp_lib_Debug\libada_drivers_library.a(dfr0548.o)
                              b__main.o (dfr0548_E)
C:\Users\aditi.DESKTOP-49PGKM5\OneDrive - USN\Dokumenter\ada\Ada_Drivers_Library_j\boards\MicroBit_v2\obj\zfp_lib_Debug\libada_drivers_library.a(memory_barriers.o)
                              C:\Users\aditi.DESKTOP-49PGKM5\OneDrive - USN\Dokumenter\ada\Ada_Drivers_Library_j\boards\MicroBit_v2\obj\zfp_lib_Debug\libada_drivers_library.a(cortex_m-nvic.o) (memory_barriers__data_synchronization_barrier)
C:\Users\aditi.DESKTOP-49PGKM5\OneDrive - USN\Dokumenter\ada\Ada_Drivers_Library_j\boards\MicroBit_v2\obj\zfp_lib_Debug\libada_drivers_library.a(microbit-console.o)
                              main.o (microbit__console__put_line)
C:\Users\aditi.DESKTOP-49PGKM5\OneDrive - USN\Dokumenter\ada\Ada_Drivers_Library_j\boards\MicroBit_v2\obj\zfp_lib_Debug\libada_drivers_library.a(microbit-display-symbols.o)
                              b__main.o (microbit__display__symbols_E)
C:\Users\aditi.DESKTOP-49PGKM5\OneDrive - USN\Dokumenter\ada\Ada_Drivers_Library_j\boards\MicroBit_v2\obj\zfp_lib_Debug\libada_drivers_library.a(microbit-display.o)
                              C:\Users\aditi.DESKTOP-49PGKM5\OneDrive - USN\Dokumenter\ada\Ada_Drivers_Library_j\boards\MicroBit_v2\obj\zfp_lib_Debug\libada_drivers_library.a(microbit-display-symbols.o) (microbit__display__set)
C:\Users\aditi.DESKTOP-49PGKM5\OneDrive - USN\Dokumenter\ada\Ada_Drivers_Library_j\boards\MicroBit_v2\obj\zfp_lib_Debug\libada_drivers_library.a(microbit-i2c.o)
                              b__main.o (microbit__i2c_E)
C:\Users\aditi.DESKTOP-49PGKM5\OneDrive - USN\Dokumenter\ada\Ada_Drivers_Library_j\boards\MicroBit_v2\obj\zfp_lib_Debug\libada_drivers_library.a(microbit-motordriver.o)
                              main.o (microbit__motordriver__drive)
C:\Users\aditi.DESKTOP-49PGKM5\OneDrive - USN\Dokumenter\ada\Ada_Drivers_Library_j\boards\MicroBit_v2\obj\zfp_lib_Debug\libada_drivers_library.a(microbit-radio.o)
                              main.o (microbit__radio__state)
C:\Users\aditi.DESKTOP-49PGKM5\OneDrive - USN\Dokumenter\ada\Ada_Drivers_Library_j\boards\MicroBit_v2\obj\zfp_lib_Debug\libada_drivers_library.a(microbit-time-highspeed.o)
                              main.o (microbit__time__highspeed__delay_us)
C:\Users\aditi.DESKTOP-49PGKM5\OneDrive - USN\Dokumenter\ada\Ada_Drivers_Library_j\boards\MicroBit_v2\obj\zfp_lib_Debug\libada_drivers_library.a(microbit-time.o)
                              main.o (microbit__time__delay_ms)
C:\Users\aditi.DESKTOP-49PGKM5\OneDrive - USN\Dokumenter\ada\Ada_Drivers_Library_j\boards\MicroBit_v2\obj\zfp_lib_Debug\libada_drivers_library.a(microbit-ultrasonic.o)
                              b__main.o (microbit__ultrasonic_E)
C:\Users\aditi.DESKTOP-49PGKM5\OneDrive - USN\Dokumenter\ada\Ada_Drivers_Library_j\boards\MicroBit_v2\obj\zfp_lib_Debug\libada_drivers_library.a(nrf-clock.o)
                              C:\Users\aditi.DESKTOP-49PGKM5\OneDrive - USN\Dokumenter\ada\Ada_Drivers_Library_j\boards\MicroBit_v2\obj\zfp_lib_Debug\libada_drivers_library.a(microbit-time-highspeed.o) (nrf__clock__set_high_freq_source)
C:\Users\aditi.DESKTOP-49PGKM5\OneDrive - USN\Dokumenter\ada\Ada_Drivers_Library_j\boards\MicroBit_v2\obj\zfp_lib_Debug\libada_drivers_library.a(nrf-device.o)
                              b__main.o (nrf__device___elabb)
C:\Users\aditi.DESKTOP-49PGKM5\OneDrive - USN\Dokumenter\ada\Ada_Drivers_Library_j\boards\MicroBit_v2\obj\zfp_lib_Debug\libada_drivers_library.a(nrf-events.o)
                              C:\Users\aditi.DESKTOP-49PGKM5\OneDrive - USN\Dokumenter\ada\Ada_Drivers_Library_j\boards\MicroBit_v2\obj\zfp_lib_Debug\libada_drivers_library.a(microbit-radio.o) (nrf__events__triggered)
C:\Users\aditi.DESKTOP-49PGKM5\OneDrive - USN\Dokumenter\ada\Ada_Drivers_Library_j\boards\MicroBit_v2\obj\zfp_lib_Debug\libada_drivers_library.a(nrf-gpio.o)
                              main.o (nrf__gpio__gpio_configurationIP)
C:\Users\aditi.DESKTOP-49PGKM5\OneDrive - USN\Dokumenter\ada\Ada_Drivers_Library_j\boards\MicroBit_v2\obj\zfp_lib_Debug\libada_drivers_library.a(nrf-interrupts.o)
                              C:\Users\aditi.DESKTOP-49PGKM5\OneDrive - USN\Dokumenter\ada\Ada_Drivers_Library_j\boards\MicroBit_v2\obj\zfp_lib_Debug\libada_drivers_library.a(microbit-radio.o) (nrf__interrupts__set_priority)
C:\Users\aditi.DESKTOP-49PGKM5\OneDrive - USN\Dokumenter\ada\Ada_Drivers_Library_j\boards\MicroBit_v2\obj\zfp_lib_Debug\libada_drivers_library.a(nrf-radio.o)
                              C:\Users\aditi.DESKTOP-49PGKM5\OneDrive - USN\Dokumenter\ada\Ada_Drivers_Library_j\boards\MicroBit_v2\obj\zfp_lib_Debug\libada_drivers_library.a(microbit-radio.o) (nrf__radio__setup_for_rf_nrf52)
C:\Users\aditi.DESKTOP-49PGKM5\OneDrive - USN\Dokumenter\ada\Ada_Drivers_Library_j\boards\MicroBit_v2\obj\zfp_lib_Debug\libada_drivers_library.a(nrf-rtc.o)
                              C:\Users\aditi.DESKTOP-49PGKM5\OneDrive - USN\Dokumenter\ada\Ada_Drivers_Library_j\boards\MicroBit_v2\obj\zfp_lib_Debug\libada_drivers_library.a(nrf-device.o) (nrf__rtc__real_time_counterIP)
C:\Users\aditi.DESKTOP-49PGKM5\OneDrive - USN\Dokumenter\ada\Ada_Drivers_Library_j\boards\MicroBit_v2\obj\zfp_lib_Debug\libada_drivers_library.a(nrf-spi_master.o)
                              C:\Users\aditi.DESKTOP-49PGKM5\OneDrive - USN\Dokumenter\ada\Ada_Drivers_Library_j\boards\MicroBit_v2\obj\zfp_lib_Debug\libada_drivers_library.a(nrf-device.o) (nrf__spi_master__spi_masterIP)
C:\Users\aditi.DESKTOP-49PGKM5\OneDrive - USN\Dokumenter\ada\Ada_Drivers_Library_j\boards\MicroBit_v2\obj\zfp_lib_Debug\libada_drivers_library.a(nrf-tasks.o)
                              C:\Users\aditi.DESKTOP-49PGKM5\OneDrive - USN\Dokumenter\ada\Ada_Drivers_Library_j\boards\MicroBit_v2\obj\zfp_lib_Debug\libada_drivers_library.a(microbit-radio.o) (nrf__tasks__trigger)
C:\Users\aditi.DESKTOP-49PGKM5\OneDrive - USN\Dokumenter\ada\Ada_Drivers_Library_j\boards\MicroBit_v2\obj\zfp_lib_Debug\libada_drivers_library.a(nrf-timers.o)
                              C:\Users\aditi.DESKTOP-49PGKM5\OneDrive - USN\Dokumenter\ada\Ada_Drivers_Library_j\boards\MicroBit_v2\obj\zfp_lib_Debug\libada_drivers_library.a(nrf-device.o) (nrf__timers__timerIP)
C:\Users\aditi.DESKTOP-49PGKM5\OneDrive - USN\Dokumenter\ada\Ada_Drivers_Library_j\boards\MicroBit_v2\obj\zfp_lib_Debug\libada_drivers_library.a(nrf-twi.o)
                              C:\Users\aditi.DESKTOP-49PGKM5\OneDrive - USN\Dokumenter\ada\Ada_Drivers_Library_j\boards\MicroBit_v2\obj\zfp_lib_Debug\libada_drivers_library.a(nrf-device.o) (nrf__twi__twi_masterIP)
C:\Users\aditi.DESKTOP-49PGKM5\OneDrive - USN\Dokumenter\ada\Ada_Drivers_Library_j\boards\MicroBit_v2\obj\zfp_lib_Debug\libada_drivers_library.a(nrf-uart.o)
                              C:\Users\aditi.DESKTOP-49PGKM5\OneDrive - USN\Dokumenter\ada\Ada_Drivers_Library_j\boards\MicroBit_v2\obj\zfp_lib_Debug\libada_drivers_library.a(nrf-device.o) (nrf__uart__uart_deviceIP)
C:\Users\aditi.DESKTOP-49PGKM5\OneDrive - USN\Dokumenter\ada\Ada_Drivers_Library_j\boards\MicroBit_v2\obj\zfp_lib_Debug\libada_drivers_library.a(nrf_svd-gpio.o)
                              C:\Users\aditi.DESKTOP-49PGKM5\OneDrive - USN\Dokumenter\ada\Ada_Drivers_Library_j\boards\MicroBit_v2\obj\zfp_lib_Debug\libada_drivers_library.a(nrf-gpio.o) (nrf_svd__gpio__pin_cnf_pull_fieldRP)
C:\Users\aditi.DESKTOP-49PGKM5\OneDrive - USN\Dokumenter\ada\Ada_Drivers_Library_j\boards\MicroBit_v2\obj\zfp_lib_Debug\libada_drivers_library.a(nrf_svd-radio.o)
                              C:\Users\aditi.DESKTOP-49PGKM5\OneDrive - USN\Dokumenter\ada\Ada_Drivers_Library_j\boards\MicroBit_v2\obj\zfp_lib_Debug\libada_drivers_library.a(nrf-radio.o) (nrf_svd__radio__txpower_txpower_fieldRP)
C:\Users\aditi.DESKTOP-49PGKM5\OneDrive - USN\Dokumenter\ada\Ada_Drivers_Library_j\boards\MicroBit_v2\obj\zfp_lib_Debug\libada_drivers_library.a(nrf_svd-twi.o)
                              C:\Users\aditi.DESKTOP-49PGKM5\OneDrive - USN\Dokumenter\ada\Ada_Drivers_Library_j\boards\MicroBit_v2\obj\zfp_lib_Debug\libada_drivers_library.a(nrf-twi.o) (nrf_svd__twi__errorsrc_registerIP)
C:\Users\aditi.DESKTOP-49PGKM5\OneDrive - USN\Dokumenter\ada\Ada_Drivers_Library_j\boards\MicroBit_v2\obj\zfp_lib_Debug\libada_drivers_library.a(hal-gpio.o)
                              C:\Users\aditi.DESKTOP-49PGKM5\OneDrive - USN\Dokumenter\ada\Ada_Drivers_Library_j\boards\MicroBit_v2\obj\zfp_lib_Debug\libada_drivers_library.a(nrf-gpio.o) (hal__gpio__gpio_pointT)
C:\Users\aditi.DESKTOP-49PGKM5\OneDrive - USN\Dokumenter\ada\Ada_Drivers_Library_j\boards\MicroBit_v2\obj\zfp_lib_Debug\libada_drivers_library.a(hal-i2c.o)
                              C:\Users\aditi.DESKTOP-49PGKM5\OneDrive - USN\Dokumenter\ada\Ada_Drivers_Library_j\boards\MicroBit_v2\obj\zfp_lib_Debug\libada_drivers_library.a(nrf-twi.o) (hal__i2c__i2c_portT)
C:\Users\aditi.DESKTOP-49PGKM5\OneDrive - USN\Dokumenter\ada\Ada_Drivers_Library_j\boards\MicroBit_v2\obj\zfp_lib_Debug\libada_drivers_library.a(hal-spi.o)
                              C:\Users\aditi.DESKTOP-49PGKM5\OneDrive - USN\Dokumenter\ada\Ada_Drivers_Library_j\boards\MicroBit_v2\obj\zfp_lib_Debug\libada_drivers_library.a(nrf-spi_master.o) (hal__spi__spi_portT)
C:\Users\aditi.DESKTOP-49PGKM5\OneDrive - USN\Dokumenter\ada\Ada_Drivers_Library_j\boards\MicroBit_v2\obj\zfp_lib_Debug\libada_drivers_library.a(hal-time.o)
                              C:\Users\aditi.DESKTOP-49PGKM5\OneDrive - USN\Dokumenter\ada\Ada_Drivers_Library_j\boards\MicroBit_v2\obj\zfp_lib_Debug\libada_drivers_library.a(microbit-time.o) (hal__time__delaysT)
C:\Users\aditi.DESKTOP-49PGKM5\OneDrive - USN\Dokumenter\ada\Ada_Drivers_Library_j\boards\MicroBit_v2\obj\zfp_lib_Debug\libada_drivers_library.a(hal-uart.o)
                              C:\Users\aditi.DESKTOP-49PGKM5\OneDrive - USN\Dokumenter\ada\Ada_Drivers_Library_j\boards\MicroBit_v2\obj\zfp_lib_Debug\libada_drivers_library.a(nrf-uart.o) (hal__uart__uart_portT)
C:\gnat\2021-arm-elf\arm-eabi\lib\gnat\zfp-cortex-m4f\adalib\libgnat.a(a-elchha.o)
                              main.o (__gnat_last_chance_handler)
C:\gnat\2021-arm-elf\arm-eabi\lib\gnat\zfp-cortex-m4f\adalib\libgnat.a(g-io.o)
                              C:\gnat\2021-arm-elf\arm-eabi\lib\gnat\zfp-cortex-m4f\adalib\libgnat.a(a-elchha.o) (gnat__io__put__2)
C:\gnat\2021-arm-elf\arm-eabi\lib\gnat\zfp-cortex-m4f\adalib\libgnat.a(s-assert.o)
                              C:\Users\aditi.DESKTOP-49PGKM5\OneDrive - USN\Dokumenter\ada\Ada_Drivers_Library_j\boards\MicroBit_v2\obj\zfp_lib_Debug\libada_drivers_library.a(microbit-display.o) (system__assertions__raise_assert_failure)
C:\gnat\2021-arm-elf\arm-eabi\lib\gnat\zfp-cortex-m4f\adalib\libgnat.a(s-imglli.o)
                              C:\Users\aditi.DESKTOP-49PGKM5\OneDrive - USN\Dokumenter\ada\Ada_Drivers_Library_j\boards\MicroBit_v2\obj\zfp_lib_Debug\libada_drivers_library.a(microbit-radio.o) (system__img_lli__impl__image_integer)
C:\gnat\2021-arm-elf\arm-eabi\lib\gnat\zfp-cortex-m4f\adalib\libgnat.a(s-imguns.o)
                              C:\Users\aditi.DESKTOP-49PGKM5\OneDrive - USN\Dokumenter\ada\Ada_Drivers_Library_j\boards\MicroBit_v2\obj\zfp_lib_Debug\libada_drivers_library.a(dfr0548.o) (system__img_uns__impl__image_unsigned)
C:\gnat\2021-arm-elf\arm-eabi\lib\gnat\zfp-cortex-m4f\adalib\libgnat.a(s-macres.o)
                              C:\Users\aditi.DESKTOP-49PGKM5\OneDrive - USN\Dokumenter\ada\Ada_Drivers_Library_j\boards\MicroBit_v2\obj\zfp_lib_Debug\libada_drivers_library.a(crt0.o) (_exit)
C:\gnat\2021-arm-elf\arm-eabi\lib\gnat\zfp-cortex-m4f\adalib\libgnat.a(s-memcom.o)
                              C:\Users\aditi.DESKTOP-49PGKM5\OneDrive - USN\Dokumenter\ada\Ada_Drivers_Library_j\boards\MicroBit_v2\obj\zfp_lib_Debug\libada_drivers_library.a(nrf_svd-radio.o) (memcmp)
C:\gnat\2021-arm-elf\arm-eabi\lib\gnat\zfp-cortex-m4f\adalib\libgnat.a(s-memcop.o)
                              C:\Users\aditi.DESKTOP-49PGKM5\OneDrive - USN\Dokumenter\ada\Ada_Drivers_Library_j\boards\MicroBit_v2\obj\zfp_lib_Debug\libada_drivers_library.a(microbit-radio.o) (memcpy)
C:\gnat\2021-arm-elf\arm-eabi\lib\gnat\zfp-cortex-m4f\adalib\libgnat.a(s-memmov.o)
                              C:\Users\aditi.DESKTOP-49PGKM5\OneDrive - USN\Dokumenter\ada\Ada_Drivers_Library_j\boards\MicroBit_v2\obj\zfp_lib_Debug\libada_drivers_library.a(microbit-display.o) (memmove)
C:\gnat\2021-arm-elf\arm-eabi\lib\gnat\zfp-cortex-m4f\adalib\libgnat.a(s-memset.o)
                              main.o (memset)
C:\gnat\2021-arm-elf\arm-eabi\lib\gnat\zfp-cortex-m4f\adalib\libgnat.a(s-secsta.o)
                              b__main.o (system__secondary_stack__ss_stackIP)
C:\gnat\2021-arm-elf\arm-eabi\lib\gnat\zfp-cortex-m4f\adalib\libgnat.a(s-sssita.o)
                              C:\gnat\2021-arm-elf\arm-eabi\lib\gnat\zfp-cortex-m4f\adalib\libgnat.a(s-secsta.o) (__gnat_get_secondary_stack)
C:\gnat\2021-arm-elf\arm-eabi\lib\gnat\zfp-cortex-m4f\adalib\libgnat.a(s-textio.o)
                              C:\gnat\2021-arm-elf\arm-eabi\lib\gnat\zfp-cortex-m4f\adalib\libgnat.a(g-io.o) (system__text_io__initialize)
C:\gnat\2021-arm-elf\arm-eabi\lib\gnat\zfp-cortex-m4f\adalib\libgnat.a(a-assert.o)
                              C:\gnat\2021-arm-elf\arm-eabi\lib\gnat\zfp-cortex-m4f\adalib\libgnat.a(s-assert.o) (ada__assertions__assertion_error)
C:\gnat\2021-arm-elf\arm-eabi\lib\gnat\zfp-cortex-m4f\adalib\libgnat.a(a-except.o)
                              C:\gnat\2021-arm-elf\arm-eabi\lib\gnat\zfp-cortex-m4f\adalib\libgnat.a(s-assert.o) (ada__exceptions__call_last_chance_handler_with_message)
C:\gnat\2021-arm-elf\arm-eabi\lib\gnat\zfp-cortex-m4f\adalib\libgnat.a(s-semiho.o)
                              C:\gnat\2021-arm-elf\arm-eabi\lib\gnat\zfp-cortex-m4f\adalib\libgnat.a(s-textio.o) (system__semihosting__put)
c:/gnat/2021-arm-elf/bin/../lib/gcc/arm-eabi/10.3.1/thumb/v7e-m/fpv4-sp/hard\libgcc.a(_aeabi_ldivmod.o)
                              C:\gnat\2021-arm-elf\arm-eabi\lib\gnat\zfp-cortex-m4f\adalib\libgnat.a(s-imglli.o) (__aeabi_ldivmod)
c:/gnat/2021-arm-elf/bin/../lib/gcc/arm-eabi/10.3.1/thumb/v7e-m/fpv4-sp/hard\libgcc.a(_udivmoddi4.o)
                              c:/gnat/2021-arm-elf/bin/../lib/gcc/arm-eabi/10.3.1/thumb/v7e-m/fpv4-sp/hard\libgcc.a(_aeabi_ldivmod.o) (__udivmoddi4)
c:/gnat/2021-arm-elf/bin/../lib/gcc/arm-eabi/10.3.1/thumb/v7e-m/fpv4-sp/hard\libgcc.a(_dvmd_tls.o)
                              c:/gnat/2021-arm-elf/bin/../lib/gcc/arm-eabi/10.3.1/thumb/v7e-m/fpv4-sp/hard\libgcc.a(_aeabi_ldivmod.o) (__aeabi_ldiv0)

Memory Configuration

Name             Origin             Length             Attributes
flash            0x0000000000000000 0x0000000000080000 xr
ram              0x0000000020000000 0x0000000000020000 xrw
*default*        0x0000000000000000 0xffffffffffffffff

Linker script and memory map

LOAD main.o
LOAD b__main.o
LOAD C:\Users\aditi.DESKTOP-49PGKM5\OneDrive - USN\Dokumenter\ada\Ada_Drivers_Library_j\boards\MicroBit_v2\obj\zfp_lib_Debug\libada_drivers_library.a
LOAD C:\gnat\2021-arm-elf\arm-eabi\lib\gnat\zfp-cortex-m4f\adalib\libgnat.a
START GROUP
LOAD c:/gnat/2021-arm-elf/bin/../lib/gcc/arm-eabi/10.3.1/thumb/v7e-m/fpv4-sp/hard\libgcc.a
END GROUP
                0x0000000000000000                __DYNAMIC = 0x0
                0x0000000000001000                _DEFAULT_STACK_SIZE = 0x1000

.text           0x0000000000000000     0xa748
 *(.vectors)
 .vectors       0x0000000000000000      0x240 C:\Users\aditi.DESKTOP-49PGKM5\OneDrive - USN\Dokumenter\ada\Ada_Drivers_Library_j\boards\MicroBit_v2\obj\zfp_lib_Debug\libada_drivers_library.a(crt0.o)
                0x0000000000000000                __vectors
 *(.text .text.* .gnu.linkonce.t*)
 .text          0x0000000000000240      0x3cc main.o
                0x00000000000002c0                _ada_main
 .text          0x000000000000060c      0x270 b__main.o
                0x000000000000060c                ada_main__Tsec_default_sized_stacksBIP
                0x0000000000000650                adainit
                0x000000000000084c                main
                0x0000000000000868                ada_main___elabb
 .text          0x000000000000087c        0x0 C:\Users\aditi.DESKTOP-49PGKM5\OneDrive - USN\Dokumenter\ada\Ada_Drivers_Library_j\boards\MicroBit_v2\obj\zfp_lib_Debug\libada_drivers_library.a(cortex_m-nvic.o)
 .text.cortex_m__nvic__uint8sIP
                0x000000000000087c       0x14 C:\Users\aditi.DESKTOP-49PGKM5\OneDrive - USN\Dokumenter\ada\Ada_Drivers_Library_j\boards\MicroBit_v2\obj\zfp_lib_Debug\libada_drivers_library.a(cortex_m-nvic.o)
                0x000000000000087c                cortex_m__nvic__uint8sIP
 .text.cortex_m__nvic__wordsIP
                0x0000000000000890       0x14 C:\Users\aditi.DESKTOP-49PGKM5\OneDrive - USN\Dokumenter\ada\Ada_Drivers_Library_j\boards\MicroBit_v2\obj\zfp_lib_Debug\libada_drivers_library.a(cortex_m-nvic.o)
                0x0000000000000890                cortex_m__nvic__wordsIP
 .text.cortex_m__nvic__system_control_blockIP
                0x00000000000008a4       0x14 C:\Users\aditi.DESKTOP-49PGKM5\OneDrive - USN\Dokumenter\ada\Ada_Drivers_Library_j\boards\MicroBit_v2\obj\zfp_lib_Debug\libada_drivers_library.a(cortex_m-nvic.o)
                0x00000000000008a4                cortex_m__nvic__system_control_blockIP
 .text.cortex_m__nvic__nested_vectored_interrupt_controllerIP
                0x00000000000008b8       0x14 C:\Users\aditi.DESKTOP-49PGKM5\OneDrive - USN\Dokumenter\ada\Ada_Drivers_Library_j\boards\MicroBit_v2\obj\zfp_lib_Debug\libada_drivers_library.a(cortex_m-nvic.o)
                0x00000000000008b8                cortex_m__nvic__nested_vectored_interrupt_controllerIP
 .text.cortex_m__nvic__priority_grouping
                0x00000000000008cc       0x20 C:\Users\aditi.DESKTOP-49PGKM5\OneDrive - USN\Dokumenter\ada\Ada_Drivers_Library_j\boards\MicroBit_v2\obj\zfp_lib_Debug\libada_drivers_library.a(cortex_m-nvic.o)
                0x00000000000008cc                cortex_m__nvic__priority_grouping
 .text.cortex_m__nvic__set_priority_grouping
                0x00000000000008ec       0x48 C:\Users\aditi.DESKTOP-49PGKM5\OneDrive - USN\Dokumenter\ada\Ada_Drivers_Library_j\boards\MicroBit_v2\obj\zfp_lib_Debug\libada_drivers_library.a(cortex_m-nvic.o)
                0x00000000000008ec                cortex_m__nvic__set_priority_grouping
 .text.cortex_m__nvic__set_priority
                0x0000000000000934       0x50 C:\Users\aditi.DESKTOP-49PGKM5\OneDrive - USN\Dokumenter\ada\Ada_Drivers_Library_j\boards\MicroBit_v2\obj\zfp_lib_Debug\libada_drivers_library.a(cortex_m-nvic.o)
                0x0000000000000934                cortex_m__nvic__set_priority
 .text.cortex_m__nvic__encoded_priority
                0x0000000000000984       0xd4 C:\Users\aditi.DESKTOP-49PGKM5\OneDrive - USN\Dokumenter\ada\Ada_Drivers_Library_j\boards\MicroBit_v2\obj\zfp_lib_Debug\libada_drivers_library.a(cortex_m-nvic.o)
                0x0000000000000984                cortex_m__nvic__encoded_priority
 .text.cortex_m__nvic__set_priority__2
                0x0000000000000a58       0x2c C:\Users\aditi.DESKTOP-49PGKM5\OneDrive - USN\Dokumenter\ada\Ada_Drivers_Library_j\boards\MicroBit_v2\obj\zfp_lib_Debug\libada_drivers_library.a(cortex_m-nvic.o)
                0x0000000000000a58                cortex_m__nvic__set_priority__2
 .text.cortex_m__nvic__enable_interrupt
                0x0000000000000a84       0x68 C:\Users\aditi.DESKTOP-49PGKM5\OneDrive - USN\Dokumenter\ada\Ada_Drivers_Library_j\boards\MicroBit_v2\obj\zfp_lib_Debug\libada_drivers_library.a(cortex_m-nvic.o)
                0x0000000000000a84                cortex_m__nvic__enable_interrupt
 .text.cortex_m__nvic__disable_interrupt
                0x0000000000000aec       0x68 C:\Users\aditi.DESKTOP-49PGKM5\OneDrive - USN\Dokumenter\ada\Ada_Drivers_Library_j\boards\MicroBit_v2\obj\zfp_lib_Debug\libada_drivers_library.a(cortex_m-nvic.o)
                0x0000000000000aec                cortex_m__nvic__disable_interrupt
 .text.cortex_m__nvic__active
                0x0000000000000b54       0x7c C:\Users\aditi.DESKTOP-49PGKM5\OneDrive - USN\Dokumenter\ada\Ada_Drivers_Library_j\boards\MicroBit_v2\obj\zfp_lib_Debug\libada_drivers_library.a(cortex_m-nvic.o)
                0x0000000000000b54                cortex_m__nvic__active
 .text.cortex_m__nvic__pending
                0x0000000000000bd0       0x7c C:\Users\aditi.DESKTOP-49PGKM5\OneDrive - USN\Dokumenter\ada\Ada_Drivers_Library_j\boards\MicroBit_v2\obj\zfp_lib_Debug\libada_drivers_library.a(cortex_m-nvic.o)
                0x0000000000000bd0                cortex_m__nvic__pending
 .text.cortex_m__nvic__set_pending
                0x0000000000000c4c       0x68 C:\Users\aditi.DESKTOP-49PGKM5\OneDrive - USN\Dokumenter\ada\Ada_Drivers_Library_j\boards\MicroBit_v2\obj\zfp_lib_Debug\libada_drivers_library.a(cortex_m-nvic.o)
                0x0000000000000c4c                cortex_m__nvic__set_pending
 .text.cortex_m__nvic__clear_pending
                0x0000000000000cb4       0x68 C:\Users\aditi.DESKTOP-49PGKM5\OneDrive - USN\Dokumenter\ada\Ada_Drivers_Library_j\boards\MicroBit_v2\obj\zfp_lib_Debug\libada_drivers_library.a(cortex_m-nvic.o)
                0x0000000000000cb4                cortex_m__nvic__clear_pending
 .text.cortex_m__nvic__reset_system
                0x0000000000000d1c       0x28 C:\Users\aditi.DESKTOP-49PGKM5\OneDrive - USN\Dokumenter\ada\Ada_Drivers_Library_j\boards\MicroBit_v2\obj\zfp_lib_Debug\libada_drivers_library.a(cortex_m-nvic.o)
                0x0000000000000d1c                cortex_m__nvic__reset_system
 *fill*         0x0000000000000d44       0xbc 
 .text          0x0000000000000e00       0xa4 C:\Users\aditi.DESKTOP-49PGKM5\OneDrive - USN\Dokumenter\ada\Ada_Drivers_Library_j\boards\MicroBit_v2\obj\zfp_lib_Debug\libada_drivers_library.a(crt0.o)
                0x0000000000000e00                NMI_Handler
                0x0000000000000e02                HardFault_Handler
                0x0000000000000e04                MemoryManagement_Handler
                0x0000000000000e06                BusFault_Handler
                0x0000000000000e08                UsageFault_Handler
                0x0000000000000e0a                Reserved_Handler
                0x0000000000000e0c                SVC_Handler
                0x0000000000000e0e                DebugMon_Handler
                0x0000000000000e10                PendSV_Handler
                0x0000000000000e12                SysTick_Handler
                0x0000000000000e14                __common_int_handler
                0x0000000000000e14                __unknown_interrupt_handler
                0x0000000000000e16                Reset_Handler
 .text          0x0000000000000ea4        0x0 C:\Users\aditi.DESKTOP-49PGKM5\OneDrive - USN\Dokumenter\ada\Ada_Drivers_Library_j\boards\MicroBit_v2\obj\zfp_lib_Debug\libada_drivers_library.a(dfr0548.o)
 .text.dfr0548__wheelIP
                0x0000000000000ea4       0x24 C:\Users\aditi.DESKTOP-49PGKM5\OneDrive - USN\Dokumenter\ada\Ada_Drivers_Library_j\boards\MicroBit_v2\obj\zfp_lib_Debug\libada_drivers_library.a(dfr0548.o)
                0x0000000000000ea4                dfr0548__wheelIP
 .text.dfr0548__motordriverIP
                0x0000000000000ec8       0x30 C:\Users\aditi.DESKTOP-49PGKM5\OneDrive - USN\Dokumenter\ada\Ada_Drivers_Library_j\boards\MicroBit_v2\obj\zfp_lib_Debug\libada_drivers_library.a(dfr0548.o)
                0x0000000000000ec8                dfr0548__motordriverIP
 .text.dfr0548___size
                0x0000000000000ef8       0x20 C:\Users\aditi.DESKTOP-49PGKM5\OneDrive - USN\Dokumenter\ada\Ada_Drivers_Library_j\boards\MicroBit_v2\obj\zfp_lib_Debug\libada_drivers_library.a(dfr0548.o)
                0x0000000000000ef8                dfr0548___size
 .text.dfr0548__assert_status
                0x0000000000000f18       0x38 C:\Users\aditi.DESKTOP-49PGKM5\OneDrive - USN\Dokumenter\ada\Ada_Drivers_Library_j\boards\MicroBit_v2\obj\zfp_lib_Debug\libada_drivers_library.a(dfr0548.o)
                0x0000000000000f18                dfr0548__assert_status
 .text.dfr0548__initialize
                0x0000000000000f50       0x60 C:\Users\aditi.DESKTOP-49PGKM5\OneDrive - USN\Dokumenter\ada\Ada_Drivers_Library_j\boards\MicroBit_v2\obj\zfp_lib_Debug\libada_drivers_library.a(dfr0548.o)
                0x0000000000000f50                dfr0548__initialize
 .text.dfr0548__set_frequency_hz
                0x0000000000000fb0       0xb0 C:\Users\aditi.DESKTOP-49PGKM5\OneDrive - USN\Dokumenter\ada\Ada_Drivers_Library_j\boards\MicroBit_v2\obj\zfp_lib_Debug\libada_drivers_library.a(dfr0548.o)
                0x0000000000000fb0                dfr0548__set_frequency_hz
 .text.dfr0548__set_pwm_wheels__B37b___finalizer.0
                0x0000000000001060       0x1c C:\Users\aditi.DESKTOP-49PGKM5\OneDrive - USN\Dokumenter\ada\Ada_Drivers_Library_j\boards\MicroBit_v2\obj\zfp_lib_Debug\libada_drivers_library.a(dfr0548.o)
 .text.dfr0548__set_pwm_wheels
                0x000000000000107c      0x218 C:\Users\aditi.DESKTOP-49PGKM5\OneDrive - USN\Dokumenter\ada\Ada_Drivers_Library_j\boards\MicroBit_v2\obj\zfp_lib_Debug\libada_drivers_library.a(dfr0548.o)
                0x000000000000107c                dfr0548__set_pwm_wheels
 .text.dfr0548__set_pwm_wheels__B47b___finalizer.1
                0x0000000000001294       0x1c C:\Users\aditi.DESKTOP-49PGKM5\OneDrive - USN\Dokumenter\ada\Ada_Drivers_Library_j\boards\MicroBit_v2\obj\zfp_lib_Debug\libada_drivers_library.a(dfr0548.o)
 .text.dfr0548__set_pwm_wheels__B57b___finalizer.2
                0x00000000000012b0       0x1c C:\Users\aditi.DESKTOP-49PGKM5\OneDrive - USN\Dokumenter\ada\Ada_Drivers_Library_j\boards\MicroBit_v2\obj\zfp_lib_Debug\libada_drivers_library.a(dfr0548.o)
 .text.dfr0548__set_pwm_wheels__B67b___finalizer.3
                0x00000000000012cc       0x1c C:\Users\aditi.DESKTOP-49PGKM5\OneDrive - USN\Dokumenter\ada\Ada_Drivers_Library_j\boards\MicroBit_v2\obj\zfp_lib_Debug\libada_drivers_library.a(dfr0548.o)
 .text.dfr0548__set_servo
                0x00000000000012e8      0x19c C:\Users\aditi.DESKTOP-49PGKM5\OneDrive - USN\Dokumenter\ada\Ada_Drivers_Library_j\boards\MicroBit_v2\obj\zfp_lib_Debug\libada_drivers_library.a(dfr0548.o)
                0x00000000000012e8                dfr0548__set_servo
 .text.dfr0548__compute_prescaler_from_frequency
                0x0000000000001484      0x104 C:\Users\aditi.DESKTOP-49PGKM5\OneDrive - USN\Dokumenter\ada\Ada_Drivers_Library_j\boards\MicroBit_v2\obj\zfp_lib_Debug\libada_drivers_library.a(dfr0548.o)
                0x0000000000001484                dfr0548__compute_prescaler_from_frequency
 .text.dfr0548__convert_wheel_pwm_registers
                0x0000000000001588      0x11c C:\Users\aditi.DESKTOP-49PGKM5\OneDrive - USN\Dokumenter\ada\Ada_Drivers_Library_j\boards\MicroBit_v2\obj\zfp_lib_Debug\libada_drivers_library.a(dfr0548.o)
                0x0000000000001588                dfr0548__convert_wheel_pwm_registers
 .text          0x00000000000016a4        0x0 C:\Users\aditi.DESKTOP-49PGKM5\OneDrive - USN\Dokumenter\ada\Ada_Drivers_Library_j\boards\MicroBit_v2\obj\zfp_lib_Debug\libada_drivers_library.a(memory_barriers.o)
 .text.memory_barriers__data_synchronization_barrier
                0x00000000000016a4       0x10 C:\Users\aditi.DESKTOP-49PGKM5\OneDrive - USN\Dokumenter\ada\Ada_Drivers_Library_j\boards\MicroBit_v2\obj\zfp_lib_Debug\libada_drivers_library.a(memory_barriers.o)
                0x00000000000016a4                memory_barriers__data_synchronization_barrier
 .text          0x00000000000016b4        0x0 C:\Users\aditi.DESKTOP-49PGKM5\OneDrive - USN\Dokumenter\ada\Ada_Drivers_Library_j\boards\MicroBit_v2\obj\zfp_lib_Debug\libada_drivers_library.a(microbit-console.o)
 .text.microbit__console__get
                0x00000000000016b4       0x38 C:\Users\aditi.DESKTOP-49PGKM5\OneDrive - USN\Dokumenter\ada\Ada_Drivers_Library_j\boards\MicroBit_v2\obj\zfp_lib_Debug\libada_drivers_library.a(microbit-console.o)
                0x00000000000016b4                microbit__console__get
 .text.microbit__console__put
                0x00000000000016ec       0x38 C:\Users\aditi.DESKTOP-49PGKM5\OneDrive - USN\Dokumenter\ada\Ada_Drivers_Library_j\boards\MicroBit_v2\obj\zfp_lib_Debug\libada_drivers_library.a(microbit-console.o)
                0x00000000000016ec                microbit__console__put
 .text.microbit__console__put__2
                0x0000000000001724       0xd4 C:\Users\aditi.DESKTOP-49PGKM5\OneDrive - USN\Dokumenter\ada\Ada_Drivers_Library_j\boards\MicroBit_v2\obj\zfp_lib_Debug\libada_drivers_library.a(microbit-console.o)
                0x0000000000001724                microbit__console__put__2
 .text.microbit__console__put_line
                0x00000000000017f8      0x154 C:\Users\aditi.DESKTOP-49PGKM5\OneDrive - USN\Dokumenter\ada\Ada_Drivers_Library_j\boards\MicroBit_v2\obj\zfp_lib_Debug\libada_drivers_library.a(microbit-console.o)
                0x00000000000017f8                microbit__console__put_line
 .text.microbit__console__new_line
                0x000000000000194c       0x1c C:\Users\aditi.DESKTOP-49PGKM5\OneDrive - USN\Dokumenter\ada\Ada_Drivers_Library_j\boards\MicroBit_v2\obj\zfp_lib_Debug\libada_drivers_library.a(microbit-console.o)
                0x000000000000194c                microbit__console__new_line
 .text.microbit__console___elabb
                0x0000000000001968       0x30 C:\Users\aditi.DESKTOP-49PGKM5\OneDrive - USN\Dokumenter\ada\Ada_Drivers_Library_j\boards\MicroBit_v2\obj\zfp_lib_Debug\libada_drivers_library.a(microbit-console.o)
                0x0000000000001968                microbit__console___elabb
 .text          0x0000000000001998        0x0 C:\Users\aditi.DESKTOP-49PGKM5\OneDrive - USN\Dokumenter\ada\Ada_Drivers_Library_j\boards\MicroBit_v2\obj\zfp_lib_Debug\libada_drivers_library.a(microbit-display-symbols.o)
 .text.microbit__display__symbols__left_arrow
                0x0000000000001998       0x58 C:\Users\aditi.DESKTOP-49PGKM5\OneDrive - USN\Dokumenter\ada\Ada_Drivers_Library_j\boards\MicroBit_v2\obj\zfp_lib_Debug\libada_drivers_library.a(microbit-display-symbols.o)
                0x0000000000001998                microbit__display__symbols__left_arrow
 .text.microbit__display__symbols__right_arrow
                0x00000000000019f0       0x50 C:\Users\aditi.DESKTOP-49PGKM5\OneDrive - USN\Dokumenter\ada\Ada_Drivers_Library_j\boards\MicroBit_v2\obj\zfp_lib_Debug\libada_drivers_library.a(microbit-display-symbols.o)
                0x00000000000019f0                microbit__display__symbols__right_arrow
 .text.microbit__display__symbols__up_arrow
                0x0000000000001a40       0x50 C:\Users\aditi.DESKTOP-49PGKM5\OneDrive - USN\Dokumenter\ada\Ada_Drivers_Library_j\boards\MicroBit_v2\obj\zfp_lib_Debug\libada_drivers_library.a(microbit-display-symbols.o)
                0x0000000000001a40                microbit__display__symbols__up_arrow
 .text.microbit__display__symbols__down_arrow
                0x0000000000001a90       0x50 C:\Users\aditi.DESKTOP-49PGKM5\OneDrive - USN\Dokumenter\ada\Ada_Drivers_Library_j\boards\MicroBit_v2\obj\zfp_lib_Debug\libada_drivers_library.a(microbit-display-symbols.o)
                0x0000000000001a90                microbit__display__symbols__down_arrow
 .text.microbit__display__symbols__smile
                0x0000000000001ae0       0x40 C:\Users\aditi.DESKTOP-49PGKM5\OneDrive - USN\Dokumenter\ada\Ada_Drivers_Library_j\boards\MicroBit_v2\obj\zfp_lib_Debug\libada_drivers_library.a(microbit-display-symbols.o)
                0x0000000000001ae0                microbit__display__symbols__smile
 .text.microbit__display__symbols__frown
                0x0000000000001b20       0x40 C:\Users\aditi.DESKTOP-49PGKM5\OneDrive - USN\Dokumenter\ada\Ada_Drivers_Library_j\boards\MicroBit_v2\obj\zfp_lib_Debug\libada_drivers_library.a(microbit-display-symbols.o)
                0x0000000000001b20                microbit__display__symbols__frown
 .text.microbit__display__symbols__cross
                0x0000000000001b60       0x50 C:\Users\aditi.DESKTOP-49PGKM5\OneDrive - USN\Dokumenter\ada\Ada_Drivers_Library_j\boards\MicroBit_v2\obj\zfp_lib_Debug\libada_drivers_library.a(microbit-display-symbols.o)
                0x0000000000001b60                microbit__display__symbols__cross
 .text.microbit__display__symbols__checkmark
                0x0000000000001bb0       0x30 C:\Users\aditi.DESKTOP-49PGKM5\OneDrive - USN\Dokumenter\ada\Ada_Drivers_Library_j\boards\MicroBit_v2\obj\zfp_lib_Debug\libada_drivers_library.a(microbit-display-symbols.o)
                0x0000000000001bb0                microbit__display__symbols__checkmark
 .text.microbit__display__symbols__heart
                0x0000000000001be0       0x58 C:\Users\aditi.DESKTOP-49PGKM5\OneDrive - USN\Dokumenter\ada\Ada_Drivers_Library_j\boards\MicroBit_v2\obj\zfp_lib_Debug\libada_drivers_library.a(microbit-display-symbols.o)
                0x0000000000001be0                microbit__display__symbols__heart
 .text          0x0000000000001c38        0x0 C:\Users\aditi.DESKTOP-49PGKM5\OneDrive - USN\Dokumenter\ada\Ada_Drivers_Library_j\boards\MicroBit_v2\obj\zfp_lib_Debug\libada_drivers_library.a(microbit-display.o)
 .text.microbit__display__led_pointIP
                0x0000000000001c38       0x14 C:\Users\aditi.DESKTOP-49PGKM5\OneDrive - USN\Dokumenter\ada\Ada_Drivers_Library_j\boards\MicroBit_v2\obj\zfp_lib_Debug\libada_drivers_library.a(microbit-display.o)
                0x0000000000001c38                microbit__display__led_pointIP
 .text.microbit__display__TglyphBIP
                0x0000000000001c4c       0x14 C:\Users\aditi.DESKTOP-49PGKM5\OneDrive - USN\Dokumenter\ada\Ada_Drivers_Library_j\boards\MicroBit_v2\obj\zfp_lib_Debug\libada_drivers_library.a(microbit-display.o)
                0x0000000000001c4c                microbit__display__TglyphBIP
 .text.microbit__display__print_c
                0x0000000000001c60       0xe8 C:\Users\aditi.DESKTOP-49PGKM5\OneDrive - USN\Dokumenter\ada\Ada_Drivers_Library_j\boards\MicroBit_v2\obj\zfp_lib_Debug\libada_drivers_library.a(microbit-display.o)
 .text.microbit__display__initialize
                0x0000000000001d48       0xb4 C:\Users\aditi.DESKTOP-49PGKM5\OneDrive - USN\Dokumenter\ada\Ada_Drivers_Library_j\boards\MicroBit_v2\obj\zfp_lib_Debug\libada_drivers_library.a(microbit-display.o)
 .text.microbit__display__tick_handler
                0x0000000000001dfc      0x1cc C:\Users\aditi.DESKTOP-49PGKM5\OneDrive - USN\Dokumenter\ada\Ada_Drivers_Library_j\boards\MicroBit_v2\obj\zfp_lib_Debug\libada_drivers_library.a(microbit-display.o)
 .text.microbit__display__update_animation
                0x0000000000001fc8      0x110 C:\Users\aditi.DESKTOP-49PGKM5\OneDrive - USN\Dokumenter\ada\Ada_Drivers_Library_j\boards\MicroBit_v2\obj\zfp_lib_Debug\libada_drivers_library.a(microbit-display.o)
 .text.microbit__display__set
                0x00000000000020d8       0x4c C:\Users\aditi.DESKTOP-49PGKM5\OneDrive - USN\Dokumenter\ada\Ada_Drivers_Library_j\boards\MicroBit_v2\obj\zfp_lib_Debug\libada_drivers_library.a(microbit-display.o)
                0x00000000000020d8                microbit__display__set
 .text.microbit__display__clear
                0x0000000000002124       0x4c C:\Users\aditi.DESKTOP-49PGKM5\OneDrive - USN\Dokumenter\ada\Ada_Drivers_Library_j\boards\MicroBit_v2\obj\zfp_lib_Debug\libada_drivers_library.a(microbit-display.o)
                0x0000000000002124                microbit__display__clear
 .text.microbit__display__clear__2
                0x0000000000002170       0x18 C:\Users\aditi.DESKTOP-49PGKM5\OneDrive - USN\Dokumenter\ada\Ada_Drivers_Library_j\boards\MicroBit_v2\obj\zfp_lib_Debug\libada_drivers_library.a(microbit-display.o)
                0x0000000000002170                microbit__display__clear__2
 .text.microbit__display__display
                0x0000000000002188       0x1c C:\Users\aditi.DESKTOP-49PGKM5\OneDrive - USN\Dokumenter\ada\Ada_Drivers_Library_j\boards\MicroBit_v2\obj\zfp_lib_Debug\libada_drivers_library.a(microbit-display.o)
                0x0000000000002188                microbit__display__display
 .text.microbit__display__display__2
                0x00000000000021a4       0x68 C:\Users\aditi.DESKTOP-49PGKM5\OneDrive - USN\Dokumenter\ada\Ada_Drivers_Library_j\boards\MicroBit_v2\obj\zfp_lib_Debug\libada_drivers_library.a(microbit-display.o)
                0x00000000000021a4                microbit__display__display__2
 .text.microbit__display__display_async
                0x000000000000220c      0x178 C:\Users\aditi.DESKTOP-49PGKM5\OneDrive - USN\Dokumenter\ada\Ada_Drivers_Library_j\boards\MicroBit_v2\obj\zfp_lib_Debug\libada_drivers_library.a(microbit-display.o)
                0x000000000000220c                microbit__display__display_async
 .text.microbit__display__shift_left
                0x0000000000002384       0x80 C:\Users\aditi.DESKTOP-49PGKM5\OneDrive - USN\Dokumenter\ada\Ada_Drivers_Library_j\boards\MicroBit_v2\obj\zfp_lib_Debug\libada_drivers_library.a(microbit-display.o)
                0x0000000000002384                microbit__display__shift_left
 .text.microbit__display__set_animation_step_duration
                0x0000000000002404       0x1c C:\Users\aditi.DESKTOP-49PGKM5\OneDrive - USN\Dokumenter\ada\Ada_Drivers_Library_j\boards\MicroBit_v2\obj\zfp_lib_Debug\libada_drivers_library.a(microbit-display.o)
                0x0000000000002404                microbit__display__set_animation_step_duration
 .text.microbit__display__animation_in_progress
                0x0000000000002420       0x24 C:\Users\aditi.DESKTOP-49PGKM5\OneDrive - USN\Dokumenter\ada\Ada_Drivers_Library_j\boards\MicroBit_v2\obj\zfp_lib_Debug\libada_drivers_library.a(microbit-display.o)
                0x0000000000002420                microbit__display__animation_in_progress
 .text.microbit__display___elabb
                0x0000000000002444      0x104 C:\Users\aditi.DESKTOP-49PGKM5\OneDrive - USN\Dokumenter\ada\Ada_Drivers_Library_j\boards\MicroBit_v2\obj\zfp_lib_Debug\libada_drivers_library.a(microbit-display.o)
                0x0000000000002444                microbit__display___elabb
 .text          0x0000000000002548        0x0 C:\Users\aditi.DESKTOP-49PGKM5\OneDrive - USN\Dokumenter\ada\Ada_Drivers_Library_j\boards\MicroBit_v2\obj\zfp_lib_Debug\libada_drivers_library.a(microbit-i2c.o)
 .text.microbit__i2c__initialized
                0x0000000000002548       0x18 C:\Users\aditi.DESKTOP-49PGKM5\OneDrive - USN\Dokumenter\ada\Ada_Drivers_Library_j\boards\MicroBit_v2\obj\zfp_lib_Debug\libada_drivers_library.a(microbit-i2c.o)
                0x0000000000002548                microbit__i2c__initialized
 .text.microbit__i2c__initializedext
                0x0000000000002560       0x18 C:\Users\aditi.DESKTOP-49PGKM5\OneDrive - USN\Dokumenter\ada\Ada_Drivers_Library_j\boards\MicroBit_v2\obj\zfp_lib_Debug\libada_drivers_library.a(microbit-i2c.o)
                0x0000000000002560                microbit__i2c__initializedext
 .text.microbit__i2c__initialize___postconditions.0
                0x0000000000002578       0x34 C:\Users\aditi.DESKTOP-49PGKM5\OneDrive - USN\Dokumenter\ada\Ada_Drivers_Library_j\boards\MicroBit_v2\obj\zfp_lib_Debug\libada_drivers_library.a(microbit-i2c.o)
 .text.microbit__i2c__initialize
                0x00000000000025ac       0x78 C:\Users\aditi.DESKTOP-49PGKM5\OneDrive - USN\Dokumenter\ada\Ada_Drivers_Library_j\boards\MicroBit_v2\obj\zfp_lib_Debug\libada_drivers_library.a(microbit-i2c.o)
                0x00000000000025ac                microbit__i2c__initialize
 .text.microbit__i2c__initializeext___postconditions.1
                0x0000000000002624       0x34 C:\Users\aditi.DESKTOP-49PGKM5\OneDrive - USN\Dokumenter\ada\Ada_Drivers_Library_j\boards\MicroBit_v2\obj\zfp_lib_Debug\libada_drivers_library.a(microbit-i2c.o)
 .text.microbit__i2c__initializeext
                0x0000000000002658       0x78 C:\Users\aditi.DESKTOP-49PGKM5\OneDrive - USN\Dokumenter\ada\Ada_Drivers_Library_j\boards\MicroBit_v2\obj\zfp_lib_Debug\libada_drivers_library.a(microbit-i2c.o)
                0x0000000000002658                microbit__i2c__initializeext
 .text.microbit__i2c__controller
                0x00000000000026d0       0x18 C:\Users\aditi.DESKTOP-49PGKM5\OneDrive - USN\Dokumenter\ada\Ada_Drivers_Library_j\boards\MicroBit_v2\obj\zfp_lib_Debug\libada_drivers_library.a(microbit-i2c.o)
                0x00000000000026d0                microbit__i2c__controller
 .text.microbit__i2c__controllerext
                0x00000000000026e8       0x18 C:\Users\aditi.DESKTOP-49PGKM5\OneDrive - USN\Dokumenter\ada\Ada_Drivers_Library_j\boards\MicroBit_v2\obj\zfp_lib_Debug\libada_drivers_library.a(microbit-i2c.o)
                0x00000000000026e8                microbit__i2c__controllerext
 .text          0x0000000000002700        0x0 C:\Users\aditi.DESKTOP-49PGKM5\OneDrive - USN\Dokumenter\ada\Ada_Drivers_Library_j\boards\MicroBit_v2\obj\zfp_lib_Debug\libada_drivers_library.a(microbit-motordriver.o)
 .text.microbit__motordriver__speedsIP
                0x0000000000002700       0x14 C:\Users\aditi.DESKTOP-49PGKM5\OneDrive - USN\Dokumenter\ada\Ada_Drivers_Library_j\boards\MicroBit_v2\obj\zfp_lib_Debug\libada_drivers_library.a(microbit-motordriver.o)
                0x0000000000002700                microbit__motordriver__speedsIP
 .text.microbit__motordriver__initialize
                0x0000000000002714       0x30 C:\Users\aditi.DESKTOP-49PGKM5\OneDrive - USN\Dokumenter\ada\Ada_Drivers_Library_j\boards\MicroBit_v2\obj\zfp_lib_Debug\libada_drivers_library.a(microbit-motordriver.o)
                0x0000000000002714                microbit__motordriver__initialize
 .text.microbit__motordriver__drive
                0x0000000000002744      0x32c C:\Users\aditi.DESKTOP-49PGKM5\OneDrive - USN\Dokumenter\ada\Ada_Drivers_Library_j\boards\MicroBit_v2\obj\zfp_lib_Debug\libada_drivers_library.a(microbit-motordriver.o)
                0x0000000000002744                microbit__motordriver__drive
 .text.microbit__motordriver__drive_wheels
                0x0000000000002a70       0x28 C:\Users\aditi.DESKTOP-49PGKM5\OneDrive - USN\Dokumenter\ada\Ada_Drivers_Library_j\boards\MicroBit_v2\obj\zfp_lib_Debug\libada_drivers_library.a(microbit-motordriver.o)
                0x0000000000002a70                microbit__motordriver__drive_wheels
 .text.microbit__motordriver__servo
                0x0000000000002a98       0x2c C:\Users\aditi.DESKTOP-49PGKM5\OneDrive - USN\Dokumenter\ada\Ada_Drivers_Library_j\boards\MicroBit_v2\obj\zfp_lib_Debug\libada_drivers_library.a(microbit-motordriver.o)
                0x0000000000002a98                microbit__motordriver__servo
 .text.microbit__motordriver___elabb
                0x0000000000002ac4       0x2c C:\Users\aditi.DESKTOP-49PGKM5\OneDrive - USN\Dokumenter\ada\Ada_Drivers_Library_j\boards\MicroBit_v2\obj\zfp_lib_Debug\libada_drivers_library.a(microbit-motordriver.o)
                0x0000000000002ac4                microbit__motordriver___elabb
 .text          0x0000000000002af0        0x0 C:\Users\aditi.DESKTOP-49PGKM5\OneDrive - USN\Dokumenter\ada\Ada_Drivers_Library_j\boards\MicroBit_v2\obj\zfp_lib_Debug\libada_drivers_library.a(microbit-radio.o)
 .text.microbit__radio__state
                0x0000000000002af0      0x110 C:\Users\aditi.DESKTOP-49PGKM5\OneDrive - USN\Dokumenter\ada\Ada_Drivers_Library_j\boards\MicroBit_v2\obj\zfp_lib_Debug\libada_drivers_library.a(microbit-radio.o)
                0x0000000000002af0                microbit__radio__state
 .text.microbit__radio__isinitialized
                0x0000000000002c00       0x10 C:\Users\aditi.DESKTOP-49PGKM5\OneDrive - USN\Dokumenter\ada\Ada_Drivers_Library_j\boards\MicroBit_v2\obj\zfp_lib_Debug\libada_drivers_library.a(microbit-radio.o)
                0x0000000000002c00                microbit__radio__isinitialized
 .text.microbit__radio__dataready
                0x0000000000002c10       0x10 C:\Users\aditi.DESKTOP-49PGKM5\OneDrive - USN\Dokumenter\ada\Ada_Drivers_Library_j\boards\MicroBit_v2\obj\zfp_lib_Debug\libada_drivers_library.a(microbit-radio.o)
                0x0000000000002c10                microbit__radio__dataready
 .text.microbit__radio__receive
                0x0000000000002c20       0x34 C:\Users\aditi.DESKTOP-49PGKM5\OneDrive - USN\Dokumenter\ada\Ada_Drivers_Library_j\boards\MicroBit_v2\obj\zfp_lib_Debug\libada_drivers_library.a(microbit-radio.o)
                0x0000000000002c20                microbit__radio__receive
 .text.microbit__radio__transmit
                0x0000000000002c54       0x80 C:\Users\aditi.DESKTOP-49PGKM5\OneDrive - USN\Dokumenter\ada\Ada_Drivers_Library_j\boards\MicroBit_v2\obj\zfp_lib_Debug\libada_drivers_library.a(microbit-radio.o)
                0x0000000000002c54                microbit__radio__transmit
 .text.microbit__radio__enable
                0x0000000000002cd4       0x4c C:\Users\aditi.DESKTOP-49PGKM5\OneDrive - USN\Dokumenter\ada\Ada_Drivers_Library_j\boards\MicroBit_v2\obj\zfp_lib_Debug\libada_drivers_library.a(microbit-radio.o)
 .text.microbit__radio__setup
                0x0000000000002d20       0x5c C:\Users\aditi.DESKTOP-49PGKM5\OneDrive - USN\Dokumenter\ada\Ada_Drivers_Library_j\boards\MicroBit_v2\obj\zfp_lib_Debug\libada_drivers_library.a(microbit-radio.o)
                0x0000000000002d20                microbit__radio__setup
 .text.microbit__radio__transmitandwait
                0x0000000000002d7c       0x2c C:\Users\aditi.DESKTOP-49PGKM5\OneDrive - USN\Dokumenter\ada\Ada_Drivers_Library_j\boards\MicroBit_v2\obj\zfp_lib_Debug\libada_drivers_library.a(microbit-radio.o)
                0x0000000000002d7c                microbit__radio__transmitandwait
 .text.microbit__radio__startreceiving
                0x0000000000002da8       0x38 C:\Users\aditi.DESKTOP-49PGKM5\OneDrive - USN\Dokumenter\ada\Ada_Drivers_Library_j\boards\MicroBit_v2\obj\zfp_lib_Debug\libada_drivers_library.a(microbit-radio.o)
                0x0000000000002da8                microbit__radio__startreceiving
 .text.microbit__radio__stopreceiving
                0x0000000000002de0       0x30 C:\Users\aditi.DESKTOP-49PGKM5\OneDrive - USN\Dokumenter\ada\Ada_Drivers_Library_j\boards\MicroBit_v2\obj\zfp_lib_Debug\libada_drivers_library.a(microbit-radio.o)
                0x0000000000002de0                microbit__radio__stopreceiving
 .text.microbit__radio__headerok
                0x0000000000002e10       0x4c C:\Users\aditi.DESKTOP-49PGKM5\OneDrive - USN\Dokumenter\ada\Ada_Drivers_Library_j\boards\MicroBit_v2\obj\zfp_lib_Debug\libada_drivers_library.a(microbit-radio.o)
                0x0000000000002e10                microbit__radio__headerok
 .text.microbit__radio__radio_irqhandler
                0x0000000000002e5c       0xb4 C:\Users\aditi.DESKTOP-49PGKM5\OneDrive - USN\Dokumenter\ada\Ada_Drivers_Library_j\boards\MicroBit_v2\obj\zfp_lib_Debug\libada_drivers_library.a(microbit-radio.o)
                0x0000000000002e5c                microbit__radio__radio_irqhandler
 .text          0x0000000000002f10        0x0 C:\Users\aditi.DESKTOP-49PGKM5\OneDrive - USN\Dokumenter\ada\Ada_Drivers_Library_j\boards\MicroBit_v2\obj\zfp_lib_Debug\libada_drivers_library.a(microbit-time-highspeed.o)
 .text.microbit__time__highspeed__initialize
                0x0000000000002f10       0x2c C:\Users\aditi.DESKTOP-49PGKM5\OneDrive - USN\Dokumenter\ada\Ada_Drivers_Library_j\boards\MicroBit_v2\obj\zfp_lib_Debug\libada_drivers_library.a(microbit-time-highspeed.o)
 .text.microbit__time__highspeed__delay_us
                0x0000000000002f3c       0x94 C:\Users\aditi.DESKTOP-49PGKM5\OneDrive - USN\Dokumenter\ada\Ada_Drivers_Library_j\boards\MicroBit_v2\obj\zfp_lib_Debug\libada_drivers_library.a(microbit-time-highspeed.o)
                0x0000000000002f3c                microbit__time__highspeed__delay_us
 .text.microbit__time__highspeed___elabb
                0x0000000000002fd0        0xc C:\Users\aditi.DESKTOP-49PGKM5\OneDrive - USN\Dokumenter\ada\Ada_Drivers_Library_j\boards\MicroBit_v2\obj\zfp_lib_Debug\libada_drivers_library.a(microbit-time-highspeed.o)
                0x0000000000002fd0                microbit__time__highspeed___elabb
 .text          0x0000000000002fdc        0x0 C:\Users\aditi.DESKTOP-49PGKM5\OneDrive - USN\Dokumenter\ada\Ada_Drivers_Library_j\boards\MicroBit_v2\obj\zfp_lib_Debug\libada_drivers_library.a(microbit-time.o)
 .text.microbit__time__mb_delaysIP
                0x0000000000002fdc       0x28 C:\Users\aditi.DESKTOP-49PGKM5\OneDrive - USN\Dokumenter\ada\Ada_Drivers_Library_j\boards\MicroBit_v2\obj\zfp_lib_Debug\libada_drivers_library.a(microbit-time.o)
                0x0000000000002fdc                microbit__time__mb_delaysIP
 .text.microbit__time___size__2
                0x0000000000003004       0x20 C:\Users\aditi.DESKTOP-49PGKM5\OneDrive - USN\Dokumenter\ada\Ada_Drivers_Library_j\boards\MicroBit_v2\obj\zfp_lib_Debug\libada_drivers_library.a(microbit-time.o)
                0x0000000000003004                microbit__time___size__2
 .text.microbit__time__Oeq
                0x0000000000003024       0x18 C:\Users\aditi.DESKTOP-49PGKM5\OneDrive - USN\Dokumenter\ada\Ada_Drivers_Library_j\boards\MicroBit_v2\obj\zfp_lib_Debug\libada_drivers_library.a(microbit-time.o)
                0x0000000000003024                microbit__time__Oeq
 .text.microbit__time___assign
                0x000000000000303c       0x24 C:\Users\aditi.DESKTOP-49PGKM5\OneDrive - USN\Dokumenter\ada\Ada_Drivers_Library_j\boards\MicroBit_v2\obj\zfp_lib_Debug\libada_drivers_library.a(microbit-time.o)
                0x000000000000303c                microbit__time___assign
 .text.microbit__time__initialize
                0x0000000000003060       0x7c C:\Users\aditi.DESKTOP-49PGKM5\OneDrive - USN\Dokumenter\ada\Ada_Drivers_Library_j\boards\MicroBit_v2\obj\zfp_lib_Debug\libada_drivers_library.a(microbit-time.o)
 .text.microbit__time__update_clock
                0x00000000000030dc       0x24 C:\Users\aditi.DESKTOP-49PGKM5\OneDrive - USN\Dokumenter\ada\Ada_Drivers_Library_j\boards\MicroBit_v2\obj\zfp_lib_Debug\libada_drivers_library.a(microbit-time.o)
 .text.microbit__time__rtc1_irqhandler
                0x0000000000003100       0x80 C:\Users\aditi.DESKTOP-49PGKM5\OneDrive - USN\Dokumenter\ada\Ada_Drivers_Library_j\boards\MicroBit_v2\obj\zfp_lib_Debug\libada_drivers_library.a(microbit-time.o)
 .text.microbit__time__clock
                0x0000000000003180       0x1c C:\Users\aditi.DESKTOP-49PGKM5\OneDrive - USN\Dokumenter\ada\Ada_Drivers_Library_j\boards\MicroBit_v2\obj\zfp_lib_Debug\libada_drivers_library.a(microbit-time.o)
                0x0000000000003180                microbit__time__clock
 .text.microbit__time__delay_ms
                0x000000000000319c       0x38 C:\Users\aditi.DESKTOP-49PGKM5\OneDrive - USN\Dokumenter\ada\Ada_Drivers_Library_j\boards\MicroBit_v2\obj\zfp_lib_Debug\libada_drivers_library.a(microbit-time.o)
                0x000000000000319c                microbit__time__delay_ms
 .text.microbit__time__tick_period
                0x00000000000031d4       0x1c C:\Users\aditi.DESKTOP-49PGKM5\OneDrive - USN\Dokumenter\ada\Ada_Drivers_Library_j\boards\MicroBit_v2\obj\zfp_lib_Debug\libada_drivers_library.a(microbit-time.o)
                0x00000000000031d4                microbit__time__tick_period
 .text.microbit__time__tick_subscriber
                0x00000000000031f0       0x44 C:\Users\aditi.DESKTOP-49PGKM5\OneDrive - USN\Dokumenter\ada\Ada_Drivers_Library_j\boards\MicroBit_v2\obj\zfp_lib_Debug\libada_drivers_library.a(microbit-time.o)
                0x00000000000031f0                microbit__time__tick_subscriber
 .text.microbit__time__tick_subscribe___postconditions.0
                0x0000000000003234       0x48 C:\Users\aditi.DESKTOP-49PGKM5\OneDrive - USN\Dokumenter\ada\Ada_Drivers_Library_j\boards\MicroBit_v2\obj\zfp_lib_Debug\libada_drivers_library.a(microbit-time.o)
 .text.microbit__time__tick_subscribe
                0x000000000000327c       0x8c C:\Users\aditi.DESKTOP-49PGKM5\OneDrive - USN\Dokumenter\ada\Ada_Drivers_Library_j\boards\MicroBit_v2\obj\zfp_lib_Debug\libada_drivers_library.a(microbit-time.o)
                0x000000000000327c                microbit__time__tick_subscribe
 .text.microbit__time__tick_unsubscribe___postconditions.1
                0x0000000000003308       0x50 C:\Users\aditi.DESKTOP-49PGKM5\OneDrive - USN\Dokumenter\ada\Ada_Drivers_Library_j\boards\MicroBit_v2\obj\zfp_lib_Debug\libada_drivers_library.a(microbit-time.o)
 .text.microbit__time__tick_unsubscribe
                0x0000000000003358       0x94 C:\Users\aditi.DESKTOP-49PGKM5\OneDrive - USN\Dokumenter\ada\Ada_Drivers_Library_j\boards\MicroBit_v2\obj\zfp_lib_Debug\libada_drivers_library.a(microbit-time.o)
                0x0000000000003358                microbit__time__tick_unsubscribe
 .text.microbit__time__hal_delay
                0x00000000000033ec       0x18 C:\Users\aditi.DESKTOP-49PGKM5\OneDrive - USN\Dokumenter\ada\Ada_Drivers_Library_j\boards\MicroBit_v2\obj\zfp_lib_Debug\libada_drivers_library.a(microbit-time.o)
                0x00000000000033ec                microbit__time__hal_delay
 .text.microbit__time__delay_microseconds__2
                0x0000000000003404       0x44 C:\Users\aditi.DESKTOP-49PGKM5\OneDrive - USN\Dokumenter\ada\Ada_Drivers_Library_j\boards\MicroBit_v2\obj\zfp_lib_Debug\libada_drivers_library.a(microbit-time.o)
                0x0000000000003404                microbit__time__delay_microseconds__2
 .text.microbit__time__delay_milliseconds__2
                0x0000000000003448       0x34 C:\Users\aditi.DESKTOP-49PGKM5\OneDrive - USN\Dokumenter\ada\Ada_Drivers_Library_j\boards\MicroBit_v2\obj\zfp_lib_Debug\libada_drivers_library.a(microbit-time.o)
                0x0000000000003448                microbit__time__delay_milliseconds__2
 .text.microbit__time__delay_seconds__2
                0x000000000000347c       0x58 C:\Users\aditi.DESKTOP-49PGKM5\OneDrive - USN\Dokumenter\ada\Ada_Drivers_Library_j\boards\MicroBit_v2\obj\zfp_lib_Debug\libada_drivers_library.a(microbit-time.o)
                0x000000000000347c                microbit__time__delay_seconds__2
 .text.microbit__time___elabb
                0x00000000000034d4       0x18 C:\Users\aditi.DESKTOP-49PGKM5\OneDrive - USN\Dokumenter\ada\Ada_Drivers_Library_j\boards\MicroBit_v2\obj\zfp_lib_Debug\libada_drivers_library.a(microbit-time.o)
                0x00000000000034d4                microbit__time___elabb
 .text          0x00000000000034ec        0x0 C:\Users\aditi.DESKTOP-49PGKM5\OneDrive - USN\Dokumenter\ada\Ada_Drivers_Library_j\boards\MicroBit_v2\obj\zfp_lib_Debug\libada_drivers_library.a(microbit-ultrasonic.o)
 .text          0x00000000000034ec        0x0 C:\Users\aditi.DESKTOP-49PGKM5\OneDrive - USN\Dokumenter\ada\Ada_Drivers_Library_j\boards\MicroBit_v2\obj\zfp_lib_Debug\libada_drivers_library.a(nrf-clock.o)
 .text.nrf__clock__set_high_freq_external_frequency
                0x00000000000034ec       0x18 C:\Users\aditi.DESKTOP-49PGKM5\OneDrive - USN\Dokumenter\ada\Ada_Drivers_Library_j\boards\MicroBit_v2\obj\zfp_lib_Debug\libada_drivers_library.a(nrf-clock.o)
                0x00000000000034ec                nrf__clock__set_high_freq_external_frequency
 .text.nrf__clock__set_high_freq_source
                0x0000000000003504       0x4c C:\Users\aditi.DESKTOP-49PGKM5\OneDrive - USN\Dokumenter\ada\Ada_Drivers_Library_j\boards\MicroBit_v2\obj\zfp_lib_Debug\libada_drivers_library.a(nrf-clock.o)
                0x0000000000003504                nrf__clock__set_high_freq_source
 .text.nrf__clock__high_freq_source
                0x0000000000003550       0x34 C:\Users\aditi.DESKTOP-49PGKM5\OneDrive - USN\Dokumenter\ada\Ada_Drivers_Library_j\boards\MicroBit_v2\obj\zfp_lib_Debug\libada_drivers_library.a(nrf-clock.o)
                0x0000000000003550                nrf__clock__high_freq_source
 .text.nrf__clock__high_freq_running
                0x0000000000003584       0x30 C:\Users\aditi.DESKTOP-49PGKM5\OneDrive - USN\Dokumenter\ada\Ada_Drivers_Library_j\boards\MicroBit_v2\obj\zfp_lib_Debug\libada_drivers_library.a(nrf-clock.o)
                0x0000000000003584                nrf__clock__high_freq_running
 .text.nrf__clock__start_high_freq
                0x00000000000035b4       0x10 C:\Users\aditi.DESKTOP-49PGKM5\OneDrive - USN\Dokumenter\ada\Ada_Drivers_Library_j\boards\MicroBit_v2\obj\zfp_lib_Debug\libada_drivers_library.a(nrf-clock.o)
                0x00000000000035b4                nrf__clock__start_high_freq
 .text.nrf__clock__stop_high_freq
                0x00000000000035c4       0x10 C:\Users\aditi.DESKTOP-49PGKM5\OneDrive - USN\Dokumenter\ada\Ada_Drivers_Library_j\boards\MicroBit_v2\obj\zfp_lib_Debug\libada_drivers_library.a(nrf-clock.o)
                0x00000000000035c4                nrf__clock__stop_high_freq
 .text.nrf__clock__set_low_freq_source
                0x00000000000035d4       0x5c C:\Users\aditi.DESKTOP-49PGKM5\OneDrive - USN\Dokumenter\ada\Ada_Drivers_Library_j\boards\MicroBit_v2\obj\zfp_lib_Debug\libada_drivers_library.a(nrf-clock.o)
                0x00000000000035d4                nrf__clock__set_low_freq_source
 .text.nrf__clock__low_freq_source
                0x0000000000003630       0x40 C:\Users\aditi.DESKTOP-49PGKM5\OneDrive - USN\Dokumenter\ada\Ada_Drivers_Library_j\boards\MicroBit_v2\obj\zfp_lib_Debug\libada_drivers_library.a(nrf-clock.o)
                0x0000000000003630                nrf__clock__low_freq_source
 .text.nrf__clock__low_freq_running
                0x0000000000003670       0x30 C:\Users\aditi.DESKTOP-49PGKM5\OneDrive - USN\Dokumenter\ada\Ada_Drivers_Library_j\boards\MicroBit_v2\obj\zfp_lib_Debug\libada_drivers_library.a(nrf-clock.o)
                0x0000000000003670                nrf__clock__low_freq_running
 .text.nrf__clock__start_low_freq
                0x00000000000036a0       0x10 C:\Users\aditi.DESKTOP-49PGKM5\OneDrive - USN\Dokumenter\ada\Ada_Drivers_Library_j\boards\MicroBit_v2\obj\zfp_lib_Debug\libada_drivers_library.a(nrf-clock.o)
                0x00000000000036a0                nrf__clock__start_low_freq
 .text.nrf__clock__stop_low_freq
                0x00000000000036b0       0x10 C:\Users\aditi.DESKTOP-49PGKM5\OneDrive - USN\Dokumenter\ada\Ada_Drivers_Library_j\boards\MicroBit_v2\obj\zfp_lib_Debug\libada_drivers_library.a(nrf-clock.o)
                0x00000000000036b0                nrf__clock__stop_low_freq
 .text          0x00000000000036c0        0x0 C:\Users\aditi.DESKTOP-49PGKM5\OneDrive - USN\Dokumenter\ada\Ada_Drivers_Library_j\boards\MicroBit_v2\obj\zfp_lib_Debug\libada_drivers_library.a(nrf-device.o)
 .text.nrf__device__errata_12
                0x00000000000036c0       0x58 C:\Users\aditi.DESKTOP-49PGKM5\OneDrive - USN\Dokumenter\ada\Ada_Drivers_Library_j\boards\MicroBit_v2\obj\zfp_lib_Debug\libada_drivers_library.a(nrf-device.o)
 .text.nrf__device__errata_16
                0x0000000000003718       0x44 C:\Users\aditi.DESKTOP-49PGKM5\OneDrive - USN\Dokumenter\ada\Ada_Drivers_Library_j\boards\MicroBit_v2\obj\zfp_lib_Debug\libada_drivers_library.a(nrf-device.o)
 .text.nrf__device__errata_31
                0x000000000000375c       0x10 C:\Users\aditi.DESKTOP-49PGKM5\OneDrive - USN\Dokumenter\ada\Ada_Drivers_Library_j\boards\MicroBit_v2\obj\zfp_lib_Debug\libada_drivers_library.a(nrf-device.o)
 .text.nrf__device__errata_32
                0x000000000000376c       0x10 C:\Users\aditi.DESKTOP-49PGKM5\OneDrive - USN\Dokumenter\ada\Ada_Drivers_Library_j\boards\MicroBit_v2\obj\zfp_lib_Debug\libada_drivers_library.a(nrf-device.o)
 .text.nrf__device__errata_36
                0x000000000000377c       0x10 C:\Users\aditi.DESKTOP-49PGKM5\OneDrive - USN\Dokumenter\ada\Ada_Drivers_Library_j\boards\MicroBit_v2\obj\zfp_lib_Debug\libada_drivers_library.a(nrf-device.o)
 .text.nrf__device__errata_37
                0x000000000000378c       0x10 C:\Users\aditi.DESKTOP-49PGKM5\OneDrive - USN\Dokumenter\ada\Ada_Drivers_Library_j\boards\MicroBit_v2\obj\zfp_lib_Debug\libada_drivers_library.a(nrf-device.o)
 .text.nrf__device__errata_57
                0x000000000000379c       0x10 C:\Users\aditi.DESKTOP-49PGKM5\OneDrive - USN\Dokumenter\ada\Ada_Drivers_Library_j\boards\MicroBit_v2\obj\zfp_lib_Debug\libada_drivers_library.a(nrf-device.o)
 .text.nrf__device__errata_66
                0x00000000000037ac       0x44 C:\Users\aditi.DESKTOP-49PGKM5\OneDrive - USN\Dokumenter\ada\Ada_Drivers_Library_j\boards\MicroBit_v2\obj\zfp_lib_Debug\libada_drivers_library.a(nrf-device.o)
 .text.nrf__device__errata_108
                0x00000000000037f0       0x10 C:\Users\aditi.DESKTOP-49PGKM5\OneDrive - USN\Dokumenter\ada\Ada_Drivers_Library_j\boards\MicroBit_v2\obj\zfp_lib_Debug\libada_drivers_library.a(nrf-device.o)
 .text.nrf__device__errata_136
                0x0000000000003800       0x10 C:\Users\aditi.DESKTOP-49PGKM5\OneDrive - USN\Dokumenter\ada\Ada_Drivers_Library_j\boards\MicroBit_v2\obj\zfp_lib_Debug\libada_drivers_library.a(nrf-device.o)
 .text.nrf__device__errata_182
                0x0000000000003810       0x40 C:\Users\aditi.DESKTOP-49PGKM5\OneDrive - USN\Dokumenter\ada\Ada_Drivers_Library_j\boards\MicroBit_v2\obj\zfp_lib_Debug\libada_drivers_library.a(nrf-device.o)
 .text.nrf__device___elabb
                0x0000000000003850      0x408 C:\Users\aditi.DESKTOP-49PGKM5\OneDrive - USN\Dokumenter\ada\Ada_Drivers_Library_j\boards\MicroBit_v2\obj\zfp_lib_Debug\libada_drivers_library.a(nrf-device.o)
                0x0000000000003850                nrf__device___elabb
 .text.nrf__device___elabs
                0x0000000000003c58      0x40c C:\Users\aditi.DESKTOP-49PGKM5\OneDrive - USN\Dokumenter\ada\Ada_Drivers_Library_j\boards\MicroBit_v2\obj\zfp_lib_Debug\libada_drivers_library.a(nrf-device.o)
                0x0000000000003c58                nrf__device___elabs
 .text          0x0000000000004064        0x0 C:\Users\aditi.DESKTOP-49PGKM5\OneDrive - USN\Dokumenter\ada\Ada_Drivers_Library_j\boards\MicroBit_v2\obj\zfp_lib_Debug\libada_drivers_library.a(nrf-events.o)
 .text.nrf__events__triggered
                0x0000000000004064       0x3c C:\Users\aditi.DESKTOP-49PGKM5\OneDrive - USN\Dokumenter\ada\Ada_Drivers_Library_j\boards\MicroBit_v2\obj\zfp_lib_Debug\libada_drivers_library.a(nrf-events.o)
                0x0000000000004064                nrf__events__triggered
 .text.nrf__events__enable_interrupt
                0x00000000000040a0       0x70 C:\Users\aditi.DESKTOP-49PGKM5\OneDrive - USN\Dokumenter\ada\Ada_Drivers_Library_j\boards\MicroBit_v2\obj\zfp_lib_Debug\libada_drivers_library.a(nrf-events.o)
                0x00000000000040a0                nrf__events__enable_interrupt
 .text.nrf__events__disable_interrupt
                0x0000000000004110       0x70 C:\Users\aditi.DESKTOP-49PGKM5\OneDrive - USN\Dokumenter\ada\Ada_Drivers_Library_j\boards\MicroBit_v2\obj\zfp_lib_Debug\libada_drivers_library.a(nrf-events.o)
                0x0000000000004110                nrf__events__disable_interrupt
 .text.nrf__events__clear
                0x0000000000004180       0x30 C:\Users\aditi.DESKTOP-49PGKM5\OneDrive - USN\Dokumenter\ada\Ada_Drivers_Library_j\boards\MicroBit_v2\obj\zfp_lib_Debug\libada_drivers_library.a(nrf-events.o)
                0x0000000000004180                nrf__events__clear
 .text.nrf__events__get_address
                0x00000000000041b0       0x18 C:\Users\aditi.DESKTOP-49PGKM5\OneDrive - USN\Dokumenter\ada\Ada_Drivers_Library_j\boards\MicroBit_v2\obj\zfp_lib_Debug\libada_drivers_library.a(nrf-events.o)
                0x00000000000041b0                nrf__events__get_address
 .text.nrf__events__get_address__2
                0x00000000000041c8       0x18 C:\Users\aditi.DESKTOP-49PGKM5\OneDrive - USN\Dokumenter\ada\Ada_Drivers_Library_j\boards\MicroBit_v2\obj\zfp_lib_Debug\libada_drivers_library.a(nrf-events.o)
                0x00000000000041c8                nrf__events__get_address__2
 .text          0x00000000000041e0        0x0 C:\Users\aditi.DESKTOP-49PGKM5\OneDrive - USN\Dokumenter\ada\Ada_Drivers_Library_j\boards\MicroBit_v2\obj\zfp_lib_Debug\libada_drivers_library.a(nrf-gpio.o)
 .text.nrf__gpio__gpio_configurationIP
                0x00000000000041e0       0x24 C:\Users\aditi.DESKTOP-49PGKM5\OneDrive - USN\Dokumenter\ada\Ada_Drivers_Library_j\boards\MicroBit_v2\obj\zfp_lib_Debug\libada_drivers_library.a(nrf-gpio.o)
                0x00000000000041e0                nrf__gpio__gpio_configurationIP
 .text.nrf__gpio__gpio_pointIP
                0x0000000000004204       0x28 C:\Users\aditi.DESKTOP-49PGKM5\OneDrive - USN\Dokumenter\ada\Ada_Drivers_Library_j\boards\MicroBit_v2\obj\zfp_lib_Debug\libada_drivers_library.a(nrf-gpio.o)
                0x0000000000004204                nrf__gpio__gpio_pointIP
 .text.nrf__gpio___size
                0x000000000000422c       0x20 C:\Users\aditi.DESKTOP-49PGKM5\OneDrive - USN\Dokumenter\ada\Ada_Drivers_Library_j\boards\MicroBit_v2\obj\zfp_lib_Debug\libada_drivers_library.a(nrf-gpio.o)
                0x000000000000422c                nrf__gpio___size
 .text.nrf__gpio__Oeq
                0x000000000000424c       0x28 C:\Users\aditi.DESKTOP-49PGKM5\OneDrive - USN\Dokumenter\ada\Ada_Drivers_Library_j\boards\MicroBit_v2\obj\zfp_lib_Debug\libada_drivers_library.a(nrf-gpio.o)
                0x000000000000424c                nrf__gpio__Oeq
 .text.nrf__gpio___assign
                0x0000000000004274       0x28 C:\Users\aditi.DESKTOP-49PGKM5\OneDrive - USN\Dokumenter\ada\Ada_Drivers_Library_j\boards\MicroBit_v2\obj\zfp_lib_Debug\libada_drivers_library.a(nrf-gpio.o)
                0x0000000000004274                nrf__gpio___assign
 .text.nrf__gpio__support
                0x000000000000429c       0x2c C:\Users\aditi.DESKTOP-49PGKM5\OneDrive - USN\Dokumenter\ada\Ada_Drivers_Library_j\boards\MicroBit_v2\obj\zfp_lib_Debug\libada_drivers_library.a(nrf-gpio.o)
                0x000000000000429c                nrf__gpio__support
 .text.nrf__gpio__mode
                0x00000000000042c8       0xd8 C:\Users\aditi.DESKTOP-49PGKM5\OneDrive - USN\Dokumenter\ada\Ada_Drivers_Library_j\boards\MicroBit_v2\obj\zfp_lib_Debug\libada_drivers_library.a(nrf-gpio.o)
                0x00000000000042c8                nrf__gpio__mode
 .text.nrf__gpio__set_mode
                0x00000000000043a0      0x1b4 C:\Users\aditi.DESKTOP-49PGKM5\OneDrive - USN\Dokumenter\ada\Ada_Drivers_Library_j\boards\MicroBit_v2\obj\zfp_lib_Debug\libada_drivers_library.a(nrf-gpio.o)
                0x00000000000043a0                nrf__gpio__set_mode
 .text.nrf__gpio__set
                0x0000000000004554       0x8c C:\Users\aditi.DESKTOP-49PGKM5\OneDrive - USN\Dokumenter\ada\Ada_Drivers_Library_j\boards\MicroBit_v2\obj\zfp_lib_Debug\libada_drivers_library.a(nrf-gpio.o)
                0x0000000000004554                nrf__gpio__set
 .text.nrf__gpio__pull_resistor
                0x00000000000045e0       0xc8 C:\Users\aditi.DESKTOP-49PGKM5\OneDrive - USN\Dokumenter\ada\Ada_Drivers_Library_j\boards\MicroBit_v2\obj\zfp_lib_Debug\libada_drivers_library.a(nrf-gpio.o)
                0x00000000000045e0                nrf__gpio__pull_resistor
 .text.nrf__gpio__set_pull_resistor
                0x00000000000046a8      0x144 C:\Users\aditi.DESKTOP-49PGKM5\OneDrive - USN\Dokumenter\ada\Ada_Drivers_Library_j\boards\MicroBit_v2\obj\zfp_lib_Debug\libada_drivers_library.a(nrf-gpio.o)
                0x00000000000046a8                nrf__gpio__set_pull_resistor
 .text.nrf__gpio__set__2
                0x00000000000047ec       0x9c C:\Users\aditi.DESKTOP-49PGKM5\OneDrive - USN\Dokumenter\ada\Ada_Drivers_Library_j\boards\MicroBit_v2\obj\zfp_lib_Debug\libada_drivers_library.a(nrf-gpio.o)
                0x00000000000047ec                nrf__gpio__set__2
 .text.nrf__gpio__clear
                0x0000000000004888       0xa0 C:\Users\aditi.DESKTOP-49PGKM5\OneDrive - USN\Dokumenter\ada\Ada_Drivers_Library_j\boards\MicroBit_v2\obj\zfp_lib_Debug\libada_drivers_library.a(nrf-gpio.o)
                0x0000000000004888                nrf__gpio__clear
 .text.nrf__gpio__toggle
                0x0000000000004928       0x48 C:\Users\aditi.DESKTOP-49PGKM5\OneDrive - USN\Dokumenter\ada\Ada_Drivers_Library_j\boards\MicroBit_v2\obj\zfp_lib_Debug\libada_drivers_library.a(nrf-gpio.o)
                0x0000000000004928                nrf__gpio__toggle
 .text.nrf__gpio__configure_io
                0x0000000000004970      0x52c C:\Users\aditi.DESKTOP-49PGKM5\OneDrive - USN\Dokumenter\ada\Ada_Drivers_Library_j\boards\MicroBit_v2\obj\zfp_lib_Debug\libada_drivers_library.a(nrf-gpio.o)
                0x0000000000004970                nrf__gpio__configure_io
 .text          0x0000000000004e9c        0x0 C:\Users\aditi.DESKTOP-49PGKM5\OneDrive - USN\Dokumenter\ada\Ada_Drivers_Library_j\boards\MicroBit_v2\obj\zfp_lib_Debug\libada_drivers_library.a(nrf-interrupts.o)
 .text.nrf__interrupts__set_priority
                0x0000000000004e9c       0x1c C:\Users\aditi.DESKTOP-49PGKM5\OneDrive - USN\Dokumenter\ada\Ada_Drivers_Library_j\boards\MicroBit_v2\obj\zfp_lib_Debug\libada_drivers_library.a(nrf-interrupts.o)
                0x0000000000004e9c                nrf__interrupts__set_priority
 .text.nrf__interrupts__enable
                0x0000000000004eb8       0x18 C:\Users\aditi.DESKTOP-49PGKM5\OneDrive - USN\Dokumenter\ada\Ada_Drivers_Library_j\boards\MicroBit_v2\obj\zfp_lib_Debug\libada_drivers_library.a(nrf-interrupts.o)
                0x0000000000004eb8                nrf__interrupts__enable
 .text.nrf__interrupts__disable
                0x0000000000004ed0       0x18 C:\Users\aditi.DESKTOP-49PGKM5\OneDrive - USN\Dokumenter\ada\Ada_Drivers_Library_j\boards\MicroBit_v2\obj\zfp_lib_Debug\libada_drivers_library.a(nrf-interrupts.o)
                0x0000000000004ed0                nrf__interrupts__disable
 .text.nrf__interrupts__pending
                0x0000000000004ee8       0x20 C:\Users\aditi.DESKTOP-49PGKM5\OneDrive - USN\Dokumenter\ada\Ada_Drivers_Library_j\boards\MicroBit_v2\obj\zfp_lib_Debug\libada_drivers_library.a(nrf-interrupts.o)
                0x0000000000004ee8                nrf__interrupts__pending
 .text.nrf__interrupts__register
                0x0000000000004f08       0x34 C:\Users\aditi.DESKTOP-49PGKM5\OneDrive - USN\Dokumenter\ada\Ada_Drivers_Library_j\boards\MicroBit_v2\obj\zfp_lib_Debug\libada_drivers_library.a(nrf-interrupts.o)
                0x0000000000004f08                nrf__interrupts__register
 .text.__adl_irq_handler
                0x0000000000004f3c       0x5c C:\Users\aditi.DESKTOP-49PGKM5\OneDrive - USN\Dokumenter\ada\Ada_Drivers_Library_j\boards\MicroBit_v2\obj\zfp_lib_Debug\libada_drivers_library.a(nrf-interrupts.o)
                0x0000000000004f3c                __adl_irq_handler
 .text          0x0000000000004f98        0x0 C:\Users\aditi.DESKTOP-49PGKM5\OneDrive - USN\Dokumenter\ada\Ada_Drivers_Library_j\boards\MicroBit_v2\obj\zfp_lib_Debug\libada_drivers_library.a(nrf-radio.o)
 .text.nrf__radio__Tpayload_dataBIP
                0x0000000000004f98       0x14 C:\Users\aditi.DESKTOP-49PGKM5\OneDrive - USN\Dokumenter\ada\Ada_Drivers_Library_j\boards\MicroBit_v2\obj\zfp_lib_Debug\libada_drivers_library.a(nrf-radio.o)
                0x0000000000004f98                nrf__radio__Tpayload_dataBIP
 .text.nrf__radio__framebufferIP
                0x0000000000004fac       0x3c C:\Users\aditi.DESKTOP-49PGKM5\OneDrive - USN\Dokumenter\ada\Ada_Drivers_Library_j\boards\MicroBit_v2\obj\zfp_lib_Debug\libada_drivers_library.a(nrf-radio.o)
                0x0000000000004fac                nrf__radio__framebufferIP
 .text.nrf__radio__TrxqueuearrayBIP
                0x0000000000004fe8       0x44 C:\Users\aditi.DESKTOP-49PGKM5\OneDrive - USN\Dokumenter\ada\Ada_Drivers_Library_j\boards\MicroBit_v2\obj\zfp_lib_Debug\libada_drivers_library.a(nrf-radio.o)
                0x0000000000004fe8                nrf__radio__TrxqueuearrayBIP
 .text.nrf__radio__radio_stateRP
                0x000000000000502c       0x84 C:\Users\aditi.DESKTOP-49PGKM5\OneDrive - USN\Dokumenter\ada\Ada_Drivers_Library_j\boards\MicroBit_v2\obj\zfp_lib_Debug\libada_drivers_library.a(nrf-radio.o)
                0x000000000000502c                nrf__radio__radio_stateRP
 .text.nrf__radio__radio_powerRP
                0x00000000000050b0      0x100 C:\Users\aditi.DESKTOP-49PGKM5\OneDrive - USN\Dokumenter\ada\Ada_Drivers_Library_j\boards\MicroBit_v2\obj\zfp_lib_Debug\libada_drivers_library.a(nrf-radio.o)
                0x00000000000050b0                nrf__radio__radio_powerRP
 .text.nrf__radio__Tlogic_address_maskBIP
                0x00000000000051b0       0x14 C:\Users\aditi.DESKTOP-49PGKM5\OneDrive - USN\Dokumenter\ada\Ada_Drivers_Library_j\boards\MicroBit_v2\obj\zfp_lib_Debug\libada_drivers_library.a(nrf-radio.o)
                0x00000000000051b0                nrf__radio__Tlogic_address_maskBIP
 .text.nrf__radio__setup_for_bluetooth_low_energy
                0x00000000000051c4       0x44 C:\Users\aditi.DESKTOP-49PGKM5\OneDrive - USN\Dokumenter\ada\Ada_Drivers_Library_j\boards\MicroBit_v2\obj\zfp_lib_Debug\libada_drivers_library.a(nrf-radio.o)
                0x00000000000051c4                nrf__radio__setup_for_bluetooth_low_energy
 .text.nrf__radio__setup_for_rf_nrf52
                0x0000000000005208      0x100 C:\Users\aditi.DESKTOP-49PGKM5\OneDrive - USN\Dokumenter\ada\Ada_Drivers_Library_j\boards\MicroBit_v2\obj\zfp_lib_Debug\libada_drivers_library.a(nrf-radio.o)
                0x0000000000005208                nrf__radio__setup_for_rf_nrf52
 .text.nrf__radio__state
                0x0000000000005308       0x94 C:\Users\aditi.DESKTOP-49PGKM5\OneDrive - USN\Dokumenter\ada\Ada_Drivers_Library_j\boards\MicroBit_v2\obj\zfp_lib_Debug\libada_drivers_library.a(nrf-radio.o)
                0x0000000000005308                nrf__radio__state
 .text.nrf__radio__enable_shortcut
                0x000000000000539c      0x100 C:\Users\aditi.DESKTOP-49PGKM5\OneDrive - USN\Dokumenter\ada\Ada_Drivers_Library_j\boards\MicroBit_v2\obj\zfp_lib_Debug\libada_drivers_library.a(nrf-radio.o)
                0x000000000000539c                nrf__radio__enable_shortcut
 .text.nrf__radio__disable_shortcut
                0x000000000000549c       0xe4 C:\Users\aditi.DESKTOP-49PGKM5\OneDrive - USN\Dokumenter\ada\Ada_Drivers_Library_j\boards\MicroBit_v2\obj\zfp_lib_Debug\libada_drivers_library.a(nrf-radio.o)
                0x000000000000549c                nrf__radio__disable_shortcut
 .text.nrf__radio__get_safeframebuffer
                0x0000000000005580       0x44 C:\Users\aditi.DESKTOP-49PGKM5\OneDrive - USN\Dokumenter\ada\Ada_Drivers_Library_j\boards\MicroBit_v2\obj\zfp_lib_Debug\libada_drivers_library.a(nrf-radio.o)
                0x0000000000005580                nrf__radio__get_safeframebuffer
 .text.nrf__radio__get_queuedepth
                0x00000000000055c4       0x18 C:\Users\aditi.DESKTOP-49PGKM5\OneDrive - USN\Dokumenter\ada\Ada_Drivers_Library_j\boards\MicroBit_v2\obj\zfp_lib_Debug\libada_drivers_library.a(nrf-radio.o)
                0x00000000000055c4                nrf__radio__get_queuedepth
 .text.nrf__radio__set_queuedepth
                0x00000000000055dc       0x20 C:\Users\aditi.DESKTOP-49PGKM5\OneDrive - USN\Dokumenter\ada\Ada_Drivers_Library_j\boards\MicroBit_v2\obj\zfp_lib_Debug\libada_drivers_library.a(nrf-radio.o)
                0x00000000000055dc                nrf__radio__set_queuedepth
 .text.nrf__radio__deepcopyintosafeframebuffer
                0x00000000000055fc       0x6c C:\Users\aditi.DESKTOP-49PGKM5\OneDrive - USN\Dokumenter\ada\Ada_Drivers_Library_j\boards\MicroBit_v2\obj\zfp_lib_Debug\libada_drivers_library.a(nrf-radio.o)
                0x00000000000055fc                nrf__radio__deepcopyintosafeframebuffer
 .text.nrf__radio__get_rssisample
                0x0000000000005668       0x24 C:\Users\aditi.DESKTOP-49PGKM5\OneDrive - USN\Dokumenter\ada\Ada_Drivers_Library_j\boards\MicroBit_v2\obj\zfp_lib_Debug\libada_drivers_library.a(nrf-radio.o)
                0x0000000000005668                nrf__radio__get_rssisample
 .text.nrf__radio__dataready
                0x000000000000568c       0x24 C:\Users\aditi.DESKTOP-49PGKM5\OneDrive - USN\Dokumenter\ada\Ada_Drivers_Library_j\boards\MicroBit_v2\obj\zfp_lib_Debug\libada_drivers_library.a(nrf-radio.o)
                0x000000000000568c                nrf__radio__dataready
 .text.nrf__radio__isinitialized
                0x00000000000056b0       0x18 C:\Users\aditi.DESKTOP-49PGKM5\OneDrive - USN\Dokumenter\ada\Ada_Drivers_Library_j\boards\MicroBit_v2\obj\zfp_lib_Debug\libada_drivers_library.a(nrf-radio.o)
                0x00000000000056b0                nrf__radio__isinitialized
 .text.nrf__radio__set_nrf52fastrampup
                0x00000000000056c8       0x40 C:\Users\aditi.DESKTOP-49PGKM5\OneDrive - USN\Dokumenter\ada\Ada_Drivers_Library_j\boards\MicroBit_v2\obj\zfp_lib_Debug\libada_drivers_library.a(nrf-radio.o)
                0x00000000000056c8                nrf__radio__set_nrf52fastrampup
 .text.nrf__radio__set_rssi
                0x0000000000005708       0x40 C:\Users\aditi.DESKTOP-49PGKM5\OneDrive - USN\Dokumenter\ada\Ada_Drivers_Library_j\boards\MicroBit_v2\obj\zfp_lib_Debug\libada_drivers_library.a(nrf-radio.o)
                0x0000000000005708                nrf__radio__set_rssi
 .text.nrf__radio__get_rssi
                0x0000000000005748       0x38 C:\Users\aditi.DESKTOP-49PGKM5\OneDrive - USN\Dokumenter\ada\Ada_Drivers_Library_j\boards\MicroBit_v2\obj\zfp_lib_Debug\libada_drivers_library.a(nrf-radio.o)
                0x0000000000005748                nrf__radio__get_rssi
 .text.nrf__radio__set_packet
                0x0000000000005780       0x24 C:\Users\aditi.DESKTOP-49PGKM5\OneDrive - USN\Dokumenter\ada\Ada_Drivers_Library_j\boards\MicroBit_v2\obj\zfp_lib_Debug\libada_drivers_library.a(nrf-radio.o)
                0x0000000000005780                nrf__radio__set_packet
 .text.nrf__radio__set_frequency
                0x00000000000057a4       0x58 C:\Users\aditi.DESKTOP-49PGKM5\OneDrive - USN\Dokumenter\ada\Ada_Drivers_Library_j\boards\MicroBit_v2\obj\zfp_lib_Debug\libada_drivers_library.a(nrf-radio.o)
                0x00000000000057a4                nrf__radio__set_frequency
 .text.nrf__radio__set_power
                0x00000000000057fc       0x4c C:\Users\aditi.DESKTOP-49PGKM5\OneDrive - USN\Dokumenter\ada\Ada_Drivers_Library_j\boards\MicroBit_v2\obj\zfp_lib_Debug\libada_drivers_library.a(nrf-radio.o)
                0x00000000000057fc                nrf__radio__set_power
 .text.nrf__radio__set_mode
                0x0000000000005848       0x6c C:\Users\aditi.DESKTOP-49PGKM5\OneDrive - USN\Dokumenter\ada\Ada_Drivers_Library_j\boards\MicroBit_v2\obj\zfp_lib_Debug\libada_drivers_library.a(nrf-radio.o)
                0x0000000000005848                nrf__radio__set_mode
 .text.nrf__radio__set_logic_addresses
                0x00000000000058b4       0xac C:\Users\aditi.DESKTOP-49PGKM5\OneDrive - USN\Dokumenter\ada\Ada_Drivers_Library_j\boards\MicroBit_v2\obj\zfp_lib_Debug\libada_drivers_library.a(nrf-radio.o)
                0x00000000000058b4                nrf__radio__set_logic_addresses
 .text.nrf__radio__translate_logic_address
                0x0000000000005960       0xb8 C:\Users\aditi.DESKTOP-49PGKM5\OneDrive - USN\Dokumenter\ada\Ada_Drivers_Library_j\boards\MicroBit_v2\obj\zfp_lib_Debug\libada_drivers_library.a(nrf-radio.o)
                0x0000000000005960                nrf__radio__translate_logic_address
 .text.nrf__radio__set_tx_address
                0x0000000000005a18       0x34 C:\Users\aditi.DESKTOP-49PGKM5\OneDrive - USN\Dokumenter\ada\Ada_Drivers_Library_j\boards\MicroBit_v2\obj\zfp_lib_Debug\libada_drivers_library.a(nrf-radio.o)
                0x0000000000005a18                nrf__radio__set_tx_address
 .text.nrf__radio__rx_match_address
                0x0000000000005a4c       0x24 C:\Users\aditi.DESKTOP-49PGKM5\OneDrive - USN\Dokumenter\ada\Ada_Drivers_Library_j\boards\MicroBit_v2\obj\zfp_lib_Debug\libada_drivers_library.a(nrf-radio.o)
                0x0000000000005a4c                nrf__radio__rx_match_address
 .text.nrf__radio__set_rx_addresses
                0x0000000000005a70       0x78 C:\Users\aditi.DESKTOP-49PGKM5\OneDrive - USN\Dokumenter\ada\Ada_Drivers_Library_j\boards\MicroBit_v2\obj\zfp_lib_Debug\libada_drivers_library.a(nrf-radio.o)
                0x0000000000005a70                nrf__radio__set_rx_addresses
 .text.nrf__radio__configure_crc
                0x0000000000005ae8      0x12c C:\Users\aditi.DESKTOP-49PGKM5\OneDrive - USN\Dokumenter\ada\Ada_Drivers_Library_j\boards\MicroBit_v2\obj\zfp_lib_Debug\libada_drivers_library.a(nrf-radio.o)
                0x0000000000005ae8                nrf__radio__configure_crc
 .text.nrf__radio__crc_error
                0x0000000000005c14       0x30 C:\Users\aditi.DESKTOP-49PGKM5\OneDrive - USN\Dokumenter\ada\Ada_Drivers_Library_j\boards\MicroBit_v2\obj\zfp_lib_Debug\libada_drivers_library.a(nrf-radio.o)
                0x0000000000005c14                nrf__radio__crc_error
 .text.nrf__radio__configure_whitening
                0x0000000000005c44       0x60 C:\Users\aditi.DESKTOP-49PGKM5\OneDrive - USN\Dokumenter\ada\Ada_Drivers_Library_j\boards\MicroBit_v2\obj\zfp_lib_Debug\libada_drivers_library.a(nrf-radio.o)
                0x0000000000005c44                nrf__radio__configure_whitening
 .text.nrf__radio__configure_packet
                0x0000000000005ca4      0x104 C:\Users\aditi.DESKTOP-49PGKM5\OneDrive - USN\Dokumenter\ada\Ada_Drivers_Library_j\boards\MicroBit_v2\obj\zfp_lib_Debug\libada_drivers_library.a(nrf-radio.o)
                0x0000000000005ca4                nrf__radio__configure_packet
 .text          0x0000000000005da8        0x0 C:\Users\aditi.DESKTOP-49PGKM5\OneDrive - USN\Dokumenter\ada\Ada_Drivers_Library_j\boards\MicroBit_v2\obj\zfp_lib_Debug\libada_drivers_library.a(nrf-rtc.o)
 .text.nrf__rtc__real_time_counterIP
                0x0000000000005da8       0x1c C:\Users\aditi.DESKTOP-49PGKM5\OneDrive - USN\Dokumenter\ada\Ada_Drivers_Library_j\boards\MicroBit_v2\obj\zfp_lib_Debug\libada_drivers_library.a(nrf-rtc.o)
                0x0000000000005da8                nrf__rtc__real_time_counterIP
 .text.nrf__rtc__start
                0x0000000000005dc4       0x18 C:\Users\aditi.DESKTOP-49PGKM5\OneDrive - USN\Dokumenter\ada\Ada_Drivers_Library_j\boards\MicroBit_v2\obj\zfp_lib_Debug\libada_drivers_library.a(nrf-rtc.o)
                0x0000000000005dc4                nrf__rtc__start
 .text.nrf__rtc__stop
                0x0000000000005ddc       0x18 C:\Users\aditi.DESKTOP-49PGKM5\OneDrive - USN\Dokumenter\ada\Ada_Drivers_Library_j\boards\MicroBit_v2\obj\zfp_lib_Debug\libada_drivers_library.a(nrf-rtc.o)
                0x0000000000005ddc                nrf__rtc__stop
 .text.nrf__rtc__clear
                0x0000000000005df4       0x18 C:\Users\aditi.DESKTOP-49PGKM5\OneDrive - USN\Dokumenter\ada\Ada_Drivers_Library_j\boards\MicroBit_v2\obj\zfp_lib_Debug\libada_drivers_library.a(nrf-rtc.o)
                0x0000000000005df4                nrf__rtc__clear
 .text.nrf__rtc__set_prescaler
                0x0000000000005e0c       0x34 C:\Users\aditi.DESKTOP-49PGKM5\OneDrive - USN\Dokumenter\ada\Ada_Drivers_Library_j\boards\MicroBit_v2\obj\zfp_lib_Debug\libada_drivers_library.a(nrf-rtc.o)
                0x0000000000005e0c                nrf__rtc__set_prescaler
 .text.nrf__rtc__counter
                0x0000000000005e40       0x24 C:\Users\aditi.DESKTOP-49PGKM5\OneDrive - USN\Dokumenter\ada\Ada_Drivers_Library_j\boards\MicroBit_v2\obj\zfp_lib_Debug\libada_drivers_library.a(nrf-rtc.o)
                0x0000000000005e40                nrf__rtc__counter
 .text.nrf__rtc__set_compare
                0x0000000000005e64       0x44 C:\Users\aditi.DESKTOP-49PGKM5\OneDrive - USN\Dokumenter\ada\Ada_Drivers_Library_j\boards\MicroBit_v2\obj\zfp_lib_Debug\libada_drivers_library.a(nrf-rtc.o)
                0x0000000000005e64                nrf__rtc__set_compare
 .text.nrf__rtc__event
                0x0000000000005ea8       0x7c C:\Users\aditi.DESKTOP-49PGKM5\OneDrive - USN\Dokumenter\ada\Ada_Drivers_Library_j\boards\MicroBit_v2\obj\zfp_lib_Debug\libada_drivers_library.a(nrf-rtc.o)
                0x0000000000005ea8                nrf__rtc__event
 .text.nrf__rtc__enable_event
                0x0000000000005f24      0x164 C:\Users\aditi.DESKTOP-49PGKM5\OneDrive - USN\Dokumenter\ada\Ada_Drivers_Library_j\boards\MicroBit_v2\obj\zfp_lib_Debug\libada_drivers_library.a(nrf-rtc.o)
                0x0000000000005f24                nrf__rtc__enable_event
 .text.nrf__rtc__disable_event
                0x0000000000006088      0x15c C:\Users\aditi.DESKTOP-49PGKM5\OneDrive - USN\Dokumenter\ada\Ada_Drivers_Library_j\boards\MicroBit_v2\obj\zfp_lib_Debug\libada_drivers_library.a(nrf-rtc.o)
                0x0000000000006088                nrf__rtc__disable_event
 .text          0x00000000000061e4        0x0 C:\Users\aditi.DESKTOP-49PGKM5\OneDrive - USN\Dokumenter\ada\Ada_Drivers_Library_j\boards\MicroBit_v2\obj\zfp_lib_Debug\libada_drivers_library.a(nrf-spi_master.o)
 .text.nrf__spi_master__spi_masterIP
                0x00000000000061e4       0x30 C:\Users\aditi.DESKTOP-49PGKM5\OneDrive - USN\Dokumenter\ada\Ada_Drivers_Library_j\boards\MicroBit_v2\obj\zfp_lib_Debug\libada_drivers_library.a(nrf-spi_master.o)
                0x00000000000061e4                nrf__spi_master__spi_masterIP
 .text.nrf__spi_master___size__2
                0x0000000000006214       0x20 C:\Users\aditi.DESKTOP-49PGKM5\OneDrive - USN\Dokumenter\ada\Ada_Drivers_Library_j\boards\MicroBit_v2\obj\zfp_lib_Debug\libada_drivers_library.a(nrf-spi_master.o)
                0x0000000000006214                nrf__spi_master___size__2
 .text.nrf__spi_master__Oeq
                0x0000000000006234       0x28 C:\Users\aditi.DESKTOP-49PGKM5\OneDrive - USN\Dokumenter\ada\Ada_Drivers_Library_j\boards\MicroBit_v2\obj\zfp_lib_Debug\libada_drivers_library.a(nrf-spi_master.o)
                0x0000000000006234                nrf__spi_master__Oeq
 .text.nrf__spi_master___assign
                0x000000000000625c       0x3c C:\Users\aditi.DESKTOP-49PGKM5\OneDrive - USN\Dokumenter\ada\Ada_Drivers_Library_j\boards\MicroBit_v2\obj\zfp_lib_Debug\libada_drivers_library.a(nrf-spi_master.o)
                0x000000000000625c                nrf__spi_master___assign
 .text.nrf__spi_master__enable___postconditions.0
                0x0000000000006298       0x3c C:\Users\aditi.DESKTOP-49PGKM5\OneDrive - USN\Dokumenter\ada\Ada_Drivers_Library_j\boards\MicroBit_v2\obj\zfp_lib_Debug\libada_drivers_library.a(nrf-spi_master.o)
 .text.nrf__spi_master__enable
                0x00000000000062d4       0x3c C:\Users\aditi.DESKTOP-49PGKM5\OneDrive - USN\Dokumenter\ada\Ada_Drivers_Library_j\boards\MicroBit_v2\obj\zfp_lib_Debug\libada_drivers_library.a(nrf-spi_master.o)
                0x00000000000062d4                nrf__spi_master__enable
 .text.nrf__spi_master__disable___postconditions.1
                0x0000000000006310       0x34 C:\Users\aditi.DESKTOP-49PGKM5\OneDrive - USN\Dokumenter\ada\Ada_Drivers_Library_j\boards\MicroBit_v2\obj\zfp_lib_Debug\libada_drivers_library.a(nrf-spi_master.o)
 .text.nrf__spi_master__disable
                0x0000000000006344       0x3c C:\Users\aditi.DESKTOP-49PGKM5\OneDrive - USN\Dokumenter\ada\Ada_Drivers_Library_j\boards\MicroBit_v2\obj\zfp_lib_Debug\libada_drivers_library.a(nrf-spi_master.o)
                0x0000000000006344                nrf__spi_master__disable
 .text.nrf__spi_master__enabled
                0x0000000000006380       0x34 C:\Users\aditi.DESKTOP-49PGKM5\OneDrive - USN\Dokumenter\ada\Ada_Drivers_Library_j\boards\MicroBit_v2\obj\zfp_lib_Debug\libada_drivers_library.a(nrf-spi_master.o)
                0x0000000000006380                nrf__spi_master__enabled
 .text.nrf__spi_master__configure
                0x00000000000063b4      0x174 C:\Users\aditi.DESKTOP-49PGKM5\OneDrive - USN\Dokumenter\ada\Ada_Drivers_Library_j\boards\MicroBit_v2\obj\zfp_lib_Debug\libada_drivers_library.a(nrf-spi_master.o)
                0x00000000000063b4                nrf__spi_master__configure
 .text.nrf__spi_master__disconnect
                0x0000000000006528       0x54 C:\Users\aditi.DESKTOP-49PGKM5\OneDrive - USN\Dokumenter\ada\Ada_Drivers_Library_j\boards\MicroBit_v2\obj\zfp_lib_Debug\libada_drivers_library.a(nrf-spi_master.o)
                0x0000000000006528                nrf__spi_master__disconnect
 .text.nrf__spi_master__data_size
                0x000000000000657c       0x18 C:\Users\aditi.DESKTOP-49PGKM5\OneDrive - USN\Dokumenter\ada\Ada_Drivers_Library_j\boards\MicroBit_v2\obj\zfp_lib_Debug\libada_drivers_library.a(nrf-spi_master.o)
                0x000000000000657c                nrf__spi_master__data_size
 .text.nrf__spi_master__transmit
                0x0000000000006594       0xc4 C:\Users\aditi.DESKTOP-49PGKM5\OneDrive - USN\Dokumenter\ada\Ada_Drivers_Library_j\boards\MicroBit_v2\obj\zfp_lib_Debug\libada_drivers_library.a(nrf-spi_master.o)
                0x0000000000006594                nrf__spi_master__transmit
 .text.nrf__spi_master__transmit__2
                0x0000000000006658      0x258 C:\Users\aditi.DESKTOP-49PGKM5\OneDrive - USN\Dokumenter\ada\Ada_Drivers_Library_j\boards\MicroBit_v2\obj\zfp_lib_Debug\libada_drivers_library.a(nrf-spi_master.o)
                0x0000000000006658                nrf__spi_master__transmit__2
 .text.nrf__spi_master__receive
                0x00000000000068b0       0xbc C:\Users\aditi.DESKTOP-49PGKM5\OneDrive - USN\Dokumenter\ada\Ada_Drivers_Library_j\boards\MicroBit_v2\obj\zfp_lib_Debug\libada_drivers_library.a(nrf-spi_master.o)
                0x00000000000068b0                nrf__spi_master__receive
 .text.nrf__spi_master__receive__2
                0x000000000000696c      0x224 C:\Users\aditi.DESKTOP-49PGKM5\OneDrive - USN\Dokumenter\ada\Ada_Drivers_Library_j\boards\MicroBit_v2\obj\zfp_lib_Debug\libada_drivers_library.a(nrf-spi_master.o)
                0x000000000000696c                nrf__spi_master__receive__2
 .text          0x0000000000006b90        0x0 C:\Users\aditi.DESKTOP-49PGKM5\OneDrive - USN\Dokumenter\ada\Ada_Drivers_Library_j\boards\MicroBit_v2\obj\zfp_lib_Debug\libada_drivers_library.a(nrf-tasks.o)
 .text.nrf__tasks__trigger
                0x0000000000006b90       0x30 C:\Users\aditi.DESKTOP-49PGKM5\OneDrive - USN\Dokumenter\ada\Ada_Drivers_Library_j\boards\MicroBit_v2\obj\zfp_lib_Debug\libada_drivers_library.a(nrf-tasks.o)
                0x0000000000006b90                nrf__tasks__trigger
 .text.nrf__tasks__get_address
                0x0000000000006bc0       0x18 C:\Users\aditi.DESKTOP-49PGKM5\OneDrive - USN\Dokumenter\ada\Ada_Drivers_Library_j\boards\MicroBit_v2\obj\zfp_lib_Debug\libada_drivers_library.a(nrf-tasks.o)
                0x0000000000006bc0                nrf__tasks__get_address
 .text.nrf__tasks__get_address__2
                0x0000000000006bd8       0x18 C:\Users\aditi.DESKTOP-49PGKM5\OneDrive - USN\Dokumenter\ada\Ada_Drivers_Library_j\boards\MicroBit_v2\obj\zfp_lib_Debug\libada_drivers_library.a(nrf-tasks.o)
                0x0000000000006bd8                nrf__tasks__get_address__2
 .text          0x0000000000006bf0        0x0 C:\Users\aditi.DESKTOP-49PGKM5\OneDrive - USN\Dokumenter\ada\Ada_Drivers_Library_j\boards\MicroBit_v2\obj\zfp_lib_Debug\libada_drivers_library.a(nrf-timers.o)
 .text.nrf__timers__timerIP
                0x0000000000006bf0       0x30 C:\Users\aditi.DESKTOP-49PGKM5\OneDrive - USN\Dokumenter\ada\Ada_Drivers_Library_j\boards\MicroBit_v2\obj\zfp_lib_Debug\libada_drivers_library.a(nrf-timers.o)
                0x0000000000006bf0                nrf__timers__timerIP
 .text.nrf__timers___size
                0x0000000000006c20       0x20 C:\Users\aditi.DESKTOP-49PGKM5\OneDrive - USN\Dokumenter\ada\Ada_Drivers_Library_j\boards\MicroBit_v2\obj\zfp_lib_Debug\libada_drivers_library.a(nrf-timers.o)
                0x0000000000006c20                nrf__timers___size
 .text.nrf__timers__Oeq
                0x0000000000006c40       0x28 C:\Users\aditi.DESKTOP-49PGKM5\OneDrive - USN\Dokumenter\ada\Ada_Drivers_Library_j\boards\MicroBit_v2\obj\zfp_lib_Debug\libada_drivers_library.a(nrf-timers.o)
                0x0000000000006c40                nrf__timers__Oeq
 .text.nrf__timers___assign
                0x0000000000006c68       0x3c C:\Users\aditi.DESKTOP-49PGKM5\OneDrive - USN\Dokumenter\ada\Ada_Drivers_Library_j\boards\MicroBit_v2\obj\zfp_lib_Debug\libada_drivers_library.a(nrf-timers.o)
                0x0000000000006c68                nrf__timers___assign
 .text.nrf__timers__start
                0x0000000000006ca4       0x1c C:\Users\aditi.DESKTOP-49PGKM5\OneDrive - USN\Dokumenter\ada\Ada_Drivers_Library_j\boards\MicroBit_v2\obj\zfp_lib_Debug\libada_drivers_library.a(nrf-timers.o)
                0x0000000000006ca4                nrf__timers__start
 .text.nrf__timers__stop
                0x0000000000006cc0       0x1c C:\Users\aditi.DESKTOP-49PGKM5\OneDrive - USN\Dokumenter\ada\Ada_Drivers_Library_j\boards\MicroBit_v2\obj\zfp_lib_Debug\libada_drivers_library.a(nrf-timers.o)
                0x0000000000006cc0                nrf__timers__stop
 .text.nrf__timers__clear
                0x0000000000006cdc       0x1c C:\Users\aditi.DESKTOP-49PGKM5\OneDrive - USN\Dokumenter\ada\Ada_Drivers_Library_j\boards\MicroBit_v2\obj\zfp_lib_Debug\libada_drivers_library.a(nrf-timers.o)
                0x0000000000006cdc                nrf__timers__clear
 .text.nrf__timers__set_prescaler
                0x0000000000006cf8       0x38 C:\Users\aditi.DESKTOP-49PGKM5\OneDrive - USN\Dokumenter\ada\Ada_Drivers_Library_j\boards\MicroBit_v2\obj\zfp_lib_Debug\libada_drivers_library.a(nrf-timers.o)
                0x0000000000006cf8                nrf__timers__set_prescaler
 .text.nrf__timers__set_mode
                0x0000000000006d30       0x50 C:\Users\aditi.DESKTOP-49PGKM5\OneDrive - USN\Dokumenter\ada\Ada_Drivers_Library_j\boards\MicroBit_v2\obj\zfp_lib_Debug\libada_drivers_library.a(nrf-timers.o)
                0x0000000000006d30                nrf__timers__set_mode
 .text.nrf__timers__set_bitmode___postconditions.0
                0x0000000000006d80       0x38 C:\Users\aditi.DESKTOP-49PGKM5\OneDrive - USN\Dokumenter\ada\Ada_Drivers_Library_j\boards\MicroBit_v2\obj\zfp_lib_Debug\libada_drivers_library.a(nrf-timers.o)
 .text.nrf__timers__set_bitmode
                0x0000000000006db8       0x80 C:\Users\aditi.DESKTOP-49PGKM5\OneDrive - USN\Dokumenter\ada\Ada_Drivers_Library_j\boards\MicroBit_v2\obj\zfp_lib_Debug\libada_drivers_library.a(nrf-timers.o)
                0x0000000000006db8                nrf__timers__set_bitmode
 .text.nrf__timers__bitmode
                0x0000000000006e38       0x50 C:\Users\aditi.DESKTOP-49PGKM5\OneDrive - USN\Dokumenter\ada\Ada_Drivers_Library_j\boards\MicroBit_v2\obj\zfp_lib_Debug\libada_drivers_library.a(nrf-timers.o)
                0x0000000000006e38                nrf__timers__bitmode
 .text.nrf__timers__compare_interrupt
                0x0000000000006e88       0xb8 C:\Users\aditi.DESKTOP-49PGKM5\OneDrive - USN\Dokumenter\ada\Ada_Drivers_Library_j\boards\MicroBit_v2\obj\zfp_lib_Debug\libada_drivers_library.a(nrf-timers.o)
                0x0000000000006e88                nrf__timers__compare_interrupt
 .text.nrf__timers__compare_shortcut
                0x0000000000006f40      0x214 C:\Users\aditi.DESKTOP-49PGKM5\OneDrive - USN\Dokumenter\ada\Ada_Drivers_Library_j\boards\MicroBit_v2\obj\zfp_lib_Debug\libada_drivers_library.a(nrf-timers.o)
                0x0000000000006f40                nrf__timers__compare_shortcut
 .text.nrf__timers__set_compare
                0x0000000000007154       0x2c C:\Users\aditi.DESKTOP-49PGKM5\OneDrive - USN\Dokumenter\ada\Ada_Drivers_Library_j\boards\MicroBit_v2\obj\zfp_lib_Debug\libada_drivers_library.a(nrf-timers.o)
                0x0000000000007154                nrf__timers__set_compare
 .text.nrf__timers__capture
                0x0000000000007180       0x28 C:\Users\aditi.DESKTOP-49PGKM5\OneDrive - USN\Dokumenter\ada\Ada_Drivers_Library_j\boards\MicroBit_v2\obj\zfp_lib_Debug\libada_drivers_library.a(nrf-timers.o)
                0x0000000000007180                nrf__timers__capture
 .text.nrf__timers__capture__2
                0x00000000000071a8       0x30 C:\Users\aditi.DESKTOP-49PGKM5\OneDrive - USN\Dokumenter\ada\Ada_Drivers_Library_j\boards\MicroBit_v2\obj\zfp_lib_Debug\libada_drivers_library.a(nrf-timers.o)
                0x00000000000071a8                nrf__timers__capture__2
 .text.nrf__timers__cc_register
                0x00000000000071d8       0x2c C:\Users\aditi.DESKTOP-49PGKM5\OneDrive - USN\Dokumenter\ada\Ada_Drivers_Library_j\boards\MicroBit_v2\obj\zfp_lib_Debug\libada_drivers_library.a(nrf-timers.o)
                0x00000000000071d8                nrf__timers__cc_register
 .text.nrf__timers__start_task
                0x0000000000007204       0x1c C:\Users\aditi.DESKTOP-49PGKM5\OneDrive - USN\Dokumenter\ada\Ada_Drivers_Library_j\boards\MicroBit_v2\obj\zfp_lib_Debug\libada_drivers_library.a(nrf-timers.o)
                0x0000000000007204                nrf__timers__start_task
 .text.nrf__timers__stop_task
                0x0000000000007220       0x1c C:\Users\aditi.DESKTOP-49PGKM5\OneDrive - USN\Dokumenter\ada\Ada_Drivers_Library_j\boards\MicroBit_v2\obj\zfp_lib_Debug\libada_drivers_library.a(nrf-timers.o)
                0x0000000000007220                nrf__timers__stop_task
 .text.nrf__timers__count_task
                0x000000000000723c       0x1c C:\Users\aditi.DESKTOP-49PGKM5\OneDrive - USN\Dokumenter\ada\Ada_Drivers_Library_j\boards\MicroBit_v2\obj\zfp_lib_Debug\libada_drivers_library.a(nrf-timers.o)
                0x000000000000723c                nrf__timers__count_task
 .text.nrf__timers__clear_task
                0x0000000000007258       0x1c C:\Users\aditi.DESKTOP-49PGKM5\OneDrive - USN\Dokumenter\ada\Ada_Drivers_Library_j\boards\MicroBit_v2\obj\zfp_lib_Debug\libada_drivers_library.a(nrf-timers.o)
                0x0000000000007258                nrf__timers__clear_task
 .text.nrf__timers__capture_task
                0x0000000000007274       0x28 C:\Users\aditi.DESKTOP-49PGKM5\OneDrive - USN\Dokumenter\ada\Ada_Drivers_Library_j\boards\MicroBit_v2\obj\zfp_lib_Debug\libada_drivers_library.a(nrf-timers.o)
                0x0000000000007274                nrf__timers__capture_task
 .text.nrf__timers__compare_event
                0x000000000000729c       0x28 C:\Users\aditi.DESKTOP-49PGKM5\OneDrive - USN\Dokumenter\ada\Ada_Drivers_Library_j\boards\MicroBit_v2\obj\zfp_lib_Debug\libada_drivers_library.a(nrf-timers.o)
                0x000000000000729c                nrf__timers__compare_event
 .text          0x00000000000072c4        0x0 C:\Users\aditi.DESKTOP-49PGKM5\OneDrive - USN\Dokumenter\ada\Ada_Drivers_Library_j\boards\MicroBit_v2\obj\zfp_lib_Debug\libada_drivers_library.a(nrf-twi.o)
 .text.nrf__twi__twi_masterIP
                0x00000000000072c4       0x34 C:\Users\aditi.DESKTOP-49PGKM5\OneDrive - USN\Dokumenter\ada\Ada_Drivers_Library_j\boards\MicroBit_v2\obj\zfp_lib_Debug\libada_drivers_library.a(nrf-twi.o)
                0x00000000000072c4                nrf__twi__twi_masterIP
 .text.nrf__twi___size__2
                0x00000000000072f8       0x20 C:\Users\aditi.DESKTOP-49PGKM5\OneDrive - USN\Dokumenter\ada\Ada_Drivers_Library_j\boards\MicroBit_v2\obj\zfp_lib_Debug\libada_drivers_library.a(nrf-twi.o)
                0x00000000000072f8                nrf__twi___size__2
 .text.nrf__twi__Oeq
                0x0000000000007318       0x40 C:\Users\aditi.DESKTOP-49PGKM5\OneDrive - USN\Dokumenter\ada\Ada_Drivers_Library_j\boards\MicroBit_v2\obj\zfp_lib_Debug\libada_drivers_library.a(nrf-twi.o)
                0x0000000000007318                nrf__twi__Oeq
 .text.nrf__twi___assign
                0x0000000000007358       0x3c C:\Users\aditi.DESKTOP-49PGKM5\OneDrive - USN\Dokumenter\ada\Ada_Drivers_Library_j\boards\MicroBit_v2\obj\zfp_lib_Debug\libada_drivers_library.a(nrf-twi.o)
                0x0000000000007358                nrf__twi___assign
 .text.nrf__twi__stop_sequence
                0x0000000000007394       0x34 C:\Users\aditi.DESKTOP-49PGKM5\OneDrive - USN\Dokumenter\ada\Ada_Drivers_Library_j\boards\MicroBit_v2\obj\zfp_lib_Debug\libada_drivers_library.a(nrf-twi.o)
 .text.nrf__twi__enable
                0x00000000000073c8       0x2c C:\Users\aditi.DESKTOP-49PGKM5\OneDrive - USN\Dokumenter\ada\Ada_Drivers_Library_j\boards\MicroBit_v2\obj\zfp_lib_Debug\libada_drivers_library.a(nrf-twi.o)
                0x00000000000073c8                nrf__twi__enable
 .text.nrf__twi__disable
                0x00000000000073f4       0x2c C:\Users\aditi.DESKTOP-49PGKM5\OneDrive - USN\Dokumenter\ada\Ada_Drivers_Library_j\boards\MicroBit_v2\obj\zfp_lib_Debug\libada_drivers_library.a(nrf-twi.o)
                0x00000000000073f4                nrf__twi__disable
 .text.nrf__twi__enabled
                0x0000000000007420       0x34 C:\Users\aditi.DESKTOP-49PGKM5\OneDrive - USN\Dokumenter\ada\Ada_Drivers_Library_j\boards\MicroBit_v2\obj\zfp_lib_Debug\libada_drivers_library.a(nrf-twi.o)
                0x0000000000007420                nrf__twi__enabled
 .text.nrf__twi__configure
                0x0000000000007454       0x64 C:\Users\aditi.DESKTOP-49PGKM5\OneDrive - USN\Dokumenter\ada\Ada_Drivers_Library_j\boards\MicroBit_v2\obj\zfp_lib_Debug\libada_drivers_library.a(nrf-twi.o)
                0x0000000000007454                nrf__twi__configure
 .text.nrf__twi__disconnect
                0x00000000000074b8       0x2c C:\Users\aditi.DESKTOP-49PGKM5\OneDrive - USN\Dokumenter\ada\Ada_Drivers_Library_j\boards\MicroBit_v2\obj\zfp_lib_Debug\libada_drivers_library.a(nrf-twi.o)
                0x00000000000074b8                nrf__twi__disconnect
 .text.nrf__twi__master_transmit
                0x00000000000074e4      0x1a4 C:\Users\aditi.DESKTOP-49PGKM5\OneDrive - USN\Dokumenter\ada\Ada_Drivers_Library_j\boards\MicroBit_v2\obj\zfp_lib_Debug\libada_drivers_library.a(nrf-twi.o)
                0x00000000000074e4                nrf__twi__master_transmit
 .text.nrf__twi__master_receive
                0x0000000000007688      0x1fc C:\Users\aditi.DESKTOP-49PGKM5\OneDrive - USN\Dokumenter\ada\Ada_Drivers_Library_j\boards\MicroBit_v2\obj\zfp_lib_Debug\libada_drivers_library.a(nrf-twi.o)
                0x0000000000007688                nrf__twi__master_receive
 .text.nrf__twi__mem_write
                0x0000000000007884      0x130 C:\Users\aditi.DESKTOP-49PGKM5\OneDrive - USN\Dokumenter\ada\Ada_Drivers_Library_j\boards\MicroBit_v2\obj\zfp_lib_Debug\libada_drivers_library.a(nrf-twi.o)
                0x0000000000007884                nrf__twi__mem_write
 .text.nrf__twi__mem_write_buffer
                0x00000000000079b4       0x58 C:\Users\aditi.DESKTOP-49PGKM5\OneDrive - USN\Dokumenter\ada\Ada_Drivers_Library_j\boards\MicroBit_v2\obj\zfp_lib_Debug\libada_drivers_library.a(nrf-twi.o)
                0x00000000000079b4                nrf__twi__mem_write_buffer
 .text.nrf__twi__mem_read
                0x0000000000007a0c      0x130 C:\Users\aditi.DESKTOP-49PGKM5\OneDrive - USN\Dokumenter\ada\Ada_Drivers_Library_j\boards\MicroBit_v2\obj\zfp_lib_Debug\libada_drivers_library.a(nrf-twi.o)
                0x0000000000007a0c                nrf__twi__mem_read
 .text          0x0000000000007b3c        0x0 C:\Users\aditi.DESKTOP-49PGKM5\OneDrive - USN\Dokumenter\ada\Ada_Drivers_Library_j\boards\MicroBit_v2\obj\zfp_lib_Debug\libada_drivers_library.a(nrf-uart.o)
 .text.nrf__uart__uart_deviceIP
                0x0000000000007b3c       0x34 C:\Users\aditi.DESKTOP-49PGKM5\OneDrive - USN\Dokumenter\ada\Ada_Drivers_Library_j\boards\MicroBit_v2\obj\zfp_lib_Debug\libada_drivers_library.a(nrf-uart.o)
                0x0000000000007b3c                nrf__uart__uart_deviceIP
 .text.nrf__uart___size__2
                0x0000000000007b70       0x20 C:\Users\aditi.DESKTOP-49PGKM5\OneDrive - USN\Dokumenter\ada\Ada_Drivers_Library_j\boards\MicroBit_v2\obj\zfp_lib_Debug\libada_drivers_library.a(nrf-uart.o)
                0x0000000000007b70                nrf__uart___size__2
 .text.nrf__uart__Oeq
                0x0000000000007b90       0x40 C:\Users\aditi.DESKTOP-49PGKM5\OneDrive - USN\Dokumenter\ada\Ada_Drivers_Library_j\boards\MicroBit_v2\obj\zfp_lib_Debug\libada_drivers_library.a(nrf-uart.o)
                0x0000000000007b90                nrf__uart__Oeq
 .text.nrf__uart___assign
                0x0000000000007bd0       0x3c C:\Users\aditi.DESKTOP-49PGKM5\OneDrive - USN\Dokumenter\ada\Ada_Drivers_Library_j\boards\MicroBit_v2\obj\zfp_lib_Debug\libada_drivers_library.a(nrf-uart.o)
                0x0000000000007bd0                nrf__uart___assign
 .text.nrf__uart__baud_rateRP
                0x0000000000007c0c      0x184 C:\Users\aditi.DESKTOP-49PGKM5\OneDrive - USN\Dokumenter\ada\Ada_Drivers_Library_j\boards\MicroBit_v2\obj\zfp_lib_Debug\libada_drivers_library.a(nrf-uart.o)
                0x0000000000007c0c                nrf__uart__baud_rateRP
 .text.nrf__uart__data_size
                0x0000000000007d90       0x18 C:\Users\aditi.DESKTOP-49PGKM5\OneDrive - USN\Dokumenter\ada\Ada_Drivers_Library_j\boards\MicroBit_v2\obj\zfp_lib_Debug\libada_drivers_library.a(nrf-uart.o)
                0x0000000000007d90                nrf__uart__data_size
 .text.nrf__uart__configure
                0x0000000000007da8       0x48 C:\Users\aditi.DESKTOP-49PGKM5\OneDrive - USN\Dokumenter\ada\Ada_Drivers_Library_j\boards\MicroBit_v2\obj\zfp_lib_Debug\libada_drivers_library.a(nrf-uart.o)
                0x0000000000007da8                nrf__uart__configure
 .text.nrf__uart__enable
                0x0000000000007df0       0x6c C:\Users\aditi.DESKTOP-49PGKM5\OneDrive - USN\Dokumenter\ada\Ada_Drivers_Library_j\boards\MicroBit_v2\obj\zfp_lib_Debug\libada_drivers_library.a(nrf-uart.o)
                0x0000000000007df0                nrf__uart__enable
 .text.nrf__uart__disable
                0x0000000000007e5c       0x54 C:\Users\aditi.DESKTOP-49PGKM5\OneDrive - USN\Dokumenter\ada\Ada_Drivers_Library_j\boards\MicroBit_v2\obj\zfp_lib_Debug\libada_drivers_library.a(nrf-uart.o)
                0x0000000000007e5c                nrf__uart__disable
 .text.nrf__uart__enable_flow_control
                0x0000000000007eb0       0x48 C:\Users\aditi.DESKTOP-49PGKM5\OneDrive - USN\Dokumenter\ada\Ada_Drivers_Library_j\boards\MicroBit_v2\obj\zfp_lib_Debug\libada_drivers_library.a(nrf-uart.o)
                0x0000000000007eb0                nrf__uart__enable_flow_control
 .text.nrf__uart__disable_flow_control
                0x0000000000007ef8       0x44 C:\Users\aditi.DESKTOP-49PGKM5\OneDrive - USN\Dokumenter\ada\Ada_Drivers_Library_j\boards\MicroBit_v2\obj\zfp_lib_Debug\libada_drivers_library.a(nrf-uart.o)
                0x0000000000007ef8                nrf__uart__disable_flow_control
 .text.nrf__uart__transmit
                0x0000000000007f3c       0xa8 C:\Users\aditi.DESKTOP-49PGKM5\OneDrive - USN\Dokumenter\ada\Ada_Drivers_Library_j\boards\MicroBit_v2\obj\zfp_lib_Debug\libada_drivers_library.a(nrf-uart.o)
                0x0000000000007f3c                nrf__uart__transmit
 .text.nrf__uart__receive
                0x0000000000007fe4       0xa0 C:\Users\aditi.DESKTOP-49PGKM5\OneDrive - USN\Dokumenter\ada\Ada_Drivers_Library_j\boards\MicroBit_v2\obj\zfp_lib_Debug\libada_drivers_library.a(nrf-uart.o)
                0x0000000000007fe4                nrf__uart__receive
 .text.nrf__uart__transmit__2
                0x0000000000008084       0x3c C:\Users\aditi.DESKTOP-49PGKM5\OneDrive - USN\Dokumenter\ada\Ada_Drivers_Library_j\boards\MicroBit_v2\obj\zfp_lib_Debug\libada_drivers_library.a(nrf-uart.o)
                0x0000000000008084                nrf__uart__transmit__2
 .text.nrf__uart__receive__2
                0x00000000000080c0       0x3c C:\Users\aditi.DESKTOP-49PGKM5\OneDrive - USN\Dokumenter\ada\Ada_Drivers_Library_j\boards\MicroBit_v2\obj\zfp_lib_Debug\libada_drivers_library.a(nrf-uart.o)
                0x00000000000080c0                nrf__uart__receive__2
 .text          0x00000000000080fc        0x0 C:\Users\aditi.DESKTOP-49PGKM5\OneDrive - USN\Dokumenter\ada\Ada_Drivers_Library_j\boards\MicroBit_v2\obj\zfp_lib_Debug\libada_drivers_library.a(nrf_svd-gpio.o)
 .text.nrf_svd__gpio__pin_cnf_pull_fieldRP
                0x00000000000080fc       0x40 C:\Users\aditi.DESKTOP-49PGKM5\OneDrive - USN\Dokumenter\ada\Ada_Drivers_Library_j\boards\MicroBit_v2\obj\zfp_lib_Debug\libada_drivers_library.a(nrf_svd-gpio.o)
                0x00000000000080fc                nrf_svd__gpio__pin_cnf_pull_fieldRP
 .text.nrf_svd__gpio__pin_cnf_sense_fieldRP
                0x000000000000813c       0x40 C:\Users\aditi.DESKTOP-49PGKM5\OneDrive - USN\Dokumenter\ada\Ada_Drivers_Library_j\boards\MicroBit_v2\obj\zfp_lib_Debug\libada_drivers_library.a(nrf_svd-gpio.o)
                0x000000000000813c                nrf_svd__gpio__pin_cnf_sense_fieldRP
 .text.nrf_svd__gpio__Tout_pin_field_arrayBIP
                0x000000000000817c       0x14 C:\Users\aditi.DESKTOP-49PGKM5\OneDrive - USN\Dokumenter\ada\Ada_Drivers_Library_j\boards\MicroBit_v2\obj\zfp_lib_Debug\libada_drivers_library.a(nrf_svd-gpio.o)
                0x000000000000817c                nrf_svd__gpio__Tout_pin_field_arrayBIP
 .text.nrf_svd__gpio__out_registerEQ__E39s.0
                0x0000000000008190       0x48 C:\Users\aditi.DESKTOP-49PGKM5\OneDrive - USN\Dokumenter\ada\Ada_Drivers_Library_j\boards\MicroBit_v2\obj\zfp_lib_Debug\libada_drivers_library.a(nrf_svd-gpio.o)
 .text.nrf_svd__gpio__out_registerEQ
                0x00000000000081d8       0x78 C:\Users\aditi.DESKTOP-49PGKM5\OneDrive - USN\Dokumenter\ada\Ada_Drivers_Library_j\boards\MicroBit_v2\obj\zfp_lib_Debug\libada_drivers_library.a(nrf_svd-gpio.o)
                0x00000000000081d8                nrf_svd__gpio__out_registerEQ
 .text.nrf_svd__gpio__out_registerIP
                0x0000000000008250       0x18 C:\Users\aditi.DESKTOP-49PGKM5\OneDrive - USN\Dokumenter\ada\Ada_Drivers_Library_j\boards\MicroBit_v2\obj\zfp_lib_Debug\libada_drivers_library.a(nrf_svd-gpio.o)
                0x0000000000008250                nrf_svd__gpio__out_registerIP
 .text.nrf_svd__gpio__Toutset_pin_field_arrayBIP
                0x0000000000008268       0x14 C:\Users\aditi.DESKTOP-49PGKM5\OneDrive - USN\Dokumenter\ada\Ada_Drivers_Library_j\boards\MicroBit_v2\obj\zfp_lib_Debug\libada_drivers_library.a(nrf_svd-gpio.o)
                0x0000000000008268                nrf_svd__gpio__Toutset_pin_field_arrayBIP
 .text.nrf_svd__gpio__outset_registerEQ__E56s.1
                0x000000000000827c       0x48 C:\Users\aditi.DESKTOP-49PGKM5\OneDrive - USN\Dokumenter\ada\Ada_Drivers_Library_j\boards\MicroBit_v2\obj\zfp_lib_Debug\libada_drivers_library.a(nrf_svd-gpio.o)
 .text.nrf_svd__gpio__outset_registerEQ
                0x00000000000082c4       0x78 C:\Users\aditi.DESKTOP-49PGKM5\OneDrive - USN\Dokumenter\ada\Ada_Drivers_Library_j\boards\MicroBit_v2\obj\zfp_lib_Debug\libada_drivers_library.a(nrf_svd-gpio.o)
                0x00000000000082c4                nrf_svd__gpio__outset_registerEQ
 .text.nrf_svd__gpio__outset_registerIP
                0x000000000000833c       0x18 C:\Users\aditi.DESKTOP-49PGKM5\OneDrive - USN\Dokumenter\ada\Ada_Drivers_Library_j\boards\MicroBit_v2\obj\zfp_lib_Debug\libada_drivers_library.a(nrf_svd-gpio.o)
                0x000000000000833c                nrf_svd__gpio__outset_registerIP
 .text.nrf_svd__gpio__Toutclr_pin_field_arrayBIP
                0x0000000000008354       0x14 C:\Users\aditi.DESKTOP-49PGKM5\OneDrive - USN\Dokumenter\ada\Ada_Drivers_Library_j\boards\MicroBit_v2\obj\zfp_lib_Debug\libada_drivers_library.a(nrf_svd-gpio.o)
                0x0000000000008354                nrf_svd__gpio__Toutclr_pin_field_arrayBIP
 .text.nrf_svd__gpio__outclr_registerEQ__E73s.2
                0x0000000000008368       0x48 C:\Users\aditi.DESKTOP-49PGKM5\OneDrive - USN\Dokumenter\ada\Ada_Drivers_Library_j\boards\MicroBit_v2\obj\zfp_lib_Debug\libada_drivers_library.a(nrf_svd-gpio.o)
 .text.nrf_svd__gpio__outclr_registerEQ
                0x00000000000083b0       0x78 C:\Users\aditi.DESKTOP-49PGKM5\OneDrive - USN\Dokumenter\ada\Ada_Drivers_Library_j\boards\MicroBit_v2\obj\zfp_lib_Debug\libada_drivers_library.a(nrf_svd-gpio.o)
                0x00000000000083b0                nrf_svd__gpio__outclr_registerEQ
 .text.nrf_svd__gpio__outclr_registerIP
                0x0000000000008428       0x18 C:\Users\aditi.DESKTOP-49PGKM5\OneDrive - USN\Dokumenter\ada\Ada_Drivers_Library_j\boards\MicroBit_v2\obj\zfp_lib_Debug\libada_drivers_library.a(nrf_svd-gpio.o)
                0x0000000000008428                nrf_svd__gpio__outclr_registerIP
 .text.nrf_svd__gpio__Tin_pin_field_arrayBIP
                0x0000000000008440       0x14 C:\Users\aditi.DESKTOP-49PGKM5\OneDrive - USN\Dokumenter\ada\Ada_Drivers_Library_j\boards\MicroBit_v2\obj\zfp_lib_Debug\libada_drivers_library.a(nrf_svd-gpio.o)
                0x0000000000008440                nrf_svd__gpio__Tin_pin_field_arrayBIP
 .text.nrf_svd__gpio__in_registerEQ__E90s.3
                0x0000000000008454       0x48 C:\Users\aditi.DESKTOP-49PGKM5\OneDrive - USN\Dokumenter\ada\Ada_Drivers_Library_j\boards\MicroBit_v2\obj\zfp_lib_Debug\libada_drivers_library.a(nrf_svd-gpio.o)
 .text.nrf_svd__gpio__in_registerEQ
                0x000000000000849c       0x78 C:\Users\aditi.DESKTOP-49PGKM5\OneDrive - USN\Dokumenter\ada\Ada_Drivers_Library_j\boards\MicroBit_v2\obj\zfp_lib_Debug\libada_drivers_library.a(nrf_svd-gpio.o)
                0x000000000000849c                nrf_svd__gpio__in_registerEQ
 .text.nrf_svd__gpio__in_registerIP
                0x0000000000008514       0x18 C:\Users\aditi.DESKTOP-49PGKM5\OneDrive - USN\Dokumenter\ada\Ada_Drivers_Library_j\boards\MicroBit_v2\obj\zfp_lib_Debug\libada_drivers_library.a(nrf_svd-gpio.o)
                0x0000000000008514                nrf_svd__gpio__in_registerIP
 .text.nrf_svd__gpio__Tdir_pin_field_arrayBIP
                0x000000000000852c       0x14 C:\Users\aditi.DESKTOP-49PGKM5\OneDrive - USN\Dokumenter\ada\Ada_Drivers_Library_j\boards\MicroBit_v2\obj\zfp_lib_Debug\libada_drivers_library.a(nrf_svd-gpio.o)
                0x000000000000852c                nrf_svd__gpio__Tdir_pin_field_arrayBIP
 .text.nrf_svd__gpio__dir_registerEQ__E107s.4
                0x0000000000008540       0x48 C:\Users\aditi.DESKTOP-49PGKM5\OneDrive - USN\Dokumenter\ada\Ada_Drivers_Library_j\boards\MicroBit_v2\obj\zfp_lib_Debug\libada_drivers_library.a(nrf_svd-gpio.o)
 .text.nrf_svd__gpio__dir_registerEQ
                0x0000000000008588       0x78 C:\Users\aditi.DESKTOP-49PGKM5\OneDrive - USN\Dokumenter\ada\Ada_Drivers_Library_j\boards\MicroBit_v2\obj\zfp_lib_Debug\libada_drivers_library.a(nrf_svd-gpio.o)
                0x0000000000008588                nrf_svd__gpio__dir_registerEQ
 .text.nrf_svd__gpio__dir_registerIP
                0x0000000000008600       0x18 C:\Users\aditi.DESKTOP-49PGKM5\OneDrive - USN\Dokumenter\ada\Ada_Drivers_Library_j\boards\MicroBit_v2\obj\zfp_lib_Debug\libada_drivers_library.a(nrf_svd-gpio.o)
                0x0000000000008600                nrf_svd__gpio__dir_registerIP
 .text.nrf_svd__gpio__Tdirset_pin_field_arrayBIP
                0x0000000000008618       0x14 C:\Users\aditi.DESKTOP-49PGKM5\OneDrive - USN\Dokumenter\ada\Ada_Drivers_Library_j\boards\MicroBit_v2\obj\zfp_lib_Debug\libada_drivers_library.a(nrf_svd-gpio.o)
                0x0000000000008618                nrf_svd__gpio__Tdirset_pin_field_arrayBIP
 .text.nrf_svd__gpio__dirset_registerEQ__E124s.5
                0x000000000000862c       0x48 C:\Users\aditi.DESKTOP-49PGKM5\OneDrive - USN\Dokumenter\ada\Ada_Drivers_Library_j\boards\MicroBit_v2\obj\zfp_lib_Debug\libada_drivers_library.a(nrf_svd-gpio.o)
 .text.nrf_svd__gpio__dirset_registerEQ
                0x0000000000008674       0x78 C:\Users\aditi.DESKTOP-49PGKM5\OneDrive - USN\Dokumenter\ada\Ada_Drivers_Library_j\boards\MicroBit_v2\obj\zfp_lib_Debug\libada_drivers_library.a(nrf_svd-gpio.o)
                0x0000000000008674                nrf_svd__gpio__dirset_registerEQ
 .text.nrf_svd__gpio__dirset_registerIP
                0x00000000000086ec       0x18 C:\Users\aditi.DESKTOP-49PGKM5\OneDrive - USN\Dokumenter\ada\Ada_Drivers_Library_j\boards\MicroBit_v2\obj\zfp_lib_Debug\libada_drivers_library.a(nrf_svd-gpio.o)
                0x00000000000086ec                nrf_svd__gpio__dirset_registerIP
 .text.nrf_svd__gpio__Tdirclr_pin_field_arrayBIP
                0x0000000000008704       0x14 C:\Users\aditi.DESKTOP-49PGKM5\OneDrive - USN\Dokumenter\ada\Ada_Drivers_Library_j\boards\MicroBit_v2\obj\zfp_lib_Debug\libada_drivers_library.a(nrf_svd-gpio.o)
                0x0000000000008704                nrf_svd__gpio__Tdirclr_pin_field_arrayBIP
 .text.nrf_svd__gpio__dirclr_registerEQ__E141s.6
                0x0000000000008718       0x48 C:\Users\aditi.DESKTOP-49PGKM5\OneDrive - USN\Dokumenter\ada\Ada_Drivers_Library_j\boards\MicroBit_v2\obj\zfp_lib_Debug\libada_drivers_library.a(nrf_svd-gpio.o)
 .text.nrf_svd__gpio__dirclr_registerEQ
                0x0000000000008760       0x78 C:\Users\aditi.DESKTOP-49PGKM5\OneDrive - USN\Dokumenter\ada\Ada_Drivers_Library_j\boards\MicroBit_v2\obj\zfp_lib_Debug\libada_drivers_library.a(nrf_svd-gpio.o)
                0x0000000000008760                nrf_svd__gpio__dirclr_registerEQ
 .text.nrf_svd__gpio__dirclr_registerIP
                0x00000000000087d8       0x18 C:\Users\aditi.DESKTOP-49PGKM5\OneDrive - USN\Dokumenter\ada\Ada_Drivers_Library_j\boards\MicroBit_v2\obj\zfp_lib_Debug\libada_drivers_library.a(nrf_svd-gpio.o)
                0x00000000000087d8                nrf_svd__gpio__dirclr_registerIP
 .text.nrf_svd__gpio__Tlatch_pin_field_arrayBIP
                0x00000000000087f0       0x14 C:\Users\aditi.DESKTOP-49PGKM5\OneDrive - USN\Dokumenter\ada\Ada_Drivers_Library_j\boards\MicroBit_v2\obj\zfp_lib_Debug\libada_drivers_library.a(nrf_svd-gpio.o)
                0x00000000000087f0                nrf_svd__gpio__Tlatch_pin_field_arrayBIP
 .text.nrf_svd__gpio__latch_registerEQ__E158s.7
                0x0000000000008804       0x48 C:\Users\aditi.DESKTOP-49PGKM5\OneDrive - USN\Dokumenter\ada\Ada_Drivers_Library_j\boards\MicroBit_v2\obj\zfp_lib_Debug\libada_drivers_library.a(nrf_svd-gpio.o)
 .text.nrf_svd__gpio__latch_registerEQ
                0x000000000000884c       0x78 C:\Users\aditi.DESKTOP-49PGKM5\OneDrive - USN\Dokumenter\ada\Ada_Drivers_Library_j\boards\MicroBit_v2\obj\zfp_lib_Debug\libada_drivers_library.a(nrf_svd-gpio.o)
                0x000000000000884c                nrf_svd__gpio__latch_registerEQ
 .text.nrf_svd__gpio__latch_registerIP
                0x00000000000088c4       0x18 C:\Users\aditi.DESKTOP-49PGKM5\OneDrive - USN\Dokumenter\ada\Ada_Drivers_Library_j\boards\MicroBit_v2\obj\zfp_lib_Debug\libada_drivers_library.a(nrf_svd-gpio.o)
                0x00000000000088c4                nrf_svd__gpio__latch_registerIP
 .text.nrf_svd__gpio__detectmode_registerIP
                0x00000000000088dc       0x30 C:\Users\aditi.DESKTOP-49PGKM5\OneDrive - USN\Dokumenter\ada\Ada_Drivers_Library_j\boards\MicroBit_v2\obj\zfp_lib_Debug\libada_drivers_library.a(nrf_svd-gpio.o)
                0x00000000000088dc                nrf_svd__gpio__detectmode_registerIP
 .text.nrf_svd__gpio__pin_cnf_registerIP
                0x000000000000890c       0x84 C:\Users\aditi.DESKTOP-49PGKM5\OneDrive - USN\Dokumenter\ada\Ada_Drivers_Library_j\boards\MicroBit_v2\obj\zfp_lib_Debug\libada_drivers_library.a(nrf_svd-gpio.o)
                0x000000000000890c                nrf_svd__gpio__pin_cnf_registerIP
 .text.nrf_svd__gpio__Tpin_cnf_registersBIP
                0x0000000000008990       0x3c C:\Users\aditi.DESKTOP-49PGKM5\OneDrive - USN\Dokumenter\ada\Ada_Drivers_Library_j\boards\MicroBit_v2\obj\zfp_lib_Debug\libada_drivers_library.a(nrf_svd-gpio.o)
                0x0000000000008990                nrf_svd__gpio__Tpin_cnf_registersBIP
 .text.nrf_svd__gpio__gpio_peripheralEQ
                0x00000000000089cc       0x18 C:\Users\aditi.DESKTOP-49PGKM5\OneDrive - USN\Dokumenter\ada\Ada_Drivers_Library_j\boards\MicroBit_v2\obj\zfp_lib_Debug\libada_drivers_library.a(nrf_svd-gpio.o)
                0x00000000000089cc                nrf_svd__gpio__gpio_peripheralEQ
 .text.nrf_svd__gpio__gpio_peripheralIP
                0x00000000000089e4       0x30 C:\Users\aditi.DESKTOP-49PGKM5\OneDrive - USN\Dokumenter\ada\Ada_Drivers_Library_j\boards\MicroBit_v2\obj\zfp_lib_Debug\libada_drivers_library.a(nrf_svd-gpio.o)
                0x00000000000089e4                nrf_svd__gpio__gpio_peripheralIP
 .text          0x0000000000008a14        0x0 C:\Users\aditi.DESKTOP-49PGKM5\OneDrive - USN\Dokumenter\ada\Ada_Drivers_Library_j\boards\MicroBit_v2\obj\zfp_lib_Debug\libada_drivers_library.a(nrf_svd-radio.o)
 .text.nrf_svd__radio__txpower_txpower_fieldRP
                0x0000000000008a14      0x110 C:\Users\aditi.DESKTOP-49PGKM5\OneDrive - USN\Dokumenter\ada\Ada_Drivers_Library_j\boards\MicroBit_v2\obj\zfp_lib_Debug\libada_drivers_library.a(nrf_svd-radio.o)
                0x0000000000008a14                nrf_svd__radio__txpower_txpower_fieldRP
 .text.nrf_svd__radio__shorts_registerIP
                0x0000000000008b24       0xa0 C:\Users\aditi.DESKTOP-49PGKM5\OneDrive - USN\Dokumenter\ada\Ada_Drivers_Library_j\boards\MicroBit_v2\obj\zfp_lib_Debug\libada_drivers_library.a(nrf_svd-radio.o)
                0x0000000000008b24                nrf_svd__radio__shorts_registerIP
 .text.nrf_svd__radio__intenset_registerIP
                0x0000000000008bc4       0xd8 C:\Users\aditi.DESKTOP-49PGKM5\OneDrive - USN\Dokumenter\ada\Ada_Drivers_Library_j\boards\MicroBit_v2\obj\zfp_lib_Debug\libada_drivers_library.a(nrf_svd-radio.o)
                0x0000000000008bc4                nrf_svd__radio__intenset_registerIP
 .text.nrf_svd__radio__intenclr_registerIP
                0x0000000000008c9c       0xd8 C:\Users\aditi.DESKTOP-49PGKM5\OneDrive - USN\Dokumenter\ada\Ada_Drivers_Library_j\boards\MicroBit_v2\obj\zfp_lib_Debug\libada_drivers_library.a(nrf_svd-radio.o)
                0x0000000000008c9c                nrf_svd__radio__intenclr_registerIP
 .text.nrf_svd__radio__crcstatus_registerIP
                0x0000000000008d74       0x14 C:\Users\aditi.DESKTOP-49PGKM5\OneDrive - USN\Dokumenter\ada\Ada_Drivers_Library_j\boards\MicroBit_v2\obj\zfp_lib_Debug\libada_drivers_library.a(nrf_svd-radio.o)
                0x0000000000008d74                nrf_svd__radio__crcstatus_registerIP
 .text.nrf_svd__radio__rxmatch_registerIP
                0x0000000000008d88       0x14 C:\Users\aditi.DESKTOP-49PGKM5\OneDrive - USN\Dokumenter\ada\Ada_Drivers_Library_j\boards\MicroBit_v2\obj\zfp_lib_Debug\libada_drivers_library.a(nrf_svd-radio.o)
                0x0000000000008d88                nrf_svd__radio__rxmatch_registerIP
 .text.nrf_svd__radio__rxcrc_registerIP
                0x0000000000008d9c       0x14 C:\Users\aditi.DESKTOP-49PGKM5\OneDrive - USN\Dokumenter\ada\Ada_Drivers_Library_j\boards\MicroBit_v2\obj\zfp_lib_Debug\libada_drivers_library.a(nrf_svd-radio.o)
                0x0000000000008d9c                nrf_svd__radio__rxcrc_registerIP
 .text.nrf_svd__radio__dai_registerIP
                0x0000000000008db0       0x14 C:\Users\aditi.DESKTOP-49PGKM5\OneDrive - USN\Dokumenter\ada\Ada_Drivers_Library_j\boards\MicroBit_v2\obj\zfp_lib_Debug\libada_drivers_library.a(nrf_svd-radio.o)
                0x0000000000008db0                nrf_svd__radio__dai_registerIP
 .text.nrf_svd__radio__frequency_registerIP
                0x0000000000008dc4       0x4c C:\Users\aditi.DESKTOP-49PGKM5\OneDrive - USN\Dokumenter\ada\Ada_Drivers_Library_j\boards\MicroBit_v2\obj\zfp_lib_Debug\libada_drivers_library.a(nrf_svd-radio.o)
                0x0000000000008dc4                nrf_svd__radio__frequency_registerIP
 .text.nrf_svd__radio__txpower_registerIP
                0x0000000000008e10       0x30 C:\Users\aditi.DESKTOP-49PGKM5\OneDrive - USN\Dokumenter\ada\Ada_Drivers_Library_j\boards\MicroBit_v2\obj\zfp_lib_Debug\libada_drivers_library.a(nrf_svd-radio.o)
                0x0000000000008e10                nrf_svd__radio__txpower_registerIP
 .text.nrf_svd__radio__mode_registerIP
                0x0000000000008e40       0x30 C:\Users\aditi.DESKTOP-49PGKM5\OneDrive - USN\Dokumenter\ada\Ada_Drivers_Library_j\boards\MicroBit_v2\obj\zfp_lib_Debug\libada_drivers_library.a(nrf_svd-radio.o)
                0x0000000000008e40                nrf_svd__radio__mode_registerIP
 .text.nrf_svd__radio__pcnf0_registerIP
                0x0000000000008e70       0x90 C:\Users\aditi.DESKTOP-49PGKM5\OneDrive - USN\Dokumenter\ada\Ada_Drivers_Library_j\boards\MicroBit_v2\obj\zfp_lib_Debug\libada_drivers_library.a(nrf_svd-radio.o)
                0x0000000000008e70                nrf_svd__radio__pcnf0_registerIP
 .text.nrf_svd__radio__pcnf1_registerIP
                0x0000000000008f00       0x74 C:\Users\aditi.DESKTOP-49PGKM5\OneDrive - USN\Dokumenter\ada\Ada_Drivers_Library_j\boards\MicroBit_v2\obj\zfp_lib_Debug\libada_drivers_library.a(nrf_svd-radio.o)
                0x0000000000008f00                nrf_svd__radio__pcnf1_registerIP
 .text.nrf_svd__radio__Tprefix0_ap_field_arrayBIP
                0x0000000000008f74       0x14 C:\Users\aditi.DESKTOP-49PGKM5\OneDrive - USN\Dokumenter\ada\Ada_Drivers_Library_j\boards\MicroBit_v2\obj\zfp_lib_Debug\libada_drivers_library.a(nrf_svd-radio.o)
                0x0000000000008f74                nrf_svd__radio__Tprefix0_ap_field_arrayBIP
 .text.nrf_svd__radio__prefix0_registerEQ
                0x0000000000008f88       0x60 C:\Users\aditi.DESKTOP-49PGKM5\OneDrive - USN\Dokumenter\ada\Ada_Drivers_Library_j\boards\MicroBit_v2\obj\zfp_lib_Debug\libada_drivers_library.a(nrf_svd-radio.o)
                0x0000000000008f88                nrf_svd__radio__prefix0_registerEQ
 .text.nrf_svd__radio__prefix0_registerIP
                0x0000000000008fe8       0x18 C:\Users\aditi.DESKTOP-49PGKM5\OneDrive - USN\Dokumenter\ada\Ada_Drivers_Library_j\boards\MicroBit_v2\obj\zfp_lib_Debug\libada_drivers_library.a(nrf_svd-radio.o)
                0x0000000000008fe8                nrf_svd__radio__prefix0_registerIP
 .text.nrf_svd__radio__Tprefix1_ap_field_arrayBIP
                0x0000000000009000       0x14 C:\Users\aditi.DESKTOP-49PGKM5\OneDrive - USN\Dokumenter\ada\Ada_Drivers_Library_j\boards\MicroBit_v2\obj\zfp_lib_Debug\libada_drivers_library.a(nrf_svd-radio.o)
                0x0000000000009000                nrf_svd__radio__Tprefix1_ap_field_arrayBIP
 .text.nrf_svd__radio__prefix1_registerEQ
                0x0000000000009014       0x60 C:\Users\aditi.DESKTOP-49PGKM5\OneDrive - USN\Dokumenter\ada\Ada_Drivers_Library_j\boards\MicroBit_v2\obj\zfp_lib_Debug\libada_drivers_library.a(nrf_svd-radio.o)
                0x0000000000009014                nrf_svd__radio__prefix1_registerEQ
 .text.nrf_svd__radio__prefix1_registerIP
                0x0000000000009074       0x18 C:\Users\aditi.DESKTOP-49PGKM5\OneDrive - USN\Dokumenter\ada\Ada_Drivers_Library_j\boards\MicroBit_v2\obj\zfp_lib_Debug\libada_drivers_library.a(nrf_svd-radio.o)
                0x0000000000009074                nrf_svd__radio__prefix1_registerIP
 .text.nrf_svd__radio__txaddress_registerIP
                0x000000000000908c       0x30 C:\Users\aditi.DESKTOP-49PGKM5\OneDrive - USN\Dokumenter\ada\Ada_Drivers_Library_j\boards\MicroBit_v2\obj\zfp_lib_Debug\libada_drivers_library.a(nrf_svd-radio.o)
                0x000000000000908c                nrf_svd__radio__txaddress_registerIP
 .text.nrf_svd__radio__Trxaddresses_addr_field_arrayBIP
                0x00000000000090bc       0x14 C:\Users\aditi.DESKTOP-49PGKM5\OneDrive - USN\Dokumenter\ada\Ada_Drivers_Library_j\boards\MicroBit_v2\obj\zfp_lib_Debug\libada_drivers_library.a(nrf_svd-radio.o)
                0x00000000000090bc                nrf_svd__radio__Trxaddresses_addr_field_arrayBIP
 .text.nrf_svd__radio__rxaddresses_addr_fieldEQ__E44s.0
                0x00000000000090d0       0x48 C:\Users\aditi.DESKTOP-49PGKM5\OneDrive - USN\Dokumenter\ada\Ada_Drivers_Library_j\boards\MicroBit_v2\obj\zfp_lib_Debug\libada_drivers_library.a(nrf_svd-radio.o)
 .text.nrf_svd__radio__rxaddresses_addr_fieldEQ
                0x0000000000009118       0x6c C:\Users\aditi.DESKTOP-49PGKM5\OneDrive - USN\Dokumenter\ada\Ada_Drivers_Library_j\boards\MicroBit_v2\obj\zfp_lib_Debug\libada_drivers_library.a(nrf_svd-radio.o)
                0x0000000000009118                nrf_svd__radio__rxaddresses_addr_fieldEQ
 .text.nrf_svd__radio__rxaddresses_addr_fieldIP
                0x0000000000009184       0x18 C:\Users\aditi.DESKTOP-49PGKM5\OneDrive - USN\Dokumenter\ada\Ada_Drivers_Library_j\boards\MicroBit_v2\obj\zfp_lib_Debug\libada_drivers_library.a(nrf_svd-radio.o)
                0x0000000000009184                nrf_svd__radio__rxaddresses_addr_fieldIP
 .text.nrf_svd__radio__rxaddresses_registerEQ
                0x000000000000919c       0x18 C:\Users\aditi.DESKTOP-49PGKM5\OneDrive - USN\Dokumenter\ada\Ada_Drivers_Library_j\boards\MicroBit_v2\obj\zfp_lib_Debug\libada_drivers_library.a(nrf_svd-radio.o)
                0x000000000000919c                nrf_svd__radio__rxaddresses_registerEQ
 .text.nrf_svd__radio__rxaddresses_registerIP
                0x00000000000091b4       0x30 C:\Users\aditi.DESKTOP-49PGKM5\OneDrive - USN\Dokumenter\ada\Ada_Drivers_Library_j\boards\MicroBit_v2\obj\zfp_lib_Debug\libada_drivers_library.a(nrf_svd-radio.o)
                0x00000000000091b4                nrf_svd__radio__rxaddresses_registerIP
 .text.nrf_svd__radio__crccnf_registerIP
                0x00000000000091e4       0x4c C:\Users\aditi.DESKTOP-49PGKM5\OneDrive - USN\Dokumenter\ada\Ada_Drivers_Library_j\boards\MicroBit_v2\obj\zfp_lib_Debug\libada_drivers_library.a(nrf_svd-radio.o)
                0x00000000000091e4                nrf_svd__radio__crccnf_registerIP
 .text.nrf_svd__radio__crcpoly_registerIP
                0x0000000000009230       0x20 C:\Users\aditi.DESKTOP-49PGKM5\OneDrive - USN\Dokumenter\ada\Ada_Drivers_Library_j\boards\MicroBit_v2\obj\zfp_lib_Debug\libada_drivers_library.a(nrf_svd-radio.o)
                0x0000000000009230                nrf_svd__radio__crcpoly_registerIP
 .text.nrf_svd__radio__crcinit_registerIP
                0x0000000000009250       0x20 C:\Users\aditi.DESKTOP-49PGKM5\OneDrive - USN\Dokumenter\ada\Ada_Drivers_Library_j\boards\MicroBit_v2\obj\zfp_lib_Debug\libada_drivers_library.a(nrf_svd-radio.o)
                0x0000000000009250                nrf_svd__radio__crcinit_registerIP
 .text.nrf_svd__radio__tifs_registerIP
                0x0000000000009270       0x30 C:\Users\aditi.DESKTOP-49PGKM5\OneDrive - USN\Dokumenter\ada\Ada_Drivers_Library_j\boards\MicroBit_v2\obj\zfp_lib_Debug\libada_drivers_library.a(nrf_svd-radio.o)
                0x0000000000009270                nrf_svd__radio__tifs_registerIP
 .text.nrf_svd__radio__rssisample_registerIP
                0x00000000000092a0       0x14 C:\Users\aditi.DESKTOP-49PGKM5\OneDrive - USN\Dokumenter\ada\Ada_Drivers_Library_j\boards\MicroBit_v2\obj\zfp_lib_Debug\libada_drivers_library.a(nrf_svd-radio.o)
                0x00000000000092a0                nrf_svd__radio__rssisample_registerIP
 .text.nrf_svd__radio__state_state_fieldRP
                0x00000000000092b4       0x84 C:\Users\aditi.DESKTOP-49PGKM5\OneDrive - USN\Dokumenter\ada\Ada_Drivers_Library_j\boards\MicroBit_v2\obj\zfp_lib_Debug\libada_drivers_library.a(nrf_svd-radio.o)
                0x00000000000092b4                nrf_svd__radio__state_state_fieldRP
 .text.nrf_svd__radio__state_registerIP
                0x0000000000009338       0x14 C:\Users\aditi.DESKTOP-49PGKM5\OneDrive - USN\Dokumenter\ada\Ada_Drivers_Library_j\boards\MicroBit_v2\obj\zfp_lib_Debug\libada_drivers_library.a(nrf_svd-radio.o)
                0x0000000000009338                nrf_svd__radio__state_registerIP
 .text.nrf_svd__radio__datawhiteiv_registerIP
                0x000000000000934c       0x30 C:\Users\aditi.DESKTOP-49PGKM5\OneDrive - USN\Dokumenter\ada\Ada_Drivers_Library_j\boards\MicroBit_v2\obj\zfp_lib_Debug\libada_drivers_library.a(nrf_svd-radio.o)
                0x000000000000934c                nrf_svd__radio__datawhiteiv_registerIP
 .text.nrf_svd__radio__Tdab_registersBIP
                0x000000000000937c       0x14 C:\Users\aditi.DESKTOP-49PGKM5\OneDrive - USN\Dokumenter\ada\Ada_Drivers_Library_j\boards\MicroBit_v2\obj\zfp_lib_Debug\libada_drivers_library.a(nrf_svd-radio.o)
                0x000000000000937c                nrf_svd__radio__Tdab_registersBIP
 .text.nrf_svd__radio__dap_registerIP
                0x0000000000009390       0x30 C:\Users\aditi.DESKTOP-49PGKM5\OneDrive - USN\Dokumenter\ada\Ada_Drivers_Library_j\boards\MicroBit_v2\obj\zfp_lib_Debug\libada_drivers_library.a(nrf_svd-radio.o)
                0x0000000000009390                nrf_svd__radio__dap_registerIP
 .text.nrf_svd__radio__Tdap_registersBIP
                0x00000000000093c0       0x3c C:\Users\aditi.DESKTOP-49PGKM5\OneDrive - USN\Dokumenter\ada\Ada_Drivers_Library_j\boards\MicroBit_v2\obj\zfp_lib_Debug\libada_drivers_library.a(nrf_svd-radio.o)
                0x00000000000093c0                nrf_svd__radio__Tdap_registersBIP
 .text.nrf_svd__radio__Tdacnf_ena_field_arrayBIP
                0x00000000000093fc       0x14 C:\Users\aditi.DESKTOP-49PGKM5\OneDrive - USN\Dokumenter\ada\Ada_Drivers_Library_j\boards\MicroBit_v2\obj\zfp_lib_Debug\libada_drivers_library.a(nrf_svd-radio.o)
                0x00000000000093fc                nrf_svd__radio__Tdacnf_ena_field_arrayBIP
 .text.nrf_svd__radio__dacnf_ena_fieldEQ__E78s.1
                0x0000000000009410       0x48 C:\Users\aditi.DESKTOP-49PGKM5\OneDrive - USN\Dokumenter\ada\Ada_Drivers_Library_j\boards\MicroBit_v2\obj\zfp_lib_Debug\libada_drivers_library.a(nrf_svd-radio.o)
 .text.nrf_svd__radio__dacnf_ena_fieldEQ
                0x0000000000009458       0x6c C:\Users\aditi.DESKTOP-49PGKM5\OneDrive - USN\Dokumenter\ada\Ada_Drivers_Library_j\boards\MicroBit_v2\obj\zfp_lib_Debug\libada_drivers_library.a(nrf_svd-radio.o)
                0x0000000000009458                nrf_svd__radio__dacnf_ena_fieldEQ
 .text.nrf_svd__radio__dacnf_ena_fieldIP
                0x00000000000094c4       0x18 C:\Users\aditi.DESKTOP-49PGKM5\OneDrive - USN\Dokumenter\ada\Ada_Drivers_Library_j\boards\MicroBit_v2\obj\zfp_lib_Debug\libada_drivers_library.a(nrf_svd-radio.o)
                0x00000000000094c4                nrf_svd__radio__dacnf_ena_fieldIP
 .text.nrf_svd__radio__Tdacnf_txadd_field_arrayBIP
                0x00000000000094dc       0x14 C:\Users\aditi.DESKTOP-49PGKM5\OneDrive - USN\Dokumenter\ada\Ada_Drivers_Library_j\boards\MicroBit_v2\obj\zfp_lib_Debug\libada_drivers_library.a(nrf_svd-radio.o)
                0x00000000000094dc                nrf_svd__radio__Tdacnf_txadd_field_arrayBIP
 .text.nrf_svd__radio__dacnf_txadd_fieldEQ__E91s.2
                0x00000000000094f0       0x48 C:\Users\aditi.DESKTOP-49PGKM5\OneDrive - USN\Dokumenter\ada\Ada_Drivers_Library_j\boards\MicroBit_v2\obj\zfp_lib_Debug\libada_drivers_library.a(nrf_svd-radio.o)
 .text.nrf_svd__radio__dacnf_txadd_fieldEQ
                0x0000000000009538       0x6c C:\Users\aditi.DESKTOP-49PGKM5\OneDrive - USN\Dokumenter\ada\Ada_Drivers_Library_j\boards\MicroBit_v2\obj\zfp_lib_Debug\libada_drivers_library.a(nrf_svd-radio.o)
                0x0000000000009538                nrf_svd__radio__dacnf_txadd_fieldEQ
 .text.nrf_svd__radio__dacnf_txadd_fieldIP
                0x00000000000095a4       0x18 C:\Users\aditi.DESKTOP-49PGKM5\OneDrive - USN\Dokumenter\ada\Ada_Drivers_Library_j\boards\MicroBit_v2\obj\zfp_lib_Debug\libada_drivers_library.a(nrf_svd-radio.o)
                0x00000000000095a4                nrf_svd__radio__dacnf_txadd_fieldIP
 .text.nrf_svd__radio__dacnf_registerEQ
                0x00000000000095bc       0x18 C:\Users\aditi.DESKTOP-49PGKM5\OneDrive - USN\Dokumenter\ada\Ada_Drivers_Library_j\boards\MicroBit_v2\obj\zfp_lib_Debug\libada_drivers_library.a(nrf_svd-radio.o)
                0x00000000000095bc                nrf_svd__radio__dacnf_registerEQ
 .text.nrf_svd__radio__dacnf_registerIP
                0x00000000000095d4       0x3c C:\Users\aditi.DESKTOP-49PGKM5\OneDrive - USN\Dokumenter\ada\Ada_Drivers_Library_j\boards\MicroBit_v2\obj\zfp_lib_Debug\libada_drivers_library.a(nrf_svd-radio.o)
                0x00000000000095d4                nrf_svd__radio__dacnf_registerIP
 .text.nrf_svd__radio__modecnf0_registerIP
                0x0000000000009610       0x4c C:\Users\aditi.DESKTOP-49PGKM5\OneDrive - USN\Dokumenter\ada\Ada_Drivers_Library_j\boards\MicroBit_v2\obj\zfp_lib_Debug\libada_drivers_library.a(nrf_svd-radio.o)
                0x0000000000009610                nrf_svd__radio__modecnf0_registerIP
 .text.nrf_svd__radio__power_registerIP
                0x000000000000965c       0x30 C:\Users\aditi.DESKTOP-49PGKM5\OneDrive - USN\Dokumenter\ada\Ada_Drivers_Library_j\boards\MicroBit_v2\obj\zfp_lib_Debug\libada_drivers_library.a(nrf_svd-radio.o)
                0x000000000000965c                nrf_svd__radio__power_registerIP
 .text.nrf_svd__radio__radio_peripheralEQ
                0x000000000000968c       0x18 C:\Users\aditi.DESKTOP-49PGKM5\OneDrive - USN\Dokumenter\ada\Ada_Drivers_Library_j\boards\MicroBit_v2\obj\zfp_lib_Debug\libada_drivers_library.a(nrf_svd-radio.o)
                0x000000000000968c                nrf_svd__radio__radio_peripheralEQ
 .text.nrf_svd__radio__radio_peripheralIP
                0x00000000000096a4       0xfc C:\Users\aditi.DESKTOP-49PGKM5\OneDrive - USN\Dokumenter\ada\Ada_Drivers_Library_j\boards\MicroBit_v2\obj\zfp_lib_Debug\libada_drivers_library.a(nrf_svd-radio.o)
                0x00000000000096a4                nrf_svd__radio__radio_peripheralIP
 .text          0x00000000000097a0        0x0 C:\Users\aditi.DESKTOP-49PGKM5\OneDrive - USN\Dokumenter\ada\Ada_Drivers_Library_j\boards\MicroBit_v2\obj\zfp_lib_Debug\libada_drivers_library.a(nrf_svd-twi.o)
 .text.nrf_svd__twi__enable_enable_fieldRP
                0x00000000000097a0       0x34 C:\Users\aditi.DESKTOP-49PGKM5\OneDrive - USN\Dokumenter\ada\Ada_Drivers_Library_j\boards\MicroBit_v2\obj\zfp_lib_Debug\libada_drivers_library.a(nrf_svd-twi.o)
                0x00000000000097a0                nrf_svd__twi__enable_enable_fieldRP
 .text.nrf_svd__twi__shorts_registerIP
                0x00000000000097d4       0x3c C:\Users\aditi.DESKTOP-49PGKM5\OneDrive - USN\Dokumenter\ada\Ada_Drivers_Library_j\boards\MicroBit_v2\obj\zfp_lib_Debug\libada_drivers_library.a(nrf_svd-twi.o)
                0x00000000000097d4                nrf_svd__twi__shorts_registerIP
 .text.nrf_svd__twi__intenset_registerIP
                0x0000000000009810       0xbc C:\Users\aditi.DESKTOP-49PGKM5\OneDrive - USN\Dokumenter\ada\Ada_Drivers_Library_j\boards\MicroBit_v2\obj\zfp_lib_Debug\libada_drivers_library.a(nrf_svd-twi.o)
                0x0000000000009810                nrf_svd__twi__intenset_registerIP
 .text.nrf_svd__twi__intenclr_registerIP
                0x00000000000098cc       0xbc C:\Users\aditi.DESKTOP-49PGKM5\OneDrive - USN\Dokumenter\ada\Ada_Drivers_Library_j\boards\MicroBit_v2\obj\zfp_lib_Debug\libada_drivers_library.a(nrf_svd-twi.o)
                0x00000000000098cc                nrf_svd__twi__intenclr_registerIP
 .text.nrf_svd__twi__errorsrc_registerIP
                0x0000000000009988       0x4c C:\Users\aditi.DESKTOP-49PGKM5\OneDrive - USN\Dokumenter\ada\Ada_Drivers_Library_j\boards\MicroBit_v2\obj\zfp_lib_Debug\libada_drivers_library.a(nrf_svd-twi.o)
                0x0000000000009988                nrf_svd__twi__errorsrc_registerIP
 .text.nrf_svd__twi__enable_registerIP
                0x00000000000099d4       0x30 C:\Users\aditi.DESKTOP-49PGKM5\OneDrive - USN\Dokumenter\ada\Ada_Drivers_Library_j\boards\MicroBit_v2\obj\zfp_lib_Debug\libada_drivers_library.a(nrf_svd-twi.o)
                0x00000000000099d4                nrf_svd__twi__enable_registerIP
 .text.nrf_svd__twi__rxd_registerIP
                0x0000000000009a04       0x14 C:\Users\aditi.DESKTOP-49PGKM5\OneDrive - USN\Dokumenter\ada\Ada_Drivers_Library_j\boards\MicroBit_v2\obj\zfp_lib_Debug\libada_drivers_library.a(nrf_svd-twi.o)
                0x0000000000009a04                nrf_svd__twi__rxd_registerIP
 .text.nrf_svd__twi__txd_registerIP
                0x0000000000009a18       0x30 C:\Users\aditi.DESKTOP-49PGKM5\OneDrive - USN\Dokumenter\ada\Ada_Drivers_Library_j\boards\MicroBit_v2\obj\zfp_lib_Debug\libada_drivers_library.a(nrf_svd-twi.o)
                0x0000000000009a18                nrf_svd__twi__txd_registerIP
 .text.nrf_svd__twi__address_registerIP
                0x0000000000009a48       0x30 C:\Users\aditi.DESKTOP-49PGKM5\OneDrive - USN\Dokumenter\ada\Ada_Drivers_Library_j\boards\MicroBit_v2\obj\zfp_lib_Debug\libada_drivers_library.a(nrf_svd-twi.o)
                0x0000000000009a48                nrf_svd__twi__address_registerIP
 .text.nrf_svd__twi__twi_peripheralIP
                0x0000000000009a78       0x64 C:\Users\aditi.DESKTOP-49PGKM5\OneDrive - USN\Dokumenter\ada\Ada_Drivers_Library_j\boards\MicroBit_v2\obj\zfp_lib_Debug\libada_drivers_library.a(nrf_svd-twi.o)
                0x0000000000009a78                nrf_svd__twi__twi_peripheralIP
 .text          0x0000000000009adc        0x0 C:\Users\aditi.DESKTOP-49PGKM5\OneDrive - USN\Dokumenter\ada\Ada_Drivers_Library_j\boards\MicroBit_v2\obj\zfp_lib_Debug\libada_drivers_library.a(hal-gpio.o)
 .text          0x0000000000009adc        0x0 C:\Users\aditi.DESKTOP-49PGKM5\OneDrive - USN\Dokumenter\ada\Ada_Drivers_Library_j\boards\MicroBit_v2\obj\zfp_lib_Debug\libada_drivers_library.a(hal-i2c.o)
 .text          0x0000000000009adc        0x0 C:\Users\aditi.DESKTOP-49PGKM5\OneDrive - USN\Dokumenter\ada\Ada_Drivers_Library_j\boards\MicroBit_v2\obj\zfp_lib_Debug\libada_drivers_library.a(hal-spi.o)
 .text.hal__spi__spi_data_8bIP
                0x0000000000009adc       0x14 C:\Users\aditi.DESKTOP-49PGKM5\OneDrive - USN\Dokumenter\ada\Ada_Drivers_Library_j\boards\MicroBit_v2\obj\zfp_lib_Debug\libada_drivers_library.a(hal-spi.o)
                0x0000000000009adc                hal__spi__spi_data_8bIP
 .text.hal__spi__spi_data_16bIP
                0x0000000000009af0       0x14 C:\Users\aditi.DESKTOP-49PGKM5\OneDrive - USN\Dokumenter\ada\Ada_Drivers_Library_j\boards\MicroBit_v2\obj\zfp_lib_Debug\libada_drivers_library.a(hal-spi.o)
                0x0000000000009af0                hal__spi__spi_data_16bIP
 .text          0x0000000000009b04        0x0 C:\Users\aditi.DESKTOP-49PGKM5\OneDrive - USN\Dokumenter\ada\Ada_Drivers_Library_j\boards\MicroBit_v2\obj\zfp_lib_Debug\libada_drivers_library.a(hal-time.o)
 .text          0x0000000000009b04        0x0 C:\Users\aditi.DESKTOP-49PGKM5\OneDrive - USN\Dokumenter\ada\Ada_Drivers_Library_j\boards\MicroBit_v2\obj\zfp_lib_Debug\libada_drivers_library.a(hal-uart.o)
 .text.hal__uart__uart_data_8bIP
                0x0000000000009b04       0x14 C:\Users\aditi.DESKTOP-49PGKM5\OneDrive - USN\Dokumenter\ada\Ada_Drivers_Library_j\boards\MicroBit_v2\obj\zfp_lib_Debug\libada_drivers_library.a(hal-uart.o)
                0x0000000000009b04                hal__uart__uart_data_8bIP
 .text.hal__uart__uart_data_9bIP
                0x0000000000009b18       0x14 C:\Users\aditi.DESKTOP-49PGKM5\OneDrive - USN\Dokumenter\ada\Ada_Drivers_Library_j\boards\MicroBit_v2\obj\zfp_lib_Debug\libada_drivers_library.a(hal-uart.o)
                0x0000000000009b18                hal__uart__uart_data_9bIP
 .text          0x0000000000009b2c        0x0 C:\gnat\2021-arm-elf\arm-eabi\lib\gnat\zfp-cortex-m4f\adalib\libgnat.a(a-elchha.o)
 .text.ada__exceptions__last_chance_handler__put.0
                0x0000000000009b2c       0x20 C:\gnat\2021-arm-elf\arm-eabi\lib\gnat\zfp-cortex-m4f\adalib\libgnat.a(a-elchha.o)
 .text.__gnat_last_chance_handler
                0x0000000000009b4c       0x5c C:\gnat\2021-arm-elf\arm-eabi\lib\gnat\zfp-cortex-m4f\adalib\libgnat.a(a-elchha.o)
                0x0000000000009b4c                __gnat_last_chance_handler
 .text          0x0000000000009ba8        0x0 C:\gnat\2021-arm-elf\arm-eabi\lib\gnat\zfp-cortex-m4f\adalib\libgnat.a(g-io.o)
 .text.gnat__io__put__2
                0x0000000000009ba8       0x44 C:\gnat\2021-arm-elf\arm-eabi\lib\gnat\zfp-cortex-m4f\adalib\libgnat.a(g-io.o)
                0x0000000000009ba8                gnat__io__put__2
 .text.gnat__io__new_line
                0x0000000000009bec       0x18 C:\gnat\2021-arm-elf\arm-eabi\lib\gnat\zfp-cortex-m4f\adalib\libgnat.a(g-io.o)
                0x0000000000009bec                gnat__io__new_line
 .text.gnat__io__put
                0x0000000000009c04       0x74 C:\gnat\2021-arm-elf\arm-eabi\lib\gnat\zfp-cortex-m4f\adalib\libgnat.a(g-io.o)
                0x0000000000009c04                gnat__io__put
 .text.gnat__io__put__3
                0x0000000000009c78       0x20 C:\gnat\2021-arm-elf\arm-eabi\lib\gnat\zfp-cortex-m4f\adalib\libgnat.a(g-io.o)
                0x0000000000009c78                gnat__io__put__3
 .text.gnat__io__put_line
                0x0000000000009c98       0x28 C:\gnat\2021-arm-elf\arm-eabi\lib\gnat\zfp-cortex-m4f\adalib\libgnat.a(g-io.o)
                0x0000000000009c98                gnat__io__put_line
 .text          0x0000000000009cc0        0x0 C:\gnat\2021-arm-elf\arm-eabi\lib\gnat\zfp-cortex-m4f\adalib\libgnat.a(s-assert.o)
 .text.system__assertions__raise_assert_failure
                0x0000000000009cc0       0x1c C:\gnat\2021-arm-elf\arm-eabi\lib\gnat\zfp-cortex-m4f\adalib\libgnat.a(s-assert.o)
                0x0000000000009cc0                system__assertions__raise_assert_failure
 .text          0x0000000000009cdc        0x0 C:\gnat\2021-arm-elf\arm-eabi\lib\gnat\zfp-cortex-m4f\adalib\libgnat.a(s-imglli.o)
 .text.system__img_lli__impl__set_image_integer
                0x0000000000009cdc       0xdc C:\gnat\2021-arm-elf\arm-eabi\lib\gnat\zfp-cortex-m4f\adalib\libgnat.a(s-imglli.o)
                0x0000000000009cdc                system__img_lli__impl__set_image_integer
 .text.system__img_lli__impl__image_integer
                0x0000000000009db8       0x2c C:\gnat\2021-arm-elf\arm-eabi\lib\gnat\zfp-cortex-m4f\adalib\libgnat.a(s-imglli.o)
                0x0000000000009db8                system__img_lli__impl__image_integer
 .text          0x0000000000009de4        0x0 C:\gnat\2021-arm-elf\arm-eabi\lib\gnat\zfp-cortex-m4f\adalib\libgnat.a(s-imguns.o)
 .text.system__img_uns__impl__image_unsigned
                0x0000000000009de4       0x5c C:\gnat\2021-arm-elf\arm-eabi\lib\gnat\zfp-cortex-m4f\adalib\libgnat.a(s-imguns.o)
                0x0000000000009de4                system__img_uns__impl__image_unsigned
 .text.system__img_uns__impl__set_image_unsigned
                0x0000000000009e40       0x54 C:\gnat\2021-arm-elf\arm-eabi\lib\gnat\zfp-cortex-m4f\adalib\libgnat.a(s-imguns.o)
                0x0000000000009e40                system__img_uns__impl__set_image_unsigned
 .text          0x0000000000009e94        0x0 C:\gnat\2021-arm-elf\arm-eabi\lib\gnat\zfp-cortex-m4f\adalib\libgnat.a(s-macres.o)
 .text._exit    0x0000000000009e94       0x18 C:\gnat\2021-arm-elf\arm-eabi\lib\gnat\zfp-cortex-m4f\adalib\libgnat.a(s-macres.o)
                0x0000000000009e94                _exit
 .text.abort    0x0000000000009eac        0x8 C:\gnat\2021-arm-elf\arm-eabi\lib\gnat\zfp-cortex-m4f\adalib\libgnat.a(s-macres.o)
                0x0000000000009eac                abort
 .text.system__machine_reset__stop
                0x0000000000009eb4        0x8 C:\gnat\2021-arm-elf\arm-eabi\lib\gnat\zfp-cortex-m4f\adalib\libgnat.a(s-macres.o)
                0x0000000000009eb4                system__machine_reset__stop
 .text          0x0000000000009ebc        0x0 C:\gnat\2021-arm-elf\arm-eabi\lib\gnat\zfp-cortex-m4f\adalib\libgnat.a(s-memcom.o)
 .text.memcmp   0x0000000000009ebc       0x8c C:\gnat\2021-arm-elf\arm-eabi\lib\gnat\zfp-cortex-m4f\adalib\libgnat.a(s-memcom.o)
                0x0000000000009ebc                memcmp
 .text          0x0000000000009f48        0x0 C:\gnat\2021-arm-elf\arm-eabi\lib\gnat\zfp-cortex-m4f\adalib\libgnat.a(s-memcop.o)
 .text.memcpy   0x0000000000009f48       0x6c C:\gnat\2021-arm-elf\arm-eabi\lib\gnat\zfp-cortex-m4f\adalib\libgnat.a(s-memcop.o)
                0x0000000000009f48                memcpy
 .text          0x0000000000009fb4        0x0 C:\gnat\2021-arm-elf\arm-eabi\lib\gnat\zfp-cortex-m4f\adalib\libgnat.a(s-memmov.o)
 .text.memmove  0x0000000000009fb4       0xb0 C:\gnat\2021-arm-elf\arm-eabi\lib\gnat\zfp-cortex-m4f\adalib\libgnat.a(s-memmov.o)
                0x0000000000009fb4                memmove
 .text          0x000000000000a064        0x0 C:\gnat\2021-arm-elf\arm-eabi\lib\gnat\zfp-cortex-m4f\adalib\libgnat.a(s-memset.o)
 .text.memset   0x000000000000a064       0x50 C:\gnat\2021-arm-elf\arm-eabi\lib\gnat\zfp-cortex-m4f\adalib\libgnat.a(s-memset.o)
                0x000000000000a064                memset
 .text          0x000000000000a0b4        0x0 C:\gnat\2021-arm-elf\arm-eabi\lib\gnat\zfp-cortex-m4f\adalib\libgnat.a(s-secsta.o)
 .text.system__secondary_stack__memoryIP
                0x000000000000a0b4        0x4 C:\gnat\2021-arm-elf\arm-eabi\lib\gnat\zfp-cortex-m4f\adalib\libgnat.a(s-secsta.o)
                0x000000000000a0b4                system__secondary_stack__memoryIP
 .text.system__secondary_stack__ss_stackIP
                0x000000000000a0b8        0x4 C:\gnat\2021-arm-elf\arm-eabi\lib\gnat\zfp-cortex-m4f\adalib\libgnat.a(s-secsta.o)
                0x000000000000a0b8                system__secondary_stack__ss_stackIP
 .text.system__secondary_stack__ss_allocate
                0x000000000000a0bc       0x60 C:\gnat\2021-arm-elf\arm-eabi\lib\gnat\zfp-cortex-m4f\adalib\libgnat.a(s-secsta.o)
                0x000000000000a0bc                system__secondary_stack__ss_allocate
 .text.system__secondary_stack__ss_get_max
                0x000000000000a11c       0x10 C:\gnat\2021-arm-elf\arm-eabi\lib\gnat\zfp-cortex-m4f\adalib\libgnat.a(s-secsta.o)
                0x000000000000a11c                system__secondary_stack__ss_get_max
 .text.system__secondary_stack__ss_init
                0x000000000000a12c       0x6c C:\gnat\2021-arm-elf\arm-eabi\lib\gnat\zfp-cortex-m4f\adalib\libgnat.a(s-secsta.o)
                0x000000000000a12c                system__secondary_stack__ss_init
 .text.system__secondary_stack__ss_mark
                0x000000000000a198        0xc C:\gnat\2021-arm-elf\arm-eabi\lib\gnat\zfp-cortex-m4f\adalib\libgnat.a(s-secsta.o)
                0x000000000000a198                system__secondary_stack__ss_mark
 .text.system__secondary_stack__ss_release
                0x000000000000a1a4        0xc C:\gnat\2021-arm-elf\arm-eabi\lib\gnat\zfp-cortex-m4f\adalib\libgnat.a(s-secsta.o)
                0x000000000000a1a4                system__secondary_stack__ss_release
 .text          0x000000000000a1b0        0x0 C:\gnat\2021-arm-elf\arm-eabi\lib\gnat\zfp-cortex-m4f\adalib\libgnat.a(s-sssita.o)
 .text.__gnat_get_secondary_stack
                0x000000000000a1b0       0x1c C:\gnat\2021-arm-elf\arm-eabi\lib\gnat\zfp-cortex-m4f\adalib\libgnat.a(s-sssita.o)
                0x000000000000a1b0                __gnat_get_secondary_stack
 .text          0x000000000000a1cc        0x0 C:\gnat\2021-arm-elf\arm-eabi\lib\gnat\zfp-cortex-m4f\adalib\libgnat.a(s-textio.o)
 .text.system__text_io__initialize
                0x000000000000a1cc        0xc C:\gnat\2021-arm-elf\arm-eabi\lib\gnat\zfp-cortex-m4f\adalib\libgnat.a(s-textio.o)
                0x000000000000a1cc                system__text_io__initialize
 .text.system__text_io__is_tx_ready
                0x000000000000a1d8        0x4 C:\gnat\2021-arm-elf\arm-eabi\lib\gnat\zfp-cortex-m4f\adalib\libgnat.a(s-textio.o)
                0x000000000000a1d8                system__text_io__is_tx_ready
 .text.system__text_io__is_rx_ready
                0x000000000000a1dc        0x4 C:\gnat\2021-arm-elf\arm-eabi\lib\gnat\zfp-cortex-m4f\adalib\libgnat.a(s-textio.o)
                0x000000000000a1dc                system__text_io__is_rx_ready
 .text.system__text_io__get
                0x000000000000a1e0        0x4 C:\gnat\2021-arm-elf\arm-eabi\lib\gnat\zfp-cortex-m4f\adalib\libgnat.a(s-textio.o)
                0x000000000000a1e0                system__text_io__get
 .text.system__text_io__put
                0x000000000000a1e4        0x4 C:\gnat\2021-arm-elf\arm-eabi\lib\gnat\zfp-cortex-m4f\adalib\libgnat.a(s-textio.o)
                0x000000000000a1e4                system__text_io__put
 .text.system__text_io__use_cr_lf_for_new_line
                0x000000000000a1e8        0x4 C:\gnat\2021-arm-elf\arm-eabi\lib\gnat\zfp-cortex-m4f\adalib\libgnat.a(s-textio.o)
                0x000000000000a1e8                system__text_io__use_cr_lf_for_new_line
 .text          0x000000000000a1ec        0x0 C:\gnat\2021-arm-elf\arm-eabi\lib\gnat\zfp-cortex-m4f\adalib\libgnat.a(a-assert.o)
 .text.ada__assertions__assert
                0x000000000000a1ec       0x18 C:\gnat\2021-arm-elf\arm-eabi\lib\gnat\zfp-cortex-m4f\adalib\libgnat.a(a-assert.o)
                0x000000000000a1ec                ada__assertions__assert
 .text.ada__assertions__assert__2
                0x000000000000a204       0x24 C:\gnat\2021-arm-elf\arm-eabi\lib\gnat\zfp-cortex-m4f\adalib\libgnat.a(a-assert.o)
                0x000000000000a204                ada__assertions__assert__2
 .text          0x000000000000a228        0x0 C:\gnat\2021-arm-elf\arm-eabi\lib\gnat\zfp-cortex-m4f\adalib\libgnat.a(a-except.o)
 .text.ada__exceptions__call_last_chance_handler_with_message
                0x000000000000a228       0x58 C:\gnat\2021-arm-elf\arm-eabi\lib\gnat\zfp-cortex-m4f\adalib\libgnat.a(a-except.o)
                0x000000000000a228                ada__exceptions__call_last_chance_handler_with_message
 .text          0x000000000000a280        0x0 C:\gnat\2021-arm-elf\arm-eabi\lib\gnat\zfp-cortex-m4f\adalib\libgnat.a(s-semiho.o)
 .text.system__semihosting__TbufferBIP
                0x000000000000a280        0x4 C:\gnat\2021-arm-elf\arm-eabi\lib\gnat\zfp-cortex-m4f\adalib\libgnat.a(s-semiho.o)
                0x000000000000a280                system__semihosting__TbufferBIP
 .text.system__semihosting__put
                0x000000000000a284       0x84 C:\gnat\2021-arm-elf\arm-eabi\lib\gnat\zfp-cortex-m4f\adalib\libgnat.a(s-semiho.o)
                0x000000000000a284                system__semihosting__put
 .text.system__semihosting__put__2
                0x000000000000a308       0xb4 C:\gnat\2021-arm-elf\arm-eabi\lib\gnat\zfp-cortex-m4f\adalib\libgnat.a(s-semiho.o)
                0x000000000000a308                system__semihosting__put__2
 .text.system__semihosting__get
                0x000000000000a3bc       0x10 C:\gnat\2021-arm-elf\arm-eabi\lib\gnat\zfp-cortex-m4f\adalib\libgnat.a(s-semiho.o)
                0x000000000000a3bc                system__semihosting__get
 .text          0x000000000000a3cc       0xa0 c:/gnat/2021-arm-elf/bin/../lib/gcc/arm-eabi/10.3.1/thumb/v7e-m/fpv4-sp/hard\libgcc.a(_aeabi_ldivmod.o)
                0x000000000000a3cc                __aeabi_ldivmod
 .text          0x000000000000a46c      0x2d8 c:/gnat/2021-arm-elf/bin/../lib/gcc/arm-eabi/10.3.1/thumb/v7e-m/fpv4-sp/hard\libgcc.a(_udivmoddi4.o)
                0x000000000000a46c                __udivmoddi4
 .text          0x000000000000a744        0x4 c:/gnat/2021-arm-elf/bin/../lib/gcc/arm-eabi/10.3.1/thumb/v7e-m/fpv4-sp/hard\libgcc.a(_dvmd_tls.o)
                0x000000000000a744                __aeabi_idiv0
                0x000000000000a744                __aeabi_ldiv0
 *(.gnu.warning)

.glue_7         0x000000000000a748        0x0
 .glue_7        0x000000000000a748        0x0 linker stubs

.glue_7t        0x000000000000a748        0x0
 .glue_7t       0x000000000000a748        0x0 linker stubs

.vfp11_veneer   0x000000000000a748        0x0
 .vfp11_veneer  0x000000000000a748        0x0 linker stubs

.v4_bx          0x000000000000a748        0x0
 .v4_bx         0x000000000000a748        0x0 linker stubs

.iplt           0x000000000000a748        0x0
 .iplt          0x000000000000a748        0x0 main.o

.ARM.extab      0x000000000000a748        0x0
 *(.ARM.extab* .gnu.linkonce.armextab.*)
 .ARM.extab     0x000000000000a748        0x0 c:/gnat/2021-arm-elf/bin/../lib/gcc/arm-eabi/10.3.1/thumb/v7e-m/fpv4-sp/hard\libgcc.a(_udivmoddi4.o)
                0x000000000000a748                . = ALIGN (0x4)
                [!provide]                        PROVIDE (__exidx_start = .)

.ARM.exidx      0x000000000000a748        0x8
 *(.ARM.exidx* .gnu.linkonce.armexidx.*)
 .ARM.exidx     0x000000000000a748        0x8 c:/gnat/2021-arm-elf/bin/../lib/gcc/arm-eabi/10.3.1/thumb/v7e-m/fpv4-sp/hard\libgcc.a(_udivmoddi4.o)
                [!provide]                        PROVIDE (__exidx_end = .)

.preinit_array  0x000000000000a750        0x0
                [!provide]                        PROVIDE (__preinit_array_start = .)
 *(.preinit_array*)
                [!provide]                        PROVIDE (__preinit_array_end = .)

.init_array     0x000000000000a750        0x0
                [!provide]                        PROVIDE (__init_array_start = .)
 *(SORT_BY_NAME(.init_array.*))
 *(.init_array*)
                [!provide]                        PROVIDE (__init_array_end = .)

.fini_array     0x000000000000a750        0x0
                [!provide]                        PROVIDE (__fini_array_start = .)
 *(SORT_BY_NAME(.fini_array.*))
 *(.fini_array*)
                [!provide]                        PROVIDE (__fini_array_end = .)

.rodata         0x000000000000a750     0x15ec
 *(.lit)
 *(.rodata .rodata.* .gnu.linkonce.r*)
 .rodata        0x000000000000a750       0x20 main.o
 .rodata        0x000000000000a770       0x4a b__main.o
                0x000000000000a780                __gnat_version
                0x000000000000a7ac                __gnat_version_address
                0x000000000000a7b0                __gnat_ada_main_program_name
 *fill*         0x000000000000a7ba        0x2 
 .rodata        0x000000000000a7bc       0x12 C:\Users\aditi.DESKTOP-49PGKM5\OneDrive - USN\Dokumenter\ada\Ada_Drivers_Library_j\boards\MicroBit_v2\obj\zfp_lib_Debug\libada_drivers_library.a(cortex_m-nvic.o)
 *fill*         0x000000000000a7ce        0x2 
 .rodata.cortex_m__nvic__priority_group_0
                0x000000000000a7d0        0x4 C:\Users\aditi.DESKTOP-49PGKM5\OneDrive - USN\Dokumenter\ada\Ada_Drivers_Library_j\boards\MicroBit_v2\obj\zfp_lib_Debug\libada_drivers_library.a(cortex_m-nvic.o)
                0x000000000000a7d0                cortex_m__nvic__priority_group_0
 .rodata.cortex_m__nvic__priority_group_1
                0x000000000000a7d4        0x4 C:\Users\aditi.DESKTOP-49PGKM5\OneDrive - USN\Dokumenter\ada\Ada_Drivers_Library_j\boards\MicroBit_v2\obj\zfp_lib_Debug\libada_drivers_library.a(cortex_m-nvic.o)
                0x000000000000a7d4                cortex_m__nvic__priority_group_1
 .rodata.cortex_m__nvic__priority_group_2
                0x000000000000a7d8        0x4 C:\Users\aditi.DESKTOP-49PGKM5\OneDrive - USN\Dokumenter\ada\Ada_Drivers_Library_j\boards\MicroBit_v2\obj\zfp_lib_Debug\libada_drivers_library.a(cortex_m-nvic.o)
                0x000000000000a7d8                cortex_m__nvic__priority_group_2
 .rodata.cortex_m__nvic__priority_group_3
                0x000000000000a7dc        0x4 C:\Users\aditi.DESKTOP-49PGKM5\OneDrive - USN\Dokumenter\ada\Ada_Drivers_Library_j\boards\MicroBit_v2\obj\zfp_lib_Debug\libada_drivers_library.a(cortex_m-nvic.o)
                0x000000000000a7dc                cortex_m__nvic__priority_group_3
 .rodata.cortex_m__nvic__priority_group_4
                0x000000000000a7e0        0x4 C:\Users\aditi.DESKTOP-49PGKM5\OneDrive - USN\Dokumenter\ada\Ada_Drivers_Library_j\boards\MicroBit_v2\obj\zfp_lib_Debug\libada_drivers_library.a(cortex_m-nvic.o)
                0x000000000000a7e0                cortex_m__nvic__priority_group_4
 .rodata.cortex_m__nvic__scb_aircr_prigroup_mask
                0x000000000000a7e4        0x4 C:\Users\aditi.DESKTOP-49PGKM5\OneDrive - USN\Dokumenter\ada\Ada_Drivers_Library_j\boards\MicroBit_v2\obj\zfp_lib_Debug\libada_drivers_library.a(cortex_m-nvic.o)
                0x000000000000a7e4                cortex_m__nvic__scb_aircr_prigroup_mask
 .rodata.cortex_m__nvic__scb_aircr_vectkey_mask
                0x000000000000a7e8        0x4 C:\Users\aditi.DESKTOP-49PGKM5\OneDrive - USN\Dokumenter\ada\Ada_Drivers_Library_j\boards\MicroBit_v2\obj\zfp_lib_Debug\libada_drivers_library.a(cortex_m-nvic.o)
                0x000000000000a7e8                cortex_m__nvic__scb_aircr_vectkey_mask
 .rodata.cortex_m__nvic__scb_aircr_sysresetreq_mask
                0x000000000000a7ec        0x4 C:\Users\aditi.DESKTOP-49PGKM5\OneDrive - USN\Dokumenter\ada\Ada_Drivers_Library_j\boards\MicroBit_v2\obj\zfp_lib_Debug\libada_drivers_library.a(cortex_m-nvic.o)
                0x000000000000a7ec                cortex_m__nvic__scb_aircr_sysresetreq_mask
 .rodata.cortex_m__nvic__scb
                0x000000000000a7f0        0x4 C:\Users\aditi.DESKTOP-49PGKM5\OneDrive - USN\Dokumenter\ada\Ada_Drivers_Library_j\boards\MicroBit_v2\obj\zfp_lib_Debug\libada_drivers_library.a(cortex_m-nvic.o)
                0x000000000000a7f0                cortex_m__nvic__scb
 .rodata.cortex_m__nvic__nvic
                0x000000000000a7f4        0x4 C:\Users\aditi.DESKTOP-49PGKM5\OneDrive - USN\Dokumenter\ada\Ada_Drivers_Library_j\boards\MicroBit_v2\obj\zfp_lib_Debug\libada_drivers_library.a(cortex_m-nvic.o)
                0x000000000000a7f4                cortex_m__nvic__nvic
 .rodata        0x000000000000a7f8       0x70 C:\Users\aditi.DESKTOP-49PGKM5\OneDrive - USN\Dokumenter\ada\Ada_Drivers_Library_j\boards\MicroBit_v2\obj\zfp_lib_Debug\libada_drivers_library.a(dfr0548.o)
 .rodata.dfr0548__motordriver_address
                0x000000000000a868        0x2 C:\Users\aditi.DESKTOP-49PGKM5\OneDrive - USN\Dokumenter\ada\Ada_Drivers_Library_j\boards\MicroBit_v2\obj\zfp_lib_Debug\libada_drivers_library.a(dfr0548.o)
                0x000000000000a868                dfr0548__motordriver_address
 .rodata.dfr0548__mode1
                0x000000000000a86a        0x1 C:\Users\aditi.DESKTOP-49PGKM5\OneDrive - USN\Dokumenter\ada\Ada_Drivers_Library_j\boards\MicroBit_v2\obj\zfp_lib_Debug\libada_drivers_library.a(dfr0548.o)
                0x000000000000a86a                dfr0548__mode1
 .rodata.dfr0548__prescale
                0x000000000000a86b        0x1 C:\Users\aditi.DESKTOP-49PGKM5\OneDrive - USN\Dokumenter\ada\Ada_Drivers_Library_j\boards\MicroBit_v2\obj\zfp_lib_Debug\libada_drivers_library.a(dfr0548.o)
                0x000000000000a86b                dfr0548__prescale
 .rodata.dfr0548__led0_on_l
                0x000000000000a86c        0x1 C:\Users\aditi.DESKTOP-49PGKM5\OneDrive - USN\Dokumenter\ada\Ada_Drivers_Library_j\boards\MicroBit_v2\obj\zfp_lib_Debug\libada_drivers_library.a(dfr0548.o)
                0x000000000000a86c                dfr0548__led0_on_l
 .rodata.dfr0548__led15_on_l
                0x000000000000a86d        0x1 C:\Users\aditi.DESKTOP-49PGKM5\OneDrive - USN\Dokumenter\ada\Ada_Drivers_Library_j\boards\MicroBit_v2\obj\zfp_lib_Debug\libada_drivers_library.a(dfr0548.o)
                0x000000000000a86d                dfr0548__led15_on_l
 .rodata.dfr0548__sleep
                0x000000000000a86e        0x1 C:\Users\aditi.DESKTOP-49PGKM5\OneDrive - USN\Dokumenter\ada\Ada_Drivers_Library_j\boards\MicroBit_v2\obj\zfp_lib_Debug\libada_drivers_library.a(dfr0548.o)
                0x000000000000a86e                dfr0548__sleep
 .rodata.dfr0548__start
                0x000000000000a86f        0x1 C:\Users\aditi.DESKTOP-49PGKM5\OneDrive - USN\Dokumenter\ada\Ada_Drivers_Library_j\boards\MicroBit_v2\obj\zfp_lib_Debug\libada_drivers_library.a(dfr0548.o)
                0x000000000000a86f                dfr0548__start
 .rodata.dfr0548__soft_reset
                0x000000000000a870        0x1 C:\Users\aditi.DESKTOP-49PGKM5\OneDrive - USN\Dokumenter\ada\Ada_Drivers_Library_j\boards\MicroBit_v2\obj\zfp_lib_Debug\libada_drivers_library.a(dfr0548.o)
                0x000000000000a870                dfr0548__soft_reset
 *fill*         0x000000000000a871        0x3 
 .rodata.dfr0548__motordriverY
                0x000000000000a874        0x4 C:\Users\aditi.DESKTOP-49PGKM5\OneDrive - USN\Dokumenter\ada\Ada_Drivers_Library_j\boards\MicroBit_v2\obj\zfp_lib_Debug\libada_drivers_library.a(dfr0548.o)
                0x000000000000a874                dfr0548__motordriverY
 .rodata.dfr0548__motordriverP
                0x000000000000a878        0x4 C:\Users\aditi.DESKTOP-49PGKM5\OneDrive - USN\Dokumenter\ada\Ada_Drivers_Library_j\boards\MicroBit_v2\obj\zfp_lib_Debug\libada_drivers_library.a(dfr0548.o)
                0x000000000000a878                dfr0548__motordriverP
 .rodata.dfr0548__motordriverE8s
                0x000000000000a87c       0x14 C:\Users\aditi.DESKTOP-49PGKM5\OneDrive - USN\Dokumenter\ada\Ada_Drivers_Library_j\boards\MicroBit_v2\obj\zfp_lib_Debug\libada_drivers_library.a(dfr0548.o)
                0x000000000000a87c                dfr0548__motordriverE8s
 .rodata.dfr0548__motordriverB12s
                0x000000000000a890       0x1c C:\Users\aditi.DESKTOP-49PGKM5\OneDrive - USN\Dokumenter\ada\Ada_Drivers_Library_j\boards\MicroBit_v2\obj\zfp_lib_Debug\libada_drivers_library.a(dfr0548.o)
                0x000000000000a890                dfr0548__motordriverB12s
 .rodata.dfr0548__motordriverR10s___UNC
                0x000000000000a8ac        0xc C:\Users\aditi.DESKTOP-49PGKM5\OneDrive - USN\Dokumenter\ada\Ada_Drivers_Library_j\boards\MicroBit_v2\obj\zfp_lib_Debug\libada_drivers_library.a(dfr0548.o)
                0x000000000000a8ac                dfr0548__motordriverR10s___UNC
 .rodata.dfr0548__motordriverR10s
                0x000000000000a8b8        0x4 C:\Users\aditi.DESKTOP-49PGKM5\OneDrive - USN\Dokumenter\ada\Ada_Drivers_Library_j\boards\MicroBit_v2\obj\zfp_lib_Debug\libada_drivers_library.a(dfr0548.o)
                0x000000000000a8b8                dfr0548__motordriverR10s
 .rodata.dfr0548__motordriverT
                0x000000000000a8bc       0x20 C:\Users\aditi.DESKTOP-49PGKM5\OneDrive - USN\Dokumenter\ada\Ada_Drivers_Library_j\boards\MicroBit_v2\obj\zfp_lib_Debug\libada_drivers_library.a(dfr0548.o)
                0x000000000000a8bc                dfr0548__motordriverT
 .rodata        0x000000000000a8dc       0x2c C:\Users\aditi.DESKTOP-49PGKM5\OneDrive - USN\Dokumenter\ada\Ada_Drivers_Library_j\boards\MicroBit_v2\obj\zfp_lib_Debug\libada_drivers_library.a(microbit-console.o)
 .rodata.microbit__console__uart
                0x000000000000a908        0x4 C:\Users\aditi.DESKTOP-49PGKM5\OneDrive - USN\Dokumenter\ada\Ada_Drivers_Library_j\boards\MicroBit_v2\obj\zfp_lib_Debug\libada_drivers_library.a(microbit-console.o)
 .rodata        0x000000000000a90c       0x80 C:\Users\aditi.DESKTOP-49PGKM5\OneDrive - USN\Dokumenter\ada\Ada_Drivers_Library_j\boards\MicroBit_v2\obj\zfp_lib_Debug\libada_drivers_library.a(microbit-display.o)
 .rodata.microbit__display__map
                0x000000000000a98c       0xc8 C:\Users\aditi.DESKTOP-49PGKM5\OneDrive - USN\Dokumenter\ada\Ada_Drivers_Library_j\boards\MicroBit_v2\obj\zfp_lib_Debug\libada_drivers_library.a(microbit-display.o)
                0x000000000000a98c                microbit__display__map
 .rodata.microbit__display__font
                0x000000000000aa54      0x1d6 C:\Users\aditi.DESKTOP-49PGKM5\OneDrive - USN\Dokumenter\ada\Ada_Drivers_Library_j\boards\MicroBit_v2\obj\zfp_lib_Debug\libada_drivers_library.a(microbit-display.o)
                0x000000000000aa54                microbit__display__font
 *fill*         0x000000000000ac2a        0x2 
 .rodata        0x000000000000ac2c       0x79 C:\Users\aditi.DESKTOP-49PGKM5\OneDrive - USN\Dokumenter\ada\Ada_Drivers_Library_j\boards\MicroBit_v2\obj\zfp_lib_Debug\libada_drivers_library.a(microbit-i2c.o)
 *fill*         0x000000000000aca5        0x3 
 .rodata.microbit__i2c__device
                0x000000000000aca8        0x4 C:\Users\aditi.DESKTOP-49PGKM5\OneDrive - USN\Dokumenter\ada\Ada_Drivers_Library_j\boards\MicroBit_v2\obj\zfp_lib_Debug\libada_drivers_library.a(microbit-i2c.o)
                0x000000000000aca8                microbit__i2c__device
 .rodata.microbit__i2c__deviceext
                0x000000000000acac        0x4 C:\Users\aditi.DESKTOP-49PGKM5\OneDrive - USN\Dokumenter\ada\Ada_Drivers_Library_j\boards\MicroBit_v2\obj\zfp_lib_Debug\libada_drivers_library.a(microbit-i2c.o)
                0x000000000000acac                microbit__i2c__deviceext
 .rodata        0x000000000000acb0       0x19 C:\Users\aditi.DESKTOP-49PGKM5\OneDrive - USN\Dokumenter\ada\Ada_Drivers_Library_j\boards\MicroBit_v2\obj\zfp_lib_Debug\libada_drivers_library.a(microbit-motordriver.o)
 *fill*         0x000000000000acc9        0x3 
 .rodata        0x000000000000accc       0x29 C:\Users\aditi.DESKTOP-49PGKM5\OneDrive - USN\Dokumenter\ada\Ada_Drivers_Library_j\boards\MicroBit_v2\obj\zfp_lib_Debug\libada_drivers_library.a(microbit-radio.o)
 *fill*         0x000000000000acf5        0x3 
 .rodata        0x000000000000acf8       0xe1 C:\Users\aditi.DESKTOP-49PGKM5\OneDrive - USN\Dokumenter\ada\Ada_Drivers_Library_j\boards\MicroBit_v2\obj\zfp_lib_Debug\libada_drivers_library.a(microbit-time.o)
 *fill*         0x000000000000add9        0x3 
 .rodata.microbit__time__mb_delaysY
                0x000000000000addc        0x4 C:\Users\aditi.DESKTOP-49PGKM5\OneDrive - USN\Dokumenter\ada\Ada_Drivers_Library_j\boards\MicroBit_v2\obj\zfp_lib_Debug\libada_drivers_library.a(microbit-time.o)
                0x000000000000addc                microbit__time__mb_delaysY
 .rodata.microbit__time__period_ms
                0x000000000000ade0        0x8 C:\Users\aditi.DESKTOP-49PGKM5\OneDrive - USN\Dokumenter\ada\Ada_Drivers_Library_j\boards\MicroBit_v2\obj\zfp_lib_Debug\libada_drivers_library.a(microbit-time.o)
 .rodata.microbit__time__mb_delaysP
                0x000000000000ade8        0x4 C:\Users\aditi.DESKTOP-49PGKM5\OneDrive - USN\Dokumenter\ada\Ada_Drivers_Library_j\boards\MicroBit_v2\obj\zfp_lib_Debug\libada_drivers_library.a(microbit-time.o)
                0x000000000000ade8                microbit__time__mb_delaysP
 .rodata.microbit__time__mb_delaysE17s
                0x000000000000adec       0x18 C:\Users\aditi.DESKTOP-49PGKM5\OneDrive - USN\Dokumenter\ada\Ada_Drivers_Library_j\boards\MicroBit_v2\obj\zfp_lib_Debug\libada_drivers_library.a(microbit-time.o)
                0x000000000000adec                microbit__time__mb_delaysE17s
 .rodata.microbit__time__mb_delaysB21s
                0x000000000000ae04       0x20 C:\Users\aditi.DESKTOP-49PGKM5\OneDrive - USN\Dokumenter\ada\Ada_Drivers_Library_j\boards\MicroBit_v2\obj\zfp_lib_Debug\libada_drivers_library.a(microbit-time.o)
                0x000000000000ae04                microbit__time__mb_delaysB21s
 .rodata.microbit__time__mb_delaysR19s___UNC
                0x000000000000ae24       0x24 C:\Users\aditi.DESKTOP-49PGKM5\OneDrive - USN\Dokumenter\ada\Ada_Drivers_Library_j\boards\MicroBit_v2\obj\zfp_lib_Debug\libada_drivers_library.a(microbit-time.o)
                0x000000000000ae24                microbit__time__mb_delaysR19s___UNC
 .rodata.microbit__time__mb_delaysR19s
                0x000000000000ae48        0x4 C:\Users\aditi.DESKTOP-49PGKM5\OneDrive - USN\Dokumenter\ada\Ada_Drivers_Library_j\boards\MicroBit_v2\obj\zfp_lib_Debug\libada_drivers_library.a(microbit-time.o)
                0x000000000000ae48                microbit__time__mb_delaysR19s
 .rodata.microbit__time__mb_delaysT
                0x000000000000ae4c       0x1c C:\Users\aditi.DESKTOP-49PGKM5\OneDrive - USN\Dokumenter\ada\Ada_Drivers_Library_j\boards\MicroBit_v2\obj\zfp_lib_Debug\libada_drivers_library.a(microbit-time.o)
                0x000000000000ae4c                microbit__time__mb_delaysT
 .rodata        0x000000000000ae68        0xe C:\Users\aditi.DESKTOP-49PGKM5\OneDrive - USN\Dokumenter\ada\Ada_Drivers_Library_j\boards\MicroBit_v2\obj\zfp_lib_Debug\libada_drivers_library.a(nrf-clock.o)
 *fill*         0x000000000000ae76        0x2 
 .rodata.nrf__device__undocumented_reg_fe0
                0x000000000000ae78        0x4 C:\Users\aditi.DESKTOP-49PGKM5\OneDrive - USN\Dokumenter\ada\Ada_Drivers_Library_j\boards\MicroBit_v2\obj\zfp_lib_Debug\libada_drivers_library.a(nrf-device.o)
 .rodata.nrf__device__undocumented_reg_fe4
                0x000000000000ae7c        0x4 C:\Users\aditi.DESKTOP-49PGKM5\OneDrive - USN\Dokumenter\ada\Ada_Drivers_Library_j\boards\MicroBit_v2\obj\zfp_lib_Debug\libada_drivers_library.a(nrf-device.o)
 .rodata.nrf__device__undocumented_reg_fe8
                0x000000000000ae80        0x4 C:\Users\aditi.DESKTOP-49PGKM5\OneDrive - USN\Dokumenter\ada\Ada_Drivers_Library_j\boards\MicroBit_v2\obj\zfp_lib_Debug\libada_drivers_library.a(nrf-device.o)
 .rodata.nrf__device__e12_undocumented_comp_reg_540
                0x000000000000ae84        0x4 C:\Users\aditi.DESKTOP-49PGKM5\OneDrive - USN\Dokumenter\ada\Ada_Drivers_Library_j\boards\MicroBit_v2\obj\zfp_lib_Debug\libada_drivers_library.a(nrf-device.o)
 .rodata.nrf__device__e12_undocumented_ficr_reg_324
                0x000000000000ae88        0x4 C:\Users\aditi.DESKTOP-49PGKM5\OneDrive - USN\Dokumenter\ada\Ada_Drivers_Library_j\boards\MicroBit_v2\obj\zfp_lib_Debug\libada_drivers_library.a(nrf-device.o)
 .rodata.nrf__device__e16_undocumented_reg_074
                0x000000000000ae8c        0x4 C:\Users\aditi.DESKTOP-49PGKM5\OneDrive - USN\Dokumenter\ada\Ada_Drivers_Library_j\boards\MicroBit_v2\obj\zfp_lib_Debug\libada_drivers_library.a(nrf-device.o)
 .rodata.nrf__device__e31_undocumented_clock_reg_53c
                0x000000000000ae90        0x4 C:\Users\aditi.DESKTOP-49PGKM5\OneDrive - USN\Dokumenter\ada\Ada_Drivers_Library_j\boards\MicroBit_v2\obj\zfp_lib_Debug\libada_drivers_library.a(nrf-device.o)
 .rodata.nrf__device__e31_undocumented_ficr_reg_244
                0x000000000000ae94        0x4 C:\Users\aditi.DESKTOP-49PGKM5\OneDrive - USN\Dokumenter\ada\Ada_Drivers_Library_j\boards\MicroBit_v2\obj\zfp_lib_Debug\libada_drivers_library.a(nrf-device.o)
 .rodata.nrf__device__e37_undocumented_reg_5a0
                0x000000000000ae98        0x4 C:\Users\aditi.DESKTOP-49PGKM5\OneDrive - USN\Dokumenter\ada\Ada_Drivers_Library_j\boards\MicroBit_v2\obj\zfp_lib_Debug\libada_drivers_library.a(nrf-device.o)
 .rodata.nrf__device__e57_undocumented_nfct_reg_610
                0x000000000000ae9c        0x4 C:\Users\aditi.DESKTOP-49PGKM5\OneDrive - USN\Dokumenter\ada\Ada_Drivers_Library_j\boards\MicroBit_v2\obj\zfp_lib_Debug\libada_drivers_library.a(nrf-device.o)
 .rodata.nrf__device__e57_undocumented_nfct_reg_614
                0x000000000000aea0        0x4 C:\Users\aditi.DESKTOP-49PGKM5\OneDrive - USN\Dokumenter\ada\Ada_Drivers_Library_j\boards\MicroBit_v2\obj\zfp_lib_Debug\libada_drivers_library.a(nrf-device.o)
 .rodata.nrf__device__e57_undocumented_nfct_reg_618
                0x000000000000aea4        0x4 C:\Users\aditi.DESKTOP-49PGKM5\OneDrive - USN\Dokumenter\ada\Ada_Drivers_Library_j\boards\MicroBit_v2\obj\zfp_lib_Debug\libada_drivers_library.a(nrf-device.o)
 .rodata.nrf__device__e57_undocumented_nfct_reg_688
                0x000000000000aea8        0x4 C:\Users\aditi.DESKTOP-49PGKM5\OneDrive - USN\Dokumenter\ada\Ada_Drivers_Library_j\boards\MicroBit_v2\obj\zfp_lib_Debug\libada_drivers_library.a(nrf-device.o)
 .rodata.nrf__device__e108_undocumented_reg_ee4
                0x000000000000aeac        0x4 C:\Users\aditi.DESKTOP-49PGKM5\OneDrive - USN\Dokumenter\ada\Ada_Drivers_Library_j\boards\MicroBit_v2\obj\zfp_lib_Debug\libada_drivers_library.a(nrf-device.o)
 .rodata.nrf__device__e108_undocumented_ficr_reg_258
                0x000000000000aeb0        0x4 C:\Users\aditi.DESKTOP-49PGKM5\OneDrive - USN\Dokumenter\ada\Ada_Drivers_Library_j\boards\MicroBit_v2\obj\zfp_lib_Debug\libada_drivers_library.a(nrf-device.o)
 .rodata.nrf__device__e182_undocumented_reg_73c
                0x000000000000aeb4        0x4 C:\Users\aditi.DESKTOP-49PGKM5\OneDrive - USN\Dokumenter\ada\Ada_Drivers_Library_j\boards\MicroBit_v2\obj\zfp_lib_Debug\libada_drivers_library.a(nrf-device.o)
 .rodata        0x000000000000aeb8        0xf C:\Users\aditi.DESKTOP-49PGKM5\OneDrive - USN\Dokumenter\ada\Ada_Drivers_Library_j\boards\MicroBit_v2\obj\zfp_lib_Debug\libada_drivers_library.a(nrf-events.o)
 *fill*         0x000000000000aec7        0x1 
 .rodata.nrf__events__power_pofwarn
                0x000000000000aec8        0x4 C:\Users\aditi.DESKTOP-49PGKM5\OneDrive - USN\Dokumenter\ada\Ada_Drivers_Library_j\boards\MicroBit_v2\obj\zfp_lib_Debug\libada_drivers_library.a(nrf-events.o)
                0x000000000000aec8                nrf__events__power_pofwarn
 .rodata.nrf__events__clock_hfclkstarted
                0x000000000000aecc        0x4 C:\Users\aditi.DESKTOP-49PGKM5\OneDrive - USN\Dokumenter\ada\Ada_Drivers_Library_j\boards\MicroBit_v2\obj\zfp_lib_Debug\libada_drivers_library.a(nrf-events.o)
                0x000000000000aecc                nrf__events__clock_hfclkstarted
 .rodata.nrf__events__clock_lfclkstarted
                0x000000000000aed0        0x4 C:\Users\aditi.DESKTOP-49PGKM5\OneDrive - USN\Dokumenter\ada\Ada_Drivers_Library_j\boards\MicroBit_v2\obj\zfp_lib_Debug\libada_drivers_library.a(nrf-events.o)
                0x000000000000aed0                nrf__events__clock_lfclkstarted
 .rodata.nrf__events__clock_done
                0x000000000000aed4        0x4 C:\Users\aditi.DESKTOP-49PGKM5\OneDrive - USN\Dokumenter\ada\Ada_Drivers_Library_j\boards\MicroBit_v2\obj\zfp_lib_Debug\libada_drivers_library.a(nrf-events.o)
                0x000000000000aed4                nrf__events__clock_done
 .rodata.nrf__events__clock_ctto
                0x000000000000aed8        0x4 C:\Users\aditi.DESKTOP-49PGKM5\OneDrive - USN\Dokumenter\ada\Ada_Drivers_Library_j\boards\MicroBit_v2\obj\zfp_lib_Debug\libada_drivers_library.a(nrf-events.o)
                0x000000000000aed8                nrf__events__clock_ctto
 .rodata.nrf__events__gpiote_in_0
                0x000000000000aedc        0x4 C:\Users\aditi.DESKTOP-49PGKM5\OneDrive - USN\Dokumenter\ada\Ada_Drivers_Library_j\boards\MicroBit_v2\obj\zfp_lib_Debug\libada_drivers_library.a(nrf-events.o)
                0x000000000000aedc                nrf__events__gpiote_in_0
 .rodata.nrf__events__gpiote_in_1
                0x000000000000aee0        0x4 C:\Users\aditi.DESKTOP-49PGKM5\OneDrive - USN\Dokumenter\ada\Ada_Drivers_Library_j\boards\MicroBit_v2\obj\zfp_lib_Debug\libada_drivers_library.a(nrf-events.o)
                0x000000000000aee0                nrf__events__gpiote_in_1
 .rodata.nrf__events__gpiote_in_2
                0x000000000000aee4        0x4 C:\Users\aditi.DESKTOP-49PGKM5\OneDrive - USN\Dokumenter\ada\Ada_Drivers_Library_j\boards\MicroBit_v2\obj\zfp_lib_Debug\libada_drivers_library.a(nrf-events.o)
                0x000000000000aee4                nrf__events__gpiote_in_2
 .rodata.nrf__events__gpiote_in_3
                0x000000000000aee8        0x4 C:\Users\aditi.DESKTOP-49PGKM5\OneDrive - USN\Dokumenter\ada\Ada_Drivers_Library_j\boards\MicroBit_v2\obj\zfp_lib_Debug\libada_drivers_library.a(nrf-events.o)
                0x000000000000aee8                nrf__events__gpiote_in_3
 .rodata.nrf__events__gpiote_port
                0x000000000000aeec        0x4 C:\Users\aditi.DESKTOP-49PGKM5\OneDrive - USN\Dokumenter\ada\Ada_Drivers_Library_j\boards\MicroBit_v2\obj\zfp_lib_Debug\libada_drivers_library.a(nrf-events.o)
                0x000000000000aeec                nrf__events__gpiote_port
 .rodata.nrf__events__radio_ready
                0x000000000000aef0        0x4 C:\Users\aditi.DESKTOP-49PGKM5\OneDrive - USN\Dokumenter\ada\Ada_Drivers_Library_j\boards\MicroBit_v2\obj\zfp_lib_Debug\libada_drivers_library.a(nrf-events.o)
                0x000000000000aef0                nrf__events__radio_ready
 .rodata.nrf__events__radio_address
                0x000000000000aef4        0x4 C:\Users\aditi.DESKTOP-49PGKM5\OneDrive - USN\Dokumenter\ada\Ada_Drivers_Library_j\boards\MicroBit_v2\obj\zfp_lib_Debug\libada_drivers_library.a(nrf-events.o)
                0x000000000000aef4                nrf__events__radio_address
 .rodata.nrf__events__radio_payload
                0x000000000000aef8        0x4 C:\Users\aditi.DESKTOP-49PGKM5\OneDrive - USN\Dokumenter\ada\Ada_Drivers_Library_j\boards\MicroBit_v2\obj\zfp_lib_Debug\libada_drivers_library.a(nrf-events.o)
                0x000000000000aef8                nrf__events__radio_payload
 .rodata.nrf__events__radio_end
                0x000000000000aefc        0x4 C:\Users\aditi.DESKTOP-49PGKM5\OneDrive - USN\Dokumenter\ada\Ada_Drivers_Library_j\boards\MicroBit_v2\obj\zfp_lib_Debug\libada_drivers_library.a(nrf-events.o)
                0x000000000000aefc                nrf__events__radio_end
 .rodata.nrf__events__radio_disabled
                0x000000000000af00        0x4 C:\Users\aditi.DESKTOP-49PGKM5\OneDrive - USN\Dokumenter\ada\Ada_Drivers_Library_j\boards\MicroBit_v2\obj\zfp_lib_Debug\libada_drivers_library.a(nrf-events.o)
                0x000000000000af00                nrf__events__radio_disabled
 .rodata.nrf__events__radio_devmatch
                0x000000000000af04        0x4 C:\Users\aditi.DESKTOP-49PGKM5\OneDrive - USN\Dokumenter\ada\Ada_Drivers_Library_j\boards\MicroBit_v2\obj\zfp_lib_Debug\libada_drivers_library.a(nrf-events.o)
                0x000000000000af04                nrf__events__radio_devmatch
 .rodata.nrf__events__radio_devmiss
                0x000000000000af08        0x4 C:\Users\aditi.DESKTOP-49PGKM5\OneDrive - USN\Dokumenter\ada\Ada_Drivers_Library_j\boards\MicroBit_v2\obj\zfp_lib_Debug\libada_drivers_library.a(nrf-events.o)
                0x000000000000af08                nrf__events__radio_devmiss
 .rodata.nrf__events__radio_rssiend
                0x000000000000af0c        0x4 C:\Users\aditi.DESKTOP-49PGKM5\OneDrive - USN\Dokumenter\ada\Ada_Drivers_Library_j\boards\MicroBit_v2\obj\zfp_lib_Debug\libada_drivers_library.a(nrf-events.o)
                0x000000000000af0c                nrf__events__radio_rssiend
 .rodata.nrf__events__radio_bcmatch
                0x000000000000af10        0x4 C:\Users\aditi.DESKTOP-49PGKM5\OneDrive - USN\Dokumenter\ada\Ada_Drivers_Library_j\boards\MicroBit_v2\obj\zfp_lib_Debug\libada_drivers_library.a(nrf-events.o)
                0x000000000000af10                nrf__events__radio_bcmatch
 .rodata.nrf__events__radio_crcok
                0x000000000000af14        0x4 C:\Users\aditi.DESKTOP-49PGKM5\OneDrive - USN\Dokumenter\ada\Ada_Drivers_Library_j\boards\MicroBit_v2\obj\zfp_lib_Debug\libada_drivers_library.a(nrf-events.o)
                0x000000000000af14                nrf__events__radio_crcok
 .rodata.nrf__events__radio_crcerror
                0x000000000000af18        0x4 C:\Users\aditi.DESKTOP-49PGKM5\OneDrive - USN\Dokumenter\ada\Ada_Drivers_Library_j\boards\MicroBit_v2\obj\zfp_lib_Debug\libada_drivers_library.a(nrf-events.o)
                0x000000000000af18                nrf__events__radio_crcerror
 .rodata.nrf__events__timer_0_compare_0
                0x000000000000af1c        0x4 C:\Users\aditi.DESKTOP-49PGKM5\OneDrive - USN\Dokumenter\ada\Ada_Drivers_Library_j\boards\MicroBit_v2\obj\zfp_lib_Debug\libada_drivers_library.a(nrf-events.o)
                0x000000000000af1c                nrf__events__timer_0_compare_0
 .rodata.nrf__events__timer_0_compare_1
                0x000000000000af20        0x4 C:\Users\aditi.DESKTOP-49PGKM5\OneDrive - USN\Dokumenter\ada\Ada_Drivers_Library_j\boards\MicroBit_v2\obj\zfp_lib_Debug\libada_drivers_library.a(nrf-events.o)
                0x000000000000af20                nrf__events__timer_0_compare_1
 .rodata.nrf__events__timer_0_compare_2
                0x000000000000af24        0x4 C:\Users\aditi.DESKTOP-49PGKM5\OneDrive - USN\Dokumenter\ada\Ada_Drivers_Library_j\boards\MicroBit_v2\obj\zfp_lib_Debug\libada_drivers_library.a(nrf-events.o)
                0x000000000000af24                nrf__events__timer_0_compare_2
 .rodata.nrf__events__timer_0_compare_3
                0x000000000000af28        0x4 C:\Users\aditi.DESKTOP-49PGKM5\OneDrive - USN\Dokumenter\ada\Ada_Drivers_Library_j\boards\MicroBit_v2\obj\zfp_lib_Debug\libada_drivers_library.a(nrf-events.o)
                0x000000000000af28                nrf__events__timer_0_compare_3
 .rodata.nrf__events__timer_1_compare_0
                0x000000000000af2c        0x4 C:\Users\aditi.DESKTOP-49PGKM5\OneDrive - USN\Dokumenter\ada\Ada_Drivers_Library_j\boards\MicroBit_v2\obj\zfp_lib_Debug\libada_drivers_library.a(nrf-events.o)
                0x000000000000af2c                nrf__events__timer_1_compare_0
 .rodata.nrf__events__timer_1_compare_1
                0x000000000000af30        0x4 C:\Users\aditi.DESKTOP-49PGKM5\OneDrive - USN\Dokumenter\ada\Ada_Drivers_Library_j\boards\MicroBit_v2\obj\zfp_lib_Debug\libada_drivers_library.a(nrf-events.o)
                0x000000000000af30                nrf__events__timer_1_compare_1
 .rodata.nrf__events__timer_1_compare_2
                0x000000000000af34        0x4 C:\Users\aditi.DESKTOP-49PGKM5\OneDrive - USN\Dokumenter\ada\Ada_Drivers_Library_j\boards\MicroBit_v2\obj\zfp_lib_Debug\libada_drivers_library.a(nrf-events.o)
                0x000000000000af34                nrf__events__timer_1_compare_2
 .rodata.nrf__events__timer_1_compare_3
                0x000000000000af38        0x4 C:\Users\aditi.DESKTOP-49PGKM5\OneDrive - USN\Dokumenter\ada\Ada_Drivers_Library_j\boards\MicroBit_v2\obj\zfp_lib_Debug\libada_drivers_library.a(nrf-events.o)
                0x000000000000af38                nrf__events__timer_1_compare_3
 .rodata.nrf__events__timer_2_compare_0
                0x000000000000af3c        0x4 C:\Users\aditi.DESKTOP-49PGKM5\OneDrive - USN\Dokumenter\ada\Ada_Drivers_Library_j\boards\MicroBit_v2\obj\zfp_lib_Debug\libada_drivers_library.a(nrf-events.o)
                0x000000000000af3c                nrf__events__timer_2_compare_0
 .rodata.nrf__events__timer_2_compare_1
                0x000000000000af40        0x4 C:\Users\aditi.DESKTOP-49PGKM5\OneDrive - USN\Dokumenter\ada\Ada_Drivers_Library_j\boards\MicroBit_v2\obj\zfp_lib_Debug\libada_drivers_library.a(nrf-events.o)
                0x000000000000af40                nrf__events__timer_2_compare_1
 .rodata.nrf__events__timer_2_compare_2
                0x000000000000af44        0x4 C:\Users\aditi.DESKTOP-49PGKM5\OneDrive - USN\Dokumenter\ada\Ada_Drivers_Library_j\boards\MicroBit_v2\obj\zfp_lib_Debug\libada_drivers_library.a(nrf-events.o)
                0x000000000000af44                nrf__events__timer_2_compare_2
 .rodata.nrf__events__timer_2_compare_3
                0x000000000000af48        0x4 C:\Users\aditi.DESKTOP-49PGKM5\OneDrive - USN\Dokumenter\ada\Ada_Drivers_Library_j\boards\MicroBit_v2\obj\zfp_lib_Debug\libada_drivers_library.a(nrf-events.o)
                0x000000000000af48                nrf__events__timer_2_compare_3
 .rodata.nrf__events__rtc_0_tick
                0x000000000000af4c        0x4 C:\Users\aditi.DESKTOP-49PGKM5\OneDrive - USN\Dokumenter\ada\Ada_Drivers_Library_j\boards\MicroBit_v2\obj\zfp_lib_Debug\libada_drivers_library.a(nrf-events.o)
                0x000000000000af4c                nrf__events__rtc_0_tick
 .rodata.nrf__events__rtc_0_overflw
                0x000000000000af50        0x4 C:\Users\aditi.DESKTOP-49PGKM5\OneDrive - USN\Dokumenter\ada\Ada_Drivers_Library_j\boards\MicroBit_v2\obj\zfp_lib_Debug\libada_drivers_library.a(nrf-events.o)
                0x000000000000af50                nrf__events__rtc_0_overflw
 .rodata.nrf__events__rtc_0_compare_0
                0x000000000000af54        0x4 C:\Users\aditi.DESKTOP-49PGKM5\OneDrive - USN\Dokumenter\ada\Ada_Drivers_Library_j\boards\MicroBit_v2\obj\zfp_lib_Debug\libada_drivers_library.a(nrf-events.o)
                0x000000000000af54                nrf__events__rtc_0_compare_0
 .rodata.nrf__events__rtc_0_compare_1
                0x000000000000af58        0x4 C:\Users\aditi.DESKTOP-49PGKM5\OneDrive - USN\Dokumenter\ada\Ada_Drivers_Library_j\boards\MicroBit_v2\obj\zfp_lib_Debug\libada_drivers_library.a(nrf-events.o)
                0x000000000000af58                nrf__events__rtc_0_compare_1
 .rodata.nrf__events__rtc_0_compare_2
                0x000000000000af5c        0x4 C:\Users\aditi.DESKTOP-49PGKM5\OneDrive - USN\Dokumenter\ada\Ada_Drivers_Library_j\boards\MicroBit_v2\obj\zfp_lib_Debug\libada_drivers_library.a(nrf-events.o)
                0x000000000000af5c                nrf__events__rtc_0_compare_2
 .rodata.nrf__events__rtc_0_compare_3
                0x000000000000af60        0x4 C:\Users\aditi.DESKTOP-49PGKM5\OneDrive - USN\Dokumenter\ada\Ada_Drivers_Library_j\boards\MicroBit_v2\obj\zfp_lib_Debug\libada_drivers_library.a(nrf-events.o)
                0x000000000000af60                nrf__events__rtc_0_compare_3
 .rodata.nrf__events__rtc_1_tick
                0x000000000000af64        0x4 C:\Users\aditi.DESKTOP-49PGKM5\OneDrive - USN\Dokumenter\ada\Ada_Drivers_Library_j\boards\MicroBit_v2\obj\zfp_lib_Debug\libada_drivers_library.a(nrf-events.o)
                0x000000000000af64                nrf__events__rtc_1_tick
 .rodata.nrf__events__rtc_1_overflw
                0x000000000000af68        0x4 C:\Users\aditi.DESKTOP-49PGKM5\OneDrive - USN\Dokumenter\ada\Ada_Drivers_Library_j\boards\MicroBit_v2\obj\zfp_lib_Debug\libada_drivers_library.a(nrf-events.o)
                0x000000000000af68                nrf__events__rtc_1_overflw
 .rodata.nrf__events__rtc_1_compare_0
                0x000000000000af6c        0x4 C:\Users\aditi.DESKTOP-49PGKM5\OneDrive - USN\Dokumenter\ada\Ada_Drivers_Library_j\boards\MicroBit_v2\obj\zfp_lib_Debug\libada_drivers_library.a(nrf-events.o)
                0x000000000000af6c                nrf__events__rtc_1_compare_0
 .rodata.nrf__events__rtc_1_compare_1
                0x000000000000af70        0x4 C:\Users\aditi.DESKTOP-49PGKM5\OneDrive - USN\Dokumenter\ada\Ada_Drivers_Library_j\boards\MicroBit_v2\obj\zfp_lib_Debug\libada_drivers_library.a(nrf-events.o)
                0x000000000000af70                nrf__events__rtc_1_compare_1
 .rodata.nrf__events__rtc_1_compare_2
                0x000000000000af74        0x4 C:\Users\aditi.DESKTOP-49PGKM5\OneDrive - USN\Dokumenter\ada\Ada_Drivers_Library_j\boards\MicroBit_v2\obj\zfp_lib_Debug\libada_drivers_library.a(nrf-events.o)
                0x000000000000af74                nrf__events__rtc_1_compare_2
 .rodata.nrf__events__rtc_1_compare_3
                0x000000000000af78        0x4 C:\Users\aditi.DESKTOP-49PGKM5\OneDrive - USN\Dokumenter\ada\Ada_Drivers_Library_j\boards\MicroBit_v2\obj\zfp_lib_Debug\libada_drivers_library.a(nrf-events.o)
                0x000000000000af78                nrf__events__rtc_1_compare_3
 .rodata.nrf__events__watchdog_timeout
                0x000000000000af7c        0x4 C:\Users\aditi.DESKTOP-49PGKM5\OneDrive - USN\Dokumenter\ada\Ada_Drivers_Library_j\boards\MicroBit_v2\obj\zfp_lib_Debug\libada_drivers_library.a(nrf-events.o)
                0x000000000000af7c                nrf__events__watchdog_timeout
 .rodata.nrf__events__rng_valrdy
                0x000000000000af80        0x4 C:\Users\aditi.DESKTOP-49PGKM5\OneDrive - USN\Dokumenter\ada\Ada_Drivers_Library_j\boards\MicroBit_v2\obj\zfp_lib_Debug\libada_drivers_library.a(nrf-events.o)
                0x000000000000af80                nrf__events__rng_valrdy
 .rodata.nrf__events__temperature_datardy
                0x000000000000af84        0x4 C:\Users\aditi.DESKTOP-49PGKM5\OneDrive - USN\Dokumenter\ada\Ada_Drivers_Library_j\boards\MicroBit_v2\obj\zfp_lib_Debug\libada_drivers_library.a(nrf-events.o)
                0x000000000000af84                nrf__events__temperature_datardy
 .rodata.nrf__events__ecb_end
                0x000000000000af88        0x4 C:\Users\aditi.DESKTOP-49PGKM5\OneDrive - USN\Dokumenter\ada\Ada_Drivers_Library_j\boards\MicroBit_v2\obj\zfp_lib_Debug\libada_drivers_library.a(nrf-events.o)
                0x000000000000af88                nrf__events__ecb_end
 .rodata.nrf__events__ecb_error
                0x000000000000af8c        0x4 C:\Users\aditi.DESKTOP-49PGKM5\OneDrive - USN\Dokumenter\ada\Ada_Drivers_Library_j\boards\MicroBit_v2\obj\zfp_lib_Debug\libada_drivers_library.a(nrf-events.o)
                0x000000000000af8c                nrf__events__ecb_error
 .rodata.nrf__events__ccm_ksgen_end
                0x000000000000af90        0x4 C:\Users\aditi.DESKTOP-49PGKM5\OneDrive - USN\Dokumenter\ada\Ada_Drivers_Library_j\boards\MicroBit_v2\obj\zfp_lib_Debug\libada_drivers_library.a(nrf-events.o)
                0x000000000000af90                nrf__events__ccm_ksgen_end
 .rodata.nrf__events__ccm_crypt_end
                0x000000000000af94        0x4 C:\Users\aditi.DESKTOP-49PGKM5\OneDrive - USN\Dokumenter\ada\Ada_Drivers_Library_j\boards\MicroBit_v2\obj\zfp_lib_Debug\libada_drivers_library.a(nrf-events.o)
                0x000000000000af94                nrf__events__ccm_crypt_end
 .rodata.nrf__events__ccm_error
                0x000000000000af98        0x4 C:\Users\aditi.DESKTOP-49PGKM5\OneDrive - USN\Dokumenter\ada\Ada_Drivers_Library_j\boards\MicroBit_v2\obj\zfp_lib_Debug\libada_drivers_library.a(nrf-events.o)
                0x000000000000af98                nrf__events__ccm_error
 .rodata.nrf__events__aar_end
                0x000000000000af9c        0x4 C:\Users\aditi.DESKTOP-49PGKM5\OneDrive - USN\Dokumenter\ada\Ada_Drivers_Library_j\boards\MicroBit_v2\obj\zfp_lib_Debug\libada_drivers_library.a(nrf-events.o)
                0x000000000000af9c                nrf__events__aar_end
 .rodata.nrf__events__aar_resolved
                0x000000000000afa0        0x4 C:\Users\aditi.DESKTOP-49PGKM5\OneDrive - USN\Dokumenter\ada\Ada_Drivers_Library_j\boards\MicroBit_v2\obj\zfp_lib_Debug\libada_drivers_library.a(nrf-events.o)
                0x000000000000afa0                nrf__events__aar_resolved
 .rodata.nrf__events__aar_notresolved
                0x000000000000afa4        0x4 C:\Users\aditi.DESKTOP-49PGKM5\OneDrive - USN\Dokumenter\ada\Ada_Drivers_Library_j\boards\MicroBit_v2\obj\zfp_lib_Debug\libada_drivers_library.a(nrf-events.o)
                0x000000000000afa4                nrf__events__aar_notresolved
 .rodata.nrf__events__spi_0_ready
                0x000000000000afa8        0x4 C:\Users\aditi.DESKTOP-49PGKM5\OneDrive - USN\Dokumenter\ada\Ada_Drivers_Library_j\boards\MicroBit_v2\obj\zfp_lib_Debug\libada_drivers_library.a(nrf-events.o)
                0x000000000000afa8                nrf__events__spi_0_ready
 .rodata.nrf__events__spi_1_ready
                0x000000000000afac        0x4 C:\Users\aditi.DESKTOP-49PGKM5\OneDrive - USN\Dokumenter\ada\Ada_Drivers_Library_j\boards\MicroBit_v2\obj\zfp_lib_Debug\libada_drivers_library.a(nrf-events.o)
                0x000000000000afac                nrf__events__spi_1_ready
 .rodata.nrf__events__twi_0_stopped
                0x000000000000afb0        0x4 C:\Users\aditi.DESKTOP-49PGKM5\OneDrive - USN\Dokumenter\ada\Ada_Drivers_Library_j\boards\MicroBit_v2\obj\zfp_lib_Debug\libada_drivers_library.a(nrf-events.o)
                0x000000000000afb0                nrf__events__twi_0_stopped
 .rodata.nrf__events__twi_0_rxdrdy
                0x000000000000afb4        0x4 C:\Users\aditi.DESKTOP-49PGKM5\OneDrive - USN\Dokumenter\ada\Ada_Drivers_Library_j\boards\MicroBit_v2\obj\zfp_lib_Debug\libada_drivers_library.a(nrf-events.o)
                0x000000000000afb4                nrf__events__twi_0_rxdrdy
 .rodata.nrf__events__twi_0_txdent
                0x000000000000afb8        0x4 C:\Users\aditi.DESKTOP-49PGKM5\OneDrive - USN\Dokumenter\ada\Ada_Drivers_Library_j\boards\MicroBit_v2\obj\zfp_lib_Debug\libada_drivers_library.a(nrf-events.o)
                0x000000000000afb8                nrf__events__twi_0_txdent
 .rodata.nrf__events__twi_0_erro
                0x000000000000afbc        0x4 C:\Users\aditi.DESKTOP-49PGKM5\OneDrive - USN\Dokumenter\ada\Ada_Drivers_Library_j\boards\MicroBit_v2\obj\zfp_lib_Debug\libada_drivers_library.a(nrf-events.o)
                0x000000000000afbc                nrf__events__twi_0_erro
 .rodata.nrf__events__twi_0_bb
                0x000000000000afc0        0x4 C:\Users\aditi.DESKTOP-49PGKM5\OneDrive - USN\Dokumenter\ada\Ada_Drivers_Library_j\boards\MicroBit_v2\obj\zfp_lib_Debug\libada_drivers_library.a(nrf-events.o)
                0x000000000000afc0                nrf__events__twi_0_bb
 .rodata.nrf__events__twi_0_suspended
                0x000000000000afc4        0x4 C:\Users\aditi.DESKTOP-49PGKM5\OneDrive - USN\Dokumenter\ada\Ada_Drivers_Library_j\boards\MicroBit_v2\obj\zfp_lib_Debug\libada_drivers_library.a(nrf-events.o)
                0x000000000000afc4                nrf__events__twi_0_suspended
 .rodata.nrf__events__twi_1_stopped
                0x000000000000afc8        0x4 C:\Users\aditi.DESKTOP-49PGKM5\OneDrive - USN\Dokumenter\ada\Ada_Drivers_Library_j\boards\MicroBit_v2\obj\zfp_lib_Debug\libada_drivers_library.a(nrf-events.o)
                0x000000000000afc8                nrf__events__twi_1_stopped
 .rodata.nrf__events__twi_1_rxdrdy
                0x000000000000afcc        0x4 C:\Users\aditi.DESKTOP-49PGKM5\OneDrive - USN\Dokumenter\ada\Ada_Drivers_Library_j\boards\MicroBit_v2\obj\zfp_lib_Debug\libada_drivers_library.a(nrf-events.o)
                0x000000000000afcc                nrf__events__twi_1_rxdrdy
 .rodata.nrf__events__twi_1_txdent
                0x000000000000afd0        0x4 C:\Users\aditi.DESKTOP-49PGKM5\OneDrive - USN\Dokumenter\ada\Ada_Drivers_Library_j\boards\MicroBit_v2\obj\zfp_lib_Debug\libada_drivers_library.a(nrf-events.o)
                0x000000000000afd0                nrf__events__twi_1_txdent
 .rodata.nrf__events__twi_1_erro
                0x000000000000afd4        0x4 C:\Users\aditi.DESKTOP-49PGKM5\OneDrive - USN\Dokumenter\ada\Ada_Drivers_Library_j\boards\MicroBit_v2\obj\zfp_lib_Debug\libada_drivers_library.a(nrf-events.o)
                0x000000000000afd4                nrf__events__twi_1_erro
 .rodata.nrf__events__twi_1_bb
                0x000000000000afd8        0x4 C:\Users\aditi.DESKTOP-49PGKM5\OneDrive - USN\Dokumenter\ada\Ada_Drivers_Library_j\boards\MicroBit_v2\obj\zfp_lib_Debug\libada_drivers_library.a(nrf-events.o)
                0x000000000000afd8                nrf__events__twi_1_bb
 .rodata.nrf__events__twi_1_suspended
                0x000000000000afdc        0x4 C:\Users\aditi.DESKTOP-49PGKM5\OneDrive - USN\Dokumenter\ada\Ada_Drivers_Library_j\boards\MicroBit_v2\obj\zfp_lib_Debug\libada_drivers_library.a(nrf-events.o)
                0x000000000000afdc                nrf__events__twi_1_suspended
 .rodata.nrf__events__uart_rxdrdy
                0x000000000000afe0        0x4 C:\Users\aditi.DESKTOP-49PGKM5\OneDrive - USN\Dokumenter\ada\Ada_Drivers_Library_j\boards\MicroBit_v2\obj\zfp_lib_Debug\libada_drivers_library.a(nrf-events.o)
                0x000000000000afe0                nrf__events__uart_rxdrdy
 .rodata.nrf__events__uart_txdrdy
                0x000000000000afe4        0x4 C:\Users\aditi.DESKTOP-49PGKM5\OneDrive - USN\Dokumenter\ada\Ada_Drivers_Library_j\boards\MicroBit_v2\obj\zfp_lib_Debug\libada_drivers_library.a(nrf-events.o)
                0x000000000000afe4                nrf__events__uart_txdrdy
 .rodata.nrf__events__uart_error
                0x000000000000afe8        0x4 C:\Users\aditi.DESKTOP-49PGKM5\OneDrive - USN\Dokumenter\ada\Ada_Drivers_Library_j\boards\MicroBit_v2\obj\zfp_lib_Debug\libada_drivers_library.a(nrf-events.o)
                0x000000000000afe8                nrf__events__uart_error
 .rodata.nrf__events__qdec_samplerdy
                0x000000000000afec        0x4 C:\Users\aditi.DESKTOP-49PGKM5\OneDrive - USN\Dokumenter\ada\Ada_Drivers_Library_j\boards\MicroBit_v2\obj\zfp_lib_Debug\libada_drivers_library.a(nrf-events.o)
                0x000000000000afec                nrf__events__qdec_samplerdy
 .rodata.nrf__events__qdec_reportrdy
                0x000000000000aff0        0x4 C:\Users\aditi.DESKTOP-49PGKM5\OneDrive - USN\Dokumenter\ada\Ada_Drivers_Library_j\boards\MicroBit_v2\obj\zfp_lib_Debug\libada_drivers_library.a(nrf-events.o)
                0x000000000000aff0                nrf__events__qdec_reportrdy
 .rodata.nrf__events__qdec_accof
                0x000000000000aff4        0x4 C:\Users\aditi.DESKTOP-49PGKM5\OneDrive - USN\Dokumenter\ada\Ada_Drivers_Library_j\boards\MicroBit_v2\obj\zfp_lib_Debug\libada_drivers_library.a(nrf-events.o)
                0x000000000000aff4                nrf__events__qdec_accof
 .rodata.nrf__events__adc_end
                0x000000000000aff8        0x4 C:\Users\aditi.DESKTOP-49PGKM5\OneDrive - USN\Dokumenter\ada\Ada_Drivers_Library_j\boards\MicroBit_v2\obj\zfp_lib_Debug\libada_drivers_library.a(nrf-events.o)
                0x000000000000aff8                nrf__events__adc_end
 .rodata        0x000000000000affc       0xc2 C:\Users\aditi.DESKTOP-49PGKM5\OneDrive - USN\Dokumenter\ada\Ada_Drivers_Library_j\boards\MicroBit_v2\obj\zfp_lib_Debug\libada_drivers_library.a(nrf-gpio.o)
 *fill*         0x000000000000b0be        0x2 
 .rodata.nrf__gpio__gpio_pointY
                0x000000000000b0c0        0x4 C:\Users\aditi.DESKTOP-49PGKM5\OneDrive - USN\Dokumenter\ada\Ada_Drivers_Library_j\boards\MicroBit_v2\obj\zfp_lib_Debug\libada_drivers_library.a(nrf-gpio.o)
                0x000000000000b0c0                nrf__gpio__gpio_pointY
 .rodata.nrf__gpio__gpio_pointP
                0x000000000000b0c4        0x4 C:\Users\aditi.DESKTOP-49PGKM5\OneDrive - USN\Dokumenter\ada\Ada_Drivers_Library_j\boards\MicroBit_v2\obj\zfp_lib_Debug\libada_drivers_library.a(nrf-gpio.o)
                0x000000000000b0c4                nrf__gpio__gpio_pointP
 .rodata.nrf__gpio__gpio_pointE13s
                0x000000000000b0c8       0x14 C:\Users\aditi.DESKTOP-49PGKM5\OneDrive - USN\Dokumenter\ada\Ada_Drivers_Library_j\boards\MicroBit_v2\obj\zfp_lib_Debug\libada_drivers_library.a(nrf-gpio.o)
                0x000000000000b0c8                nrf__gpio__gpio_pointE13s
 .rodata.nrf__gpio__gpio_pointB17s
                0x000000000000b0dc       0x20 C:\Users\aditi.DESKTOP-49PGKM5\OneDrive - USN\Dokumenter\ada\Ada_Drivers_Library_j\boards\MicroBit_v2\obj\zfp_lib_Debug\libada_drivers_library.a(nrf-gpio.o)
                0x000000000000b0dc                nrf__gpio__gpio_pointB17s
 .rodata.nrf__gpio__gpio_pointR15s___UNC
                0x000000000000b0fc       0x24 C:\Users\aditi.DESKTOP-49PGKM5\OneDrive - USN\Dokumenter\ada\Ada_Drivers_Library_j\boards\MicroBit_v2\obj\zfp_lib_Debug\libada_drivers_library.a(nrf-gpio.o)
                0x000000000000b0fc                nrf__gpio__gpio_pointR15s___UNC
 .rodata.nrf__gpio__gpio_pointR15s
                0x000000000000b120        0x4 C:\Users\aditi.DESKTOP-49PGKM5\OneDrive - USN\Dokumenter\ada\Ada_Drivers_Library_j\boards\MicroBit_v2\obj\zfp_lib_Debug\libada_drivers_library.a(nrf-gpio.o)
                0x000000000000b120                nrf__gpio__gpio_pointR15s
 .rodata.nrf__gpio__gpio_pointT
                0x000000000000b124       0x38 C:\Users\aditi.DESKTOP-49PGKM5\OneDrive - USN\Dokumenter\ada\Ada_Drivers_Library_j\boards\MicroBit_v2\obj\zfp_lib_Debug\libada_drivers_library.a(nrf-gpio.o)
                0x000000000000b124                nrf__gpio__gpio_pointT
 .rodata        0x000000000000b15c       0x13 C:\Users\aditi.DESKTOP-49PGKM5\OneDrive - USN\Dokumenter\ada\Ada_Drivers_Library_j\boards\MicroBit_v2\obj\zfp_lib_Debug\libada_drivers_library.a(nrf-interrupts.o)
 *fill*         0x000000000000b16f        0x1 
 .rodata        0x000000000000b170       0xc6 C:\Users\aditi.DESKTOP-49PGKM5\OneDrive - USN\Dokumenter\ada\Ada_Drivers_Library_j\boards\MicroBit_v2\obj\zfp_lib_Debug\libada_drivers_library.a(nrf-radio.o)
 .rodata.nrf__radio__microbit_radio_maximum_rx_buffers
                0x000000000000b236        0x1 C:\Users\aditi.DESKTOP-49PGKM5\OneDrive - USN\Dokumenter\ada\Ada_Drivers_Library_j\boards\MicroBit_v2\obj\zfp_lib_Debug\libada_drivers_library.a(nrf-radio.o)
                0x000000000000b236                nrf__radio__microbit_radio_maximum_rx_buffers
 .rodata.nrf__radio__microbit_radio_max_packet_size
                0x000000000000b237        0x1 C:\Users\aditi.DESKTOP-49PGKM5\OneDrive - USN\Dokumenter\ada\Ada_Drivers_Library_j\boards\MicroBit_v2\obj\zfp_lib_Debug\libada_drivers_library.a(nrf-radio.o)
                0x000000000000b237                nrf__radio__microbit_radio_max_packet_size
 .rodata.nrf__radio__microbit_radio_header_size
                0x000000000000b238        0x1 C:\Users\aditi.DESKTOP-49PGKM5\OneDrive - USN\Dokumenter\ada\Ada_Drivers_Library_j\boards\MicroBit_v2\obj\zfp_lib_Debug\libada_drivers_library.a(nrf-radio.o)
                0x000000000000b238                nrf__radio__microbit_radio_header_size
 *fill*         0x000000000000b239        0x3 
 .rodata.nrf__radio__radio_stateA
                0x000000000000b23c        0x9 C:\Users\aditi.DESKTOP-49PGKM5\OneDrive - USN\Dokumenter\ada\Ada_Drivers_Library_j\boards\MicroBit_v2\obj\zfp_lib_Debug\libada_drivers_library.a(nrf-radio.o)
                0x000000000000b23c                nrf__radio__radio_stateA
 *fill*         0x000000000000b245        0x3 
 .rodata.nrf__radio__radio_powerA
                0x000000000000b248        0x9 C:\Users\aditi.DESKTOP-49PGKM5\OneDrive - USN\Dokumenter\ada\Ada_Drivers_Library_j\boards\MicroBit_v2\obj\zfp_lib_Debug\libada_drivers_library.a(nrf-radio.o)
                0x000000000000b248                nrf__radio__radio_powerA
 *fill*         0x000000000000b251        0x3 
 .rodata        0x000000000000b254        0xc C:\Users\aditi.DESKTOP-49PGKM5\OneDrive - USN\Dokumenter\ada\Ada_Drivers_Library_j\boards\MicroBit_v2\obj\zfp_lib_Debug\libada_drivers_library.a(nrf-rtc.o)
 .rodata        0x000000000000b260      0x1cd C:\Users\aditi.DESKTOP-49PGKM5\OneDrive - USN\Dokumenter\ada\Ada_Drivers_Library_j\boards\MicroBit_v2\obj\zfp_lib_Debug\libada_drivers_library.a(nrf-spi_master.o)
 *fill*         0x000000000000b42d        0x3 
 .rodata.nrf__spi_master__spi_masterY
                0x000000000000b430        0x4 C:\Users\aditi.DESKTOP-49PGKM5\OneDrive - USN\Dokumenter\ada\Ada_Drivers_Library_j\boards\MicroBit_v2\obj\zfp_lib_Debug\libada_drivers_library.a(nrf-spi_master.o)
                0x000000000000b430                nrf__spi_master__spi_masterY
 .rodata.nrf__spi_master__spi_masterP
                0x000000000000b434        0x4 C:\Users\aditi.DESKTOP-49PGKM5\OneDrive - USN\Dokumenter\ada\Ada_Drivers_Library_j\boards\MicroBit_v2\obj\zfp_lib_Debug\libada_drivers_library.a(nrf-spi_master.o)
                0x000000000000b434                nrf__spi_master__spi_masterP
 .rodata.nrf__spi_master__spi_masterE26s
                0x000000000000b438       0x1a C:\Users\aditi.DESKTOP-49PGKM5\OneDrive - USN\Dokumenter\ada\Ada_Drivers_Library_j\boards\MicroBit_v2\obj\zfp_lib_Debug\libada_drivers_library.a(nrf-spi_master.o)
                0x000000000000b438                nrf__spi_master__spi_masterE26s
 *fill*         0x000000000000b452        0x2 
 .rodata.nrf__spi_master__spi_masterB30s
                0x000000000000b454       0x20 C:\Users\aditi.DESKTOP-49PGKM5\OneDrive - USN\Dokumenter\ada\Ada_Drivers_Library_j\boards\MicroBit_v2\obj\zfp_lib_Debug\libada_drivers_library.a(nrf-spi_master.o)
                0x000000000000b454                nrf__spi_master__spi_masterB30s
 .rodata.nrf__spi_master__spi_masterR28s___UNC
                0x000000000000b474       0x24 C:\Users\aditi.DESKTOP-49PGKM5\OneDrive - USN\Dokumenter\ada\Ada_Drivers_Library_j\boards\MicroBit_v2\obj\zfp_lib_Debug\libada_drivers_library.a(nrf-spi_master.o)
                0x000000000000b474                nrf__spi_master__spi_masterR28s___UNC
 .rodata.nrf__spi_master__spi_masterR28s
                0x000000000000b498        0x4 C:\Users\aditi.DESKTOP-49PGKM5\OneDrive - USN\Dokumenter\ada\Ada_Drivers_Library_j\boards\MicroBit_v2\obj\zfp_lib_Debug\libada_drivers_library.a(nrf-spi_master.o)
                0x000000000000b498                nrf__spi_master__spi_masterR28s
 .rodata.nrf__spi_master__spi_masterT
                0x000000000000b49c       0x38 C:\Users\aditi.DESKTOP-49PGKM5\OneDrive - USN\Dokumenter\ada\Ada_Drivers_Library_j\boards\MicroBit_v2\obj\zfp_lib_Debug\libada_drivers_library.a(nrf-spi_master.o)
                0x000000000000b49c                nrf__spi_master__spi_masterT
 .rodata        0x000000000000b4d4        0xe C:\Users\aditi.DESKTOP-49PGKM5\OneDrive - USN\Dokumenter\ada\Ada_Drivers_Library_j\boards\MicroBit_v2\obj\zfp_lib_Debug\libada_drivers_library.a(nrf-tasks.o)
 *fill*         0x000000000000b4e2        0x2 
 .rodata.nrf__tasks__power_constlat
                0x000000000000b4e4        0x4 C:\Users\aditi.DESKTOP-49PGKM5\OneDrive - USN\Dokumenter\ada\Ada_Drivers_Library_j\boards\MicroBit_v2\obj\zfp_lib_Debug\libada_drivers_library.a(nrf-tasks.o)
                0x000000000000b4e4                nrf__tasks__power_constlat
 .rodata.nrf__tasks__power_lowpwr
                0x000000000000b4e8        0x4 C:\Users\aditi.DESKTOP-49PGKM5\OneDrive - USN\Dokumenter\ada\Ada_Drivers_Library_j\boards\MicroBit_v2\obj\zfp_lib_Debug\libada_drivers_library.a(nrf-tasks.o)
                0x000000000000b4e8                nrf__tasks__power_lowpwr
 .rodata.nrf__tasks__clock_hfclkstart
                0x000000000000b4ec        0x4 C:\Users\aditi.DESKTOP-49PGKM5\OneDrive - USN\Dokumenter\ada\Ada_Drivers_Library_j\boards\MicroBit_v2\obj\zfp_lib_Debug\libada_drivers_library.a(nrf-tasks.o)
                0x000000000000b4ec                nrf__tasks__clock_hfclkstart
 .rodata.nrf__tasks__clock_hfclkstop
                0x000000000000b4f0        0x4 C:\Users\aditi.DESKTOP-49PGKM5\OneDrive - USN\Dokumenter\ada\Ada_Drivers_Library_j\boards\MicroBit_v2\obj\zfp_lib_Debug\libada_drivers_library.a(nrf-tasks.o)
                0x000000000000b4f0                nrf__tasks__clock_hfclkstop
 .rodata.nrf__tasks__clock_lfclkstart
                0x000000000000b4f4        0x4 C:\Users\aditi.DESKTOP-49PGKM5\OneDrive - USN\Dokumenter\ada\Ada_Drivers_Library_j\boards\MicroBit_v2\obj\zfp_lib_Debug\libada_drivers_library.a(nrf-tasks.o)
                0x000000000000b4f4                nrf__tasks__clock_lfclkstart
 .rodata.nrf__tasks__clock_lfclkstop
                0x000000000000b4f8        0x4 C:\Users\aditi.DESKTOP-49PGKM5\OneDrive - USN\Dokumenter\ada\Ada_Drivers_Library_j\boards\MicroBit_v2\obj\zfp_lib_Debug\libada_drivers_library.a(nrf-tasks.o)
                0x000000000000b4f8                nrf__tasks__clock_lfclkstop
 .rodata.nrf__tasks__clock_cal
                0x000000000000b4fc        0x4 C:\Users\aditi.DESKTOP-49PGKM5\OneDrive - USN\Dokumenter\ada\Ada_Drivers_Library_j\boards\MicroBit_v2\obj\zfp_lib_Debug\libada_drivers_library.a(nrf-tasks.o)
                0x000000000000b4fc                nrf__tasks__clock_cal
 .rodata.nrf__tasks__clock_ctstart
                0x000000000000b500        0x4 C:\Users\aditi.DESKTOP-49PGKM5\OneDrive - USN\Dokumenter\ada\Ada_Drivers_Library_j\boards\MicroBit_v2\obj\zfp_lib_Debug\libada_drivers_library.a(nrf-tasks.o)
                0x000000000000b500                nrf__tasks__clock_ctstart
 .rodata.nrf__tasks__clock_ctstop
                0x000000000000b504        0x4 C:\Users\aditi.DESKTOP-49PGKM5\OneDrive - USN\Dokumenter\ada\Ada_Drivers_Library_j\boards\MicroBit_v2\obj\zfp_lib_Debug\libada_drivers_library.a(nrf-tasks.o)
                0x000000000000b504                nrf__tasks__clock_ctstop
 .rodata.nrf__tasks__gpiote_out_0
                0x000000000000b508        0x4 C:\Users\aditi.DESKTOP-49PGKM5\OneDrive - USN\Dokumenter\ada\Ada_Drivers_Library_j\boards\MicroBit_v2\obj\zfp_lib_Debug\libada_drivers_library.a(nrf-tasks.o)
                0x000000000000b508                nrf__tasks__gpiote_out_0
 .rodata.nrf__tasks__gpiote_out_1
                0x000000000000b50c        0x4 C:\Users\aditi.DESKTOP-49PGKM5\OneDrive - USN\Dokumenter\ada\Ada_Drivers_Library_j\boards\MicroBit_v2\obj\zfp_lib_Debug\libada_drivers_library.a(nrf-tasks.o)
                0x000000000000b50c                nrf__tasks__gpiote_out_1
 .rodata.nrf__tasks__gpiote_out_2
                0x000000000000b510        0x4 C:\Users\aditi.DESKTOP-49PGKM5\OneDrive - USN\Dokumenter\ada\Ada_Drivers_Library_j\boards\MicroBit_v2\obj\zfp_lib_Debug\libada_drivers_library.a(nrf-tasks.o)
                0x000000000000b510                nrf__tasks__gpiote_out_2
 .rodata.nrf__tasks__gpiote_out_3
                0x000000000000b514        0x4 C:\Users\aditi.DESKTOP-49PGKM5\OneDrive - USN\Dokumenter\ada\Ada_Drivers_Library_j\boards\MicroBit_v2\obj\zfp_lib_Debug\libada_drivers_library.a(nrf-tasks.o)
                0x000000000000b514                nrf__tasks__gpiote_out_3
 .rodata.nrf__tasks__ppi_chg_0_en
                0x000000000000b518        0x4 C:\Users\aditi.DESKTOP-49PGKM5\OneDrive - USN\Dokumenter\ada\Ada_Drivers_Library_j\boards\MicroBit_v2\obj\zfp_lib_Debug\libada_drivers_library.a(nrf-tasks.o)
                0x000000000000b518                nrf__tasks__ppi_chg_0_en
 .rodata.nrf__tasks__ppi_chg_0_dis
                0x000000000000b51c        0x4 C:\Users\aditi.DESKTOP-49PGKM5\OneDrive - USN\Dokumenter\ada\Ada_Drivers_Library_j\boards\MicroBit_v2\obj\zfp_lib_Debug\libada_drivers_library.a(nrf-tasks.o)
                0x000000000000b51c                nrf__tasks__ppi_chg_0_dis
 .rodata.nrf__tasks__ppi_chg_1_en
                0x000000000000b520        0x4 C:\Users\aditi.DESKTOP-49PGKM5\OneDrive - USN\Dokumenter\ada\Ada_Drivers_Library_j\boards\MicroBit_v2\obj\zfp_lib_Debug\libada_drivers_library.a(nrf-tasks.o)
                0x000000000000b520                nrf__tasks__ppi_chg_1_en
 .rodata.nrf__tasks__ppi_chg_1_dis
                0x000000000000b524        0x4 C:\Users\aditi.DESKTOP-49PGKM5\OneDrive - USN\Dokumenter\ada\Ada_Drivers_Library_j\boards\MicroBit_v2\obj\zfp_lib_Debug\libada_drivers_library.a(nrf-tasks.o)
                0x000000000000b524                nrf__tasks__ppi_chg_1_dis
 .rodata.nrf__tasks__ppi_chg_2_en
                0x000000000000b528        0x4 C:\Users\aditi.DESKTOP-49PGKM5\OneDrive - USN\Dokumenter\ada\Ada_Drivers_Library_j\boards\MicroBit_v2\obj\zfp_lib_Debug\libada_drivers_library.a(nrf-tasks.o)
                0x000000000000b528                nrf__tasks__ppi_chg_2_en
 .rodata.nrf__tasks__ppi_chg_2_dis
                0x000000000000b52c        0x4 C:\Users\aditi.DESKTOP-49PGKM5\OneDrive - USN\Dokumenter\ada\Ada_Drivers_Library_j\boards\MicroBit_v2\obj\zfp_lib_Debug\libada_drivers_library.a(nrf-tasks.o)
                0x000000000000b52c                nrf__tasks__ppi_chg_2_dis
 .rodata.nrf__tasks__ppi_chg_3_en
                0x000000000000b530        0x4 C:\Users\aditi.DESKTOP-49PGKM5\OneDrive - USN\Dokumenter\ada\Ada_Drivers_Library_j\boards\MicroBit_v2\obj\zfp_lib_Debug\libada_drivers_library.a(nrf-tasks.o)
                0x000000000000b530                nrf__tasks__ppi_chg_3_en
 .rodata.nrf__tasks__ppi_chg_3_dis
                0x000000000000b534        0x4 C:\Users\aditi.DESKTOP-49PGKM5\OneDrive - USN\Dokumenter\ada\Ada_Drivers_Library_j\boards\MicroBit_v2\obj\zfp_lib_Debug\libada_drivers_library.a(nrf-tasks.o)
                0x000000000000b534                nrf__tasks__ppi_chg_3_dis
 .rodata.nrf__tasks__radio_txen
                0x000000000000b538        0x4 C:\Users\aditi.DESKTOP-49PGKM5\OneDrive - USN\Dokumenter\ada\Ada_Drivers_Library_j\boards\MicroBit_v2\obj\zfp_lib_Debug\libada_drivers_library.a(nrf-tasks.o)
                0x000000000000b538                nrf__tasks__radio_txen
 .rodata.nrf__tasks__radio_rxen
                0x000000000000b53c        0x4 C:\Users\aditi.DESKTOP-49PGKM5\OneDrive - USN\Dokumenter\ada\Ada_Drivers_Library_j\boards\MicroBit_v2\obj\zfp_lib_Debug\libada_drivers_library.a(nrf-tasks.o)
                0x000000000000b53c                nrf__tasks__radio_rxen
 .rodata.nrf__tasks__radio_start
                0x000000000000b540        0x4 C:\Users\aditi.DESKTOP-49PGKM5\OneDrive - USN\Dokumenter\ada\Ada_Drivers_Library_j\boards\MicroBit_v2\obj\zfp_lib_Debug\libada_drivers_library.a(nrf-tasks.o)
                0x000000000000b540                nrf__tasks__radio_start
 .rodata.nrf__tasks__radio_stop
                0x000000000000b544        0x4 C:\Users\aditi.DESKTOP-49PGKM5\OneDrive - USN\Dokumenter\ada\Ada_Drivers_Library_j\boards\MicroBit_v2\obj\zfp_lib_Debug\libada_drivers_library.a(nrf-tasks.o)
                0x000000000000b544                nrf__tasks__radio_stop
 .rodata.nrf__tasks__radio_disable
                0x000000000000b548        0x4 C:\Users\aditi.DESKTOP-49PGKM5\OneDrive - USN\Dokumenter\ada\Ada_Drivers_Library_j\boards\MicroBit_v2\obj\zfp_lib_Debug\libada_drivers_library.a(nrf-tasks.o)
                0x000000000000b548                nrf__tasks__radio_disable
 .rodata.nrf__tasks__radio_rssistart
                0x000000000000b54c        0x4 C:\Users\aditi.DESKTOP-49PGKM5\OneDrive - USN\Dokumenter\ada\Ada_Drivers_Library_j\boards\MicroBit_v2\obj\zfp_lib_Debug\libada_drivers_library.a(nrf-tasks.o)
                0x000000000000b54c                nrf__tasks__radio_rssistart
 .rodata.nrf__tasks__radio_rssistop
                0x000000000000b550        0x4 C:\Users\aditi.DESKTOP-49PGKM5\OneDrive - USN\Dokumenter\ada\Ada_Drivers_Library_j\boards\MicroBit_v2\obj\zfp_lib_Debug\libada_drivers_library.a(nrf-tasks.o)
                0x000000000000b550                nrf__tasks__radio_rssistop
 .rodata.nrf__tasks__radio_bcstart
                0x000000000000b554        0x4 C:\Users\aditi.DESKTOP-49PGKM5\OneDrive - USN\Dokumenter\ada\Ada_Drivers_Library_j\boards\MicroBit_v2\obj\zfp_lib_Debug\libada_drivers_library.a(nrf-tasks.o)
                0x000000000000b554                nrf__tasks__radio_bcstart
 .rodata.nrf__tasks__radio_bcstop
                0x000000000000b558        0x4 C:\Users\aditi.DESKTOP-49PGKM5\OneDrive - USN\Dokumenter\ada\Ada_Drivers_Library_j\boards\MicroBit_v2\obj\zfp_lib_Debug\libada_drivers_library.a(nrf-tasks.o)
                0x000000000000b558                nrf__tasks__radio_bcstop
 .rodata.nrf__tasks__timer_0_start
                0x000000000000b55c        0x4 C:\Users\aditi.DESKTOP-49PGKM5\OneDrive - USN\Dokumenter\ada\Ada_Drivers_Library_j\boards\MicroBit_v2\obj\zfp_lib_Debug\libada_drivers_library.a(nrf-tasks.o)
                0x000000000000b55c                nrf__tasks__timer_0_start
 .rodata.nrf__tasks__timer_0_stop
                0x000000000000b560        0x4 C:\Users\aditi.DESKTOP-49PGKM5\OneDrive - USN\Dokumenter\ada\Ada_Drivers_Library_j\boards\MicroBit_v2\obj\zfp_lib_Debug\libada_drivers_library.a(nrf-tasks.o)
                0x000000000000b560                nrf__tasks__timer_0_stop
 .rodata.nrf__tasks__timer_0_count
                0x000000000000b564        0x4 C:\Users\aditi.DESKTOP-49PGKM5\OneDrive - USN\Dokumenter\ada\Ada_Drivers_Library_j\boards\MicroBit_v2\obj\zfp_lib_Debug\libada_drivers_library.a(nrf-tasks.o)
                0x000000000000b564                nrf__tasks__timer_0_count
 .rodata.nrf__tasks__timer_0_clear
                0x000000000000b568        0x4 C:\Users\aditi.DESKTOP-49PGKM5\OneDrive - USN\Dokumenter\ada\Ada_Drivers_Library_j\boards\MicroBit_v2\obj\zfp_lib_Debug\libada_drivers_library.a(nrf-tasks.o)
                0x000000000000b568                nrf__tasks__timer_0_clear
 .rodata.nrf__tasks__timer_0_capture_0
                0x000000000000b56c        0x4 C:\Users\aditi.DESKTOP-49PGKM5\OneDrive - USN\Dokumenter\ada\Ada_Drivers_Library_j\boards\MicroBit_v2\obj\zfp_lib_Debug\libada_drivers_library.a(nrf-tasks.o)
                0x000000000000b56c                nrf__tasks__timer_0_capture_0
 .rodata.nrf__tasks__timer_0_capture_1
                0x000000000000b570        0x4 C:\Users\aditi.DESKTOP-49PGKM5\OneDrive - USN\Dokumenter\ada\Ada_Drivers_Library_j\boards\MicroBit_v2\obj\zfp_lib_Debug\libada_drivers_library.a(nrf-tasks.o)
                0x000000000000b570                nrf__tasks__timer_0_capture_1
 .rodata.nrf__tasks__timer_0_capture_2
                0x000000000000b574        0x4 C:\Users\aditi.DESKTOP-49PGKM5\OneDrive - USN\Dokumenter\ada\Ada_Drivers_Library_j\boards\MicroBit_v2\obj\zfp_lib_Debug\libada_drivers_library.a(nrf-tasks.o)
                0x000000000000b574                nrf__tasks__timer_0_capture_2
 .rodata.nrf__tasks__timer_0_capture_3
                0x000000000000b578        0x4 C:\Users\aditi.DESKTOP-49PGKM5\OneDrive - USN\Dokumenter\ada\Ada_Drivers_Library_j\boards\MicroBit_v2\obj\zfp_lib_Debug\libada_drivers_library.a(nrf-tasks.o)
                0x000000000000b578                nrf__tasks__timer_0_capture_3
 .rodata.nrf__tasks__timer_1_start
                0x000000000000b57c        0x4 C:\Users\aditi.DESKTOP-49PGKM5\OneDrive - USN\Dokumenter\ada\Ada_Drivers_Library_j\boards\MicroBit_v2\obj\zfp_lib_Debug\libada_drivers_library.a(nrf-tasks.o)
                0x000000000000b57c                nrf__tasks__timer_1_start
 .rodata.nrf__tasks__timer_1_stop
                0x000000000000b580        0x4 C:\Users\aditi.DESKTOP-49PGKM5\OneDrive - USN\Dokumenter\ada\Ada_Drivers_Library_j\boards\MicroBit_v2\obj\zfp_lib_Debug\libada_drivers_library.a(nrf-tasks.o)
                0x000000000000b580                nrf__tasks__timer_1_stop
 .rodata.nrf__tasks__timer_1_count
                0x000000000000b584        0x4 C:\Users\aditi.DESKTOP-49PGKM5\OneDrive - USN\Dokumenter\ada\Ada_Drivers_Library_j\boards\MicroBit_v2\obj\zfp_lib_Debug\libada_drivers_library.a(nrf-tasks.o)
                0x000000000000b584                nrf__tasks__timer_1_count
 .rodata.nrf__tasks__timer_1_clear
                0x000000000000b588        0x4 C:\Users\aditi.DESKTOP-49PGKM5\OneDrive - USN\Dokumenter\ada\Ada_Drivers_Library_j\boards\MicroBit_v2\obj\zfp_lib_Debug\libada_drivers_library.a(nrf-tasks.o)
                0x000000000000b588                nrf__tasks__timer_1_clear
 .rodata.nrf__tasks__timer_1_capture_0
                0x000000000000b58c        0x4 C:\Users\aditi.DESKTOP-49PGKM5\OneDrive - USN\Dokumenter\ada\Ada_Drivers_Library_j\boards\MicroBit_v2\obj\zfp_lib_Debug\libada_drivers_library.a(nrf-tasks.o)
                0x000000000000b58c                nrf__tasks__timer_1_capture_0
 .rodata.nrf__tasks__timer_1_capture_1
                0x000000000000b590        0x4 C:\Users\aditi.DESKTOP-49PGKM5\OneDrive - USN\Dokumenter\ada\Ada_Drivers_Library_j\boards\MicroBit_v2\obj\zfp_lib_Debug\libada_drivers_library.a(nrf-tasks.o)
                0x000000000000b590                nrf__tasks__timer_1_capture_1
 .rodata.nrf__tasks__timer_1_capture_2
                0x000000000000b594        0x4 C:\Users\aditi.DESKTOP-49PGKM5\OneDrive - USN\Dokumenter\ada\Ada_Drivers_Library_j\boards\MicroBit_v2\obj\zfp_lib_Debug\libada_drivers_library.a(nrf-tasks.o)
                0x000000000000b594                nrf__tasks__timer_1_capture_2
 .rodata.nrf__tasks__timer_1_capture_3
                0x000000000000b598        0x4 C:\Users\aditi.DESKTOP-49PGKM5\OneDrive - USN\Dokumenter\ada\Ada_Drivers_Library_j\boards\MicroBit_v2\obj\zfp_lib_Debug\libada_drivers_library.a(nrf-tasks.o)
                0x000000000000b598                nrf__tasks__timer_1_capture_3
 .rodata.nrf__tasks__timer_2_start
                0x000000000000b59c        0x4 C:\Users\aditi.DESKTOP-49PGKM5\OneDrive - USN\Dokumenter\ada\Ada_Drivers_Library_j\boards\MicroBit_v2\obj\zfp_lib_Debug\libada_drivers_library.a(nrf-tasks.o)
                0x000000000000b59c                nrf__tasks__timer_2_start
 .rodata.nrf__tasks__timer_2_stop
                0x000000000000b5a0        0x4 C:\Users\aditi.DESKTOP-49PGKM5\OneDrive - USN\Dokumenter\ada\Ada_Drivers_Library_j\boards\MicroBit_v2\obj\zfp_lib_Debug\libada_drivers_library.a(nrf-tasks.o)
                0x000000000000b5a0                nrf__tasks__timer_2_stop
 .rodata.nrf__tasks__timer_2_count
                0x000000000000b5a4        0x4 C:\Users\aditi.DESKTOP-49PGKM5\OneDrive - USN\Dokumenter\ada\Ada_Drivers_Library_j\boards\MicroBit_v2\obj\zfp_lib_Debug\libada_drivers_library.a(nrf-tasks.o)
                0x000000000000b5a4                nrf__tasks__timer_2_count
 .rodata.nrf__tasks__timer_2_clear
                0x000000000000b5a8        0x4 C:\Users\aditi.DESKTOP-49PGKM5\OneDrive - USN\Dokumenter\ada\Ada_Drivers_Library_j\boards\MicroBit_v2\obj\zfp_lib_Debug\libada_drivers_library.a(nrf-tasks.o)
                0x000000000000b5a8                nrf__tasks__timer_2_clear
 .rodata.nrf__tasks__timer_2_capture_0
                0x000000000000b5ac        0x4 C:\Users\aditi.DESKTOP-49PGKM5\OneDrive - USN\Dokumenter\ada\Ada_Drivers_Library_j\boards\MicroBit_v2\obj\zfp_lib_Debug\libada_drivers_library.a(nrf-tasks.o)
                0x000000000000b5ac                nrf__tasks__timer_2_capture_0
 .rodata.nrf__tasks__timer_2_capture_1
                0x000000000000b5b0        0x4 C:\Users\aditi.DESKTOP-49PGKM5\OneDrive - USN\Dokumenter\ada\Ada_Drivers_Library_j\boards\MicroBit_v2\obj\zfp_lib_Debug\libada_drivers_library.a(nrf-tasks.o)
                0x000000000000b5b0                nrf__tasks__timer_2_capture_1
 .rodata.nrf__tasks__timer_2_capture_2
                0x000000000000b5b4        0x4 C:\Users\aditi.DESKTOP-49PGKM5\OneDrive - USN\Dokumenter\ada\Ada_Drivers_Library_j\boards\MicroBit_v2\obj\zfp_lib_Debug\libada_drivers_library.a(nrf-tasks.o)
                0x000000000000b5b4                nrf__tasks__timer_2_capture_2
 .rodata.nrf__tasks__timer_2_capture_3
                0x000000000000b5b8        0x4 C:\Users\aditi.DESKTOP-49PGKM5\OneDrive - USN\Dokumenter\ada\Ada_Drivers_Library_j\boards\MicroBit_v2\obj\zfp_lib_Debug\libada_drivers_library.a(nrf-tasks.o)
                0x000000000000b5b8                nrf__tasks__timer_2_capture_3
 .rodata.nrf__tasks__rtc_0_start
                0x000000000000b5bc        0x4 C:\Users\aditi.DESKTOP-49PGKM5\OneDrive - USN\Dokumenter\ada\Ada_Drivers_Library_j\boards\MicroBit_v2\obj\zfp_lib_Debug\libada_drivers_library.a(nrf-tasks.o)
                0x000000000000b5bc                nrf__tasks__rtc_0_start
 .rodata.nrf__tasks__rtc_0_stop
                0x000000000000b5c0        0x4 C:\Users\aditi.DESKTOP-49PGKM5\OneDrive - USN\Dokumenter\ada\Ada_Drivers_Library_j\boards\MicroBit_v2\obj\zfp_lib_Debug\libada_drivers_library.a(nrf-tasks.o)
                0x000000000000b5c0                nrf__tasks__rtc_0_stop
 .rodata.nrf__tasks__rtc_0_clear
                0x000000000000b5c4        0x4 C:\Users\aditi.DESKTOP-49PGKM5\OneDrive - USN\Dokumenter\ada\Ada_Drivers_Library_j\boards\MicroBit_v2\obj\zfp_lib_Debug\libada_drivers_library.a(nrf-tasks.o)
                0x000000000000b5c4                nrf__tasks__rtc_0_clear
 .rodata.nrf__tasks__rtc_0_trigovrflw
                0x000000000000b5c8        0x4 C:\Users\aditi.DESKTOP-49PGKM5\OneDrive - USN\Dokumenter\ada\Ada_Drivers_Library_j\boards\MicroBit_v2\obj\zfp_lib_Debug\libada_drivers_library.a(nrf-tasks.o)
                0x000000000000b5c8                nrf__tasks__rtc_0_trigovrflw
 .rodata.nrf__tasks__rtc_1_start
                0x000000000000b5cc        0x4 C:\Users\aditi.DESKTOP-49PGKM5\OneDrive - USN\Dokumenter\ada\Ada_Drivers_Library_j\boards\MicroBit_v2\obj\zfp_lib_Debug\libada_drivers_library.a(nrf-tasks.o)
                0x000000000000b5cc                nrf__tasks__rtc_1_start
 .rodata.nrf__tasks__rtc_1_stop
                0x000000000000b5d0        0x4 C:\Users\aditi.DESKTOP-49PGKM5\OneDrive - USN\Dokumenter\ada\Ada_Drivers_Library_j\boards\MicroBit_v2\obj\zfp_lib_Debug\libada_drivers_library.a(nrf-tasks.o)
                0x000000000000b5d0                nrf__tasks__rtc_1_stop
 .rodata.nrf__tasks__rtc_1_clear
                0x000000000000b5d4        0x4 C:\Users\aditi.DESKTOP-49PGKM5\OneDrive - USN\Dokumenter\ada\Ada_Drivers_Library_j\boards\MicroBit_v2\obj\zfp_lib_Debug\libada_drivers_library.a(nrf-tasks.o)
                0x000000000000b5d4                nrf__tasks__rtc_1_clear
 .rodata.nrf__tasks__rtc_1_trigovrflw
                0x000000000000b5d8        0x4 C:\Users\aditi.DESKTOP-49PGKM5\OneDrive - USN\Dokumenter\ada\Ada_Drivers_Library_j\boards\MicroBit_v2\obj\zfp_lib_Debug\libada_drivers_library.a(nrf-tasks.o)
                0x000000000000b5d8                nrf__tasks__rtc_1_trigovrflw
 .rodata.nrf__tasks__watchdog_start
                0x000000000000b5dc        0x4 C:\Users\aditi.DESKTOP-49PGKM5\OneDrive - USN\Dokumenter\ada\Ada_Drivers_Library_j\boards\MicroBit_v2\obj\zfp_lib_Debug\libada_drivers_library.a(nrf-tasks.o)
                0x000000000000b5dc                nrf__tasks__watchdog_start
 .rodata.nrf__tasks__rng_start
                0x000000000000b5e0        0x4 C:\Users\aditi.DESKTOP-49PGKM5\OneDrive - USN\Dokumenter\ada\Ada_Drivers_Library_j\boards\MicroBit_v2\obj\zfp_lib_Debug\libada_drivers_library.a(nrf-tasks.o)
                0x000000000000b5e0                nrf__tasks__rng_start
 .rodata.nrf__tasks__rng_stop
                0x000000000000b5e4        0x4 C:\Users\aditi.DESKTOP-49PGKM5\OneDrive - USN\Dokumenter\ada\Ada_Drivers_Library_j\boards\MicroBit_v2\obj\zfp_lib_Debug\libada_drivers_library.a(nrf-tasks.o)
                0x000000000000b5e4                nrf__tasks__rng_stop
 .rodata.nrf__tasks__temperature_start
                0x000000000000b5e8        0x4 C:\Users\aditi.DESKTOP-49PGKM5\OneDrive - USN\Dokumenter\ada\Ada_Drivers_Library_j\boards\MicroBit_v2\obj\zfp_lib_Debug\libada_drivers_library.a(nrf-tasks.o)
                0x000000000000b5e8                nrf__tasks__temperature_start
 .rodata.nrf__tasks__temperature_stop
                0x000000000000b5ec        0x4 C:\Users\aditi.DESKTOP-49PGKM5\OneDrive - USN\Dokumenter\ada\Ada_Drivers_Library_j\boards\MicroBit_v2\obj\zfp_lib_Debug\libada_drivers_library.a(nrf-tasks.o)
                0x000000000000b5ec                nrf__tasks__temperature_stop
 .rodata.nrf__tasks__ecb_start
                0x000000000000b5f0        0x4 C:\Users\aditi.DESKTOP-49PGKM5\OneDrive - USN\Dokumenter\ada\Ada_Drivers_Library_j\boards\MicroBit_v2\obj\zfp_lib_Debug\libada_drivers_library.a(nrf-tasks.o)
                0x000000000000b5f0                nrf__tasks__ecb_start
 .rodata.nrf__tasks__ecb_stop
                0x000000000000b5f4        0x4 C:\Users\aditi.DESKTOP-49PGKM5\OneDrive - USN\Dokumenter\ada\Ada_Drivers_Library_j\boards\MicroBit_v2\obj\zfp_lib_Debug\libada_drivers_library.a(nrf-tasks.o)
                0x000000000000b5f4                nrf__tasks__ecb_stop
 .rodata.nrf__tasks__ccm_ksgen
                0x000000000000b5f8        0x4 C:\Users\aditi.DESKTOP-49PGKM5\OneDrive - USN\Dokumenter\ada\Ada_Drivers_Library_j\boards\MicroBit_v2\obj\zfp_lib_Debug\libada_drivers_library.a(nrf-tasks.o)
                0x000000000000b5f8                nrf__tasks__ccm_ksgen
 .rodata.nrf__tasks__ccm_crypt
                0x000000000000b5fc        0x4 C:\Users\aditi.DESKTOP-49PGKM5\OneDrive - USN\Dokumenter\ada\Ada_Drivers_Library_j\boards\MicroBit_v2\obj\zfp_lib_Debug\libada_drivers_library.a(nrf-tasks.o)
                0x000000000000b5fc                nrf__tasks__ccm_crypt
 .rodata.nrf__tasks__ccm_stop
                0x000000000000b600        0x4 C:\Users\aditi.DESKTOP-49PGKM5\OneDrive - USN\Dokumenter\ada\Ada_Drivers_Library_j\boards\MicroBit_v2\obj\zfp_lib_Debug\libada_drivers_library.a(nrf-tasks.o)
                0x000000000000b600                nrf__tasks__ccm_stop
 .rodata.nrf__tasks__aar_start
                0x000000000000b604        0x4 C:\Users\aditi.DESKTOP-49PGKM5\OneDrive - USN\Dokumenter\ada\Ada_Drivers_Library_j\boards\MicroBit_v2\obj\zfp_lib_Debug\libada_drivers_library.a(nrf-tasks.o)
                0x000000000000b604                nrf__tasks__aar_start
 .rodata.nrf__tasks__aar_stop
                0x000000000000b608        0x4 C:\Users\aditi.DESKTOP-49PGKM5\OneDrive - USN\Dokumenter\ada\Ada_Drivers_Library_j\boards\MicroBit_v2\obj\zfp_lib_Debug\libada_drivers_library.a(nrf-tasks.o)
                0x000000000000b608                nrf__tasks__aar_stop
 .rodata.nrf__tasks__twi_0_startrx
                0x000000000000b60c        0x4 C:\Users\aditi.DESKTOP-49PGKM5\OneDrive - USN\Dokumenter\ada\Ada_Drivers_Library_j\boards\MicroBit_v2\obj\zfp_lib_Debug\libada_drivers_library.a(nrf-tasks.o)
                0x000000000000b60c                nrf__tasks__twi_0_startrx
 .rodata.nrf__tasks__twi_0_starttx
                0x000000000000b610        0x4 C:\Users\aditi.DESKTOP-49PGKM5\OneDrive - USN\Dokumenter\ada\Ada_Drivers_Library_j\boards\MicroBit_v2\obj\zfp_lib_Debug\libada_drivers_library.a(nrf-tasks.o)
                0x000000000000b610                nrf__tasks__twi_0_starttx
 .rodata.nrf__tasks__twi_0_stop
                0x000000000000b614        0x4 C:\Users\aditi.DESKTOP-49PGKM5\OneDrive - USN\Dokumenter\ada\Ada_Drivers_Library_j\boards\MicroBit_v2\obj\zfp_lib_Debug\libada_drivers_library.a(nrf-tasks.o)
                0x000000000000b614                nrf__tasks__twi_0_stop
 .rodata.nrf__tasks__twi_0_suspend
                0x000000000000b618        0x4 C:\Users\aditi.DESKTOP-49PGKM5\OneDrive - USN\Dokumenter\ada\Ada_Drivers_Library_j\boards\MicroBit_v2\obj\zfp_lib_Debug\libada_drivers_library.a(nrf-tasks.o)
                0x000000000000b618                nrf__tasks__twi_0_suspend
 .rodata.nrf__tasks__twi_0_resume
                0x000000000000b61c        0x4 C:\Users\aditi.DESKTOP-49PGKM5\OneDrive - USN\Dokumenter\ada\Ada_Drivers_Library_j\boards\MicroBit_v2\obj\zfp_lib_Debug\libada_drivers_library.a(nrf-tasks.o)
                0x000000000000b61c                nrf__tasks__twi_0_resume
 .rodata.nrf__tasks__twi_1_startrx
                0x000000000000b620        0x4 C:\Users\aditi.DESKTOP-49PGKM5\OneDrive - USN\Dokumenter\ada\Ada_Drivers_Library_j\boards\MicroBit_v2\obj\zfp_lib_Debug\libada_drivers_library.a(nrf-tasks.o)
                0x000000000000b620                nrf__tasks__twi_1_startrx
 .rodata.nrf__tasks__twi_1_starttx
                0x000000000000b624        0x4 C:\Users\aditi.DESKTOP-49PGKM5\OneDrive - USN\Dokumenter\ada\Ada_Drivers_Library_j\boards\MicroBit_v2\obj\zfp_lib_Debug\libada_drivers_library.a(nrf-tasks.o)
                0x000000000000b624                nrf__tasks__twi_1_starttx
 .rodata.nrf__tasks__twi_1_stop
                0x000000000000b628        0x4 C:\Users\aditi.DESKTOP-49PGKM5\OneDrive - USN\Dokumenter\ada\Ada_Drivers_Library_j\boards\MicroBit_v2\obj\zfp_lib_Debug\libada_drivers_library.a(nrf-tasks.o)
                0x000000000000b628                nrf__tasks__twi_1_stop
 .rodata.nrf__tasks__twi_1_suspend
                0x000000000000b62c        0x4 C:\Users\aditi.DESKTOP-49PGKM5\OneDrive - USN\Dokumenter\ada\Ada_Drivers_Library_j\boards\MicroBit_v2\obj\zfp_lib_Debug\libada_drivers_library.a(nrf-tasks.o)
                0x000000000000b62c                nrf__tasks__twi_1_suspend
 .rodata.nrf__tasks__twi_1_resume
                0x000000000000b630        0x4 C:\Users\aditi.DESKTOP-49PGKM5\OneDrive - USN\Dokumenter\ada\Ada_Drivers_Library_j\boards\MicroBit_v2\obj\zfp_lib_Debug\libada_drivers_library.a(nrf-tasks.o)
                0x000000000000b630                nrf__tasks__twi_1_resume
 .rodata.nrf__tasks__uart_startrx
                0x000000000000b634        0x4 C:\Users\aditi.DESKTOP-49PGKM5\OneDrive - USN\Dokumenter\ada\Ada_Drivers_Library_j\boards\MicroBit_v2\obj\zfp_lib_Debug\libada_drivers_library.a(nrf-tasks.o)
                0x000000000000b634                nrf__tasks__uart_startrx
 .rodata.nrf__tasks__uart_stoprx
                0x000000000000b638        0x4 C:\Users\aditi.DESKTOP-49PGKM5\OneDrive - USN\Dokumenter\ada\Ada_Drivers_Library_j\boards\MicroBit_v2\obj\zfp_lib_Debug\libada_drivers_library.a(nrf-tasks.o)
                0x000000000000b638                nrf__tasks__uart_stoprx
 .rodata.nrf__tasks__uart_starttx
                0x000000000000b63c        0x4 C:\Users\aditi.DESKTOP-49PGKM5\OneDrive - USN\Dokumenter\ada\Ada_Drivers_Library_j\boards\MicroBit_v2\obj\zfp_lib_Debug\libada_drivers_library.a(nrf-tasks.o)
                0x000000000000b63c                nrf__tasks__uart_starttx
 .rodata.nrf__tasks__uart_stoptx
                0x000000000000b640        0x4 C:\Users\aditi.DESKTOP-49PGKM5\OneDrive - USN\Dokumenter\ada\Ada_Drivers_Library_j\boards\MicroBit_v2\obj\zfp_lib_Debug\libada_drivers_library.a(nrf-tasks.o)
                0x000000000000b640                nrf__tasks__uart_stoptx
 .rodata.nrf__tasks__qdec_start
                0x000000000000b644        0x4 C:\Users\aditi.DESKTOP-49PGKM5\OneDrive - USN\Dokumenter\ada\Ada_Drivers_Library_j\boards\MicroBit_v2\obj\zfp_lib_Debug\libada_drivers_library.a(nrf-tasks.o)
                0x000000000000b644                nrf__tasks__qdec_start
 .rodata.nrf__tasks__qdec_stop
                0x000000000000b648        0x4 C:\Users\aditi.DESKTOP-49PGKM5\OneDrive - USN\Dokumenter\ada\Ada_Drivers_Library_j\boards\MicroBit_v2\obj\zfp_lib_Debug\libada_drivers_library.a(nrf-tasks.o)
                0x000000000000b648                nrf__tasks__qdec_stop
 .rodata.nrf__tasks__qdec_readclracc
                0x000000000000b64c        0x4 C:\Users\aditi.DESKTOP-49PGKM5\OneDrive - USN\Dokumenter\ada\Ada_Drivers_Library_j\boards\MicroBit_v2\obj\zfp_lib_Debug\libada_drivers_library.a(nrf-tasks.o)
                0x000000000000b64c                nrf__tasks__qdec_readclracc
 .rodata.nrf__tasks__adc_start
                0x000000000000b650        0x4 C:\Users\aditi.DESKTOP-49PGKM5\OneDrive - USN\Dokumenter\ada\Ada_Drivers_Library_j\boards\MicroBit_v2\obj\zfp_lib_Debug\libada_drivers_library.a(nrf-tasks.o)
                0x000000000000b650                nrf__tasks__adc_start
 .rodata.nrf__tasks__adc_stop
                0x000000000000b654        0x4 C:\Users\aditi.DESKTOP-49PGKM5\OneDrive - USN\Dokumenter\ada\Ada_Drivers_Library_j\boards\MicroBit_v2\obj\zfp_lib_Debug\libada_drivers_library.a(nrf-tasks.o)
                0x000000000000b654                nrf__tasks__adc_stop
 .rodata.nrf__tasks__adc_sample
                0x000000000000b658        0x4 C:\Users\aditi.DESKTOP-49PGKM5\OneDrive - USN\Dokumenter\ada\Ada_Drivers_Library_j\boards\MicroBit_v2\obj\zfp_lib_Debug\libada_drivers_library.a(nrf-tasks.o)
                0x000000000000b658                nrf__tasks__adc_sample
 .rodata.nrf__tasks__pwm_stop
                0x000000000000b65c        0x4 C:\Users\aditi.DESKTOP-49PGKM5\OneDrive - USN\Dokumenter\ada\Ada_Drivers_Library_j\boards\MicroBit_v2\obj\zfp_lib_Debug\libada_drivers_library.a(nrf-tasks.o)
                0x000000000000b65c                nrf__tasks__pwm_stop
 .rodata.nrf__tasks__pwm_seqstart_0
                0x000000000000b660        0x4 C:\Users\aditi.DESKTOP-49PGKM5\OneDrive - USN\Dokumenter\ada\Ada_Drivers_Library_j\boards\MicroBit_v2\obj\zfp_lib_Debug\libada_drivers_library.a(nrf-tasks.o)
                0x000000000000b660                nrf__tasks__pwm_seqstart_0
 .rodata        0x000000000000b664       0x54 C:\Users\aditi.DESKTOP-49PGKM5\OneDrive - USN\Dokumenter\ada\Ada_Drivers_Library_j\boards\MicroBit_v2\obj\zfp_lib_Debug\libada_drivers_library.a(nrf-timers.o)
 .rodata.nrf__timers__timerY
                0x000000000000b6b8        0x4 C:\Users\aditi.DESKTOP-49PGKM5\OneDrive - USN\Dokumenter\ada\Ada_Drivers_Library_j\boards\MicroBit_v2\obj\zfp_lib_Debug\libada_drivers_library.a(nrf-timers.o)
                0x000000000000b6b8                nrf__timers__timerY
 .rodata.nrf__timers__timerP
                0x000000000000b6bc        0x4 C:\Users\aditi.DESKTOP-49PGKM5\OneDrive - USN\Dokumenter\ada\Ada_Drivers_Library_j\boards\MicroBit_v2\obj\zfp_lib_Debug\libada_drivers_library.a(nrf-timers.o)
                0x000000000000b6bc                nrf__timers__timerP
 .rodata.nrf__timers__timerE19s
                0x000000000000b6c0       0x11 C:\Users\aditi.DESKTOP-49PGKM5\OneDrive - USN\Dokumenter\ada\Ada_Drivers_Library_j\boards\MicroBit_v2\obj\zfp_lib_Debug\libada_drivers_library.a(nrf-timers.o)
                0x000000000000b6c0                nrf__timers__timerE19s
 *fill*         0x000000000000b6d1        0x3 
 .rodata.nrf__timers__timerB23s
                0x000000000000b6d4       0x1c C:\Users\aditi.DESKTOP-49PGKM5\OneDrive - USN\Dokumenter\ada\Ada_Drivers_Library_j\boards\MicroBit_v2\obj\zfp_lib_Debug\libada_drivers_library.a(nrf-timers.o)
                0x000000000000b6d4                nrf__timers__timerB23s
 .rodata.nrf__timers__timerR21s___UNC
                0x000000000000b6f0       0x24 C:\Users\aditi.DESKTOP-49PGKM5\OneDrive - USN\Dokumenter\ada\Ada_Drivers_Library_j\boards\MicroBit_v2\obj\zfp_lib_Debug\libada_drivers_library.a(nrf-timers.o)
                0x000000000000b6f0                nrf__timers__timerR21s___UNC
 .rodata.nrf__timers__timerR21s
                0x000000000000b714        0x4 C:\Users\aditi.DESKTOP-49PGKM5\OneDrive - USN\Dokumenter\ada\Ada_Drivers_Library_j\boards\MicroBit_v2\obj\zfp_lib_Debug\libada_drivers_library.a(nrf-timers.o)
                0x000000000000b714                nrf__timers__timerR21s
 .rodata.nrf__timers__timerT
                0x000000000000b718       0x5c C:\Users\aditi.DESKTOP-49PGKM5\OneDrive - USN\Dokumenter\ada\Ada_Drivers_Library_j\boards\MicroBit_v2\obj\zfp_lib_Debug\libada_drivers_library.a(nrf-timers.o)
                0x000000000000b718                nrf__timers__timerT
 .rodata        0x000000000000b774      0x103 C:\Users\aditi.DESKTOP-49PGKM5\OneDrive - USN\Dokumenter\ada\Ada_Drivers_Library_j\boards\MicroBit_v2\obj\zfp_lib_Debug\libada_drivers_library.a(nrf-twi.o)
 *fill*         0x000000000000b877        0x1 
 .rodata.nrf__twi__twi_masterY
                0x000000000000b878        0x4 C:\Users\aditi.DESKTOP-49PGKM5\OneDrive - USN\Dokumenter\ada\Ada_Drivers_Library_j\boards\MicroBit_v2\obj\zfp_lib_Debug\libada_drivers_library.a(nrf-twi.o)
                0x000000000000b878                nrf__twi__twi_masterY
 .rodata.nrf__twi__twi_masterP
                0x000000000000b87c        0x4 C:\Users\aditi.DESKTOP-49PGKM5\OneDrive - USN\Dokumenter\ada\Ada_Drivers_Library_j\boards\MicroBit_v2\obj\zfp_lib_Debug\libada_drivers_library.a(nrf-twi.o)
                0x000000000000b87c                nrf__twi__twi_masterP
 .rodata.nrf__twi__twi_masterE23s
                0x000000000000b880       0x13 C:\Users\aditi.DESKTOP-49PGKM5\OneDrive - USN\Dokumenter\ada\Ada_Drivers_Library_j\boards\MicroBit_v2\obj\zfp_lib_Debug\libada_drivers_library.a(nrf-twi.o)
                0x000000000000b880                nrf__twi__twi_masterE23s
 *fill*         0x000000000000b893        0x1 
 .rodata.nrf__twi__twi_masterB27s
                0x000000000000b894       0x20 C:\Users\aditi.DESKTOP-49PGKM5\OneDrive - USN\Dokumenter\ada\Ada_Drivers_Library_j\boards\MicroBit_v2\obj\zfp_lib_Debug\libada_drivers_library.a(nrf-twi.o)
                0x000000000000b894                nrf__twi__twi_masterB27s
 .rodata.nrf__twi__twi_masterR25s___UNC
                0x000000000000b8b4       0x24 C:\Users\aditi.DESKTOP-49PGKM5\OneDrive - USN\Dokumenter\ada\Ada_Drivers_Library_j\boards\MicroBit_v2\obj\zfp_lib_Debug\libada_drivers_library.a(nrf-twi.o)
                0x000000000000b8b4                nrf__twi__twi_masterR25s___UNC
 .rodata.nrf__twi__twi_masterR25s
                0x000000000000b8d8        0x4 C:\Users\aditi.DESKTOP-49PGKM5\OneDrive - USN\Dokumenter\ada\Ada_Drivers_Library_j\boards\MicroBit_v2\obj\zfp_lib_Debug\libada_drivers_library.a(nrf-twi.o)
                0x000000000000b8d8                nrf__twi__twi_masterR25s
 .rodata.nrf__twi__twi_masterT
                0x000000000000b8dc       0x38 C:\Users\aditi.DESKTOP-49PGKM5\OneDrive - USN\Dokumenter\ada\Ada_Drivers_Library_j\boards\MicroBit_v2\obj\zfp_lib_Debug\libada_drivers_library.a(nrf-twi.o)
                0x000000000000b8dc                nrf__twi__twi_masterT
 .rodata        0x000000000000b914       0xf6 C:\Users\aditi.DESKTOP-49PGKM5\OneDrive - USN\Dokumenter\ada\Ada_Drivers_Library_j\boards\MicroBit_v2\obj\zfp_lib_Debug\libada_drivers_library.a(nrf-uart.o)
 *fill*         0x000000000000ba0a        0x2 
 .rodata.nrf__uart__uart_deviceY
                0x000000000000ba0c        0x4 C:\Users\aditi.DESKTOP-49PGKM5\OneDrive - USN\Dokumenter\ada\Ada_Drivers_Library_j\boards\MicroBit_v2\obj\zfp_lib_Debug\libada_drivers_library.a(nrf-uart.o)
                0x000000000000ba0c                nrf__uart__uart_deviceY
 .rodata.nrf__uart__uart_deviceP
                0x000000000000ba10        0x4 C:\Users\aditi.DESKTOP-49PGKM5\OneDrive - USN\Dokumenter\ada\Ada_Drivers_Library_j\boards\MicroBit_v2\obj\zfp_lib_Debug\libada_drivers_library.a(nrf-uart.o)
                0x000000000000ba10                nrf__uart__uart_deviceP
 .rodata.nrf__uart__baud_rateA
                0x000000000000ba14       0x40 C:\Users\aditi.DESKTOP-49PGKM5\OneDrive - USN\Dokumenter\ada\Ada_Drivers_Library_j\boards\MicroBit_v2\obj\zfp_lib_Debug\libada_drivers_library.a(nrf-uart.o)
                0x000000000000ba14                nrf__uart__baud_rateA
 .rodata.nrf__uart__uart_deviceE45s
                0x000000000000ba54       0x15 C:\Users\aditi.DESKTOP-49PGKM5\OneDrive - USN\Dokumenter\ada\Ada_Drivers_Library_j\boards\MicroBit_v2\obj\zfp_lib_Debug\libada_drivers_library.a(nrf-uart.o)
                0x000000000000ba54                nrf__uart__uart_deviceE45s
 *fill*         0x000000000000ba69        0x3 
 .rodata.nrf__uart__uart_deviceB49s
                0x000000000000ba6c       0x20 C:\Users\aditi.DESKTOP-49PGKM5\OneDrive - USN\Dokumenter\ada\Ada_Drivers_Library_j\boards\MicroBit_v2\obj\zfp_lib_Debug\libada_drivers_library.a(nrf-uart.o)
                0x000000000000ba6c                nrf__uart__uart_deviceB49s
 .rodata.nrf__uart__uart_deviceR47s___UNC
                0x000000000000ba8c       0x24 C:\Users\aditi.DESKTOP-49PGKM5\OneDrive - USN\Dokumenter\ada\Ada_Drivers_Library_j\boards\MicroBit_v2\obj\zfp_lib_Debug\libada_drivers_library.a(nrf-uart.o)
                0x000000000000ba8c                nrf__uart__uart_deviceR47s___UNC
 .rodata.nrf__uart__uart_deviceR47s
                0x000000000000bab0        0x4 C:\Users\aditi.DESKTOP-49PGKM5\OneDrive - USN\Dokumenter\ada\Ada_Drivers_Library_j\boards\MicroBit_v2\obj\zfp_lib_Debug\libada_drivers_library.a(nrf-uart.o)
                0x000000000000bab0                nrf__uart__uart_deviceR47s
 .rodata.nrf__uart__uart_deviceT
                0x000000000000bab4       0x38 C:\Users\aditi.DESKTOP-49PGKM5\OneDrive - USN\Dokumenter\ada\Ada_Drivers_Library_j\boards\MicroBit_v2\obj\zfp_lib_Debug\libada_drivers_library.a(nrf-uart.o)
                0x000000000000bab4                nrf__uart__uart_deviceT
 .rodata        0x000000000000baec       0x1c C:\Users\aditi.DESKTOP-49PGKM5\OneDrive - USN\Dokumenter\ada\Ada_Drivers_Library_j\boards\MicroBit_v2\obj\zfp_lib_Debug\libada_drivers_library.a(nrf_svd-gpio.o)
 .rodata.nrf_svd__gpio__pin_cnf_pull_fieldA
                0x000000000000bb08        0x4 C:\Users\aditi.DESKTOP-49PGKM5\OneDrive - USN\Dokumenter\ada\Ada_Drivers_Library_j\boards\MicroBit_v2\obj\zfp_lib_Debug\libada_drivers_library.a(nrf_svd-gpio.o)
                0x000000000000bb08                nrf_svd__gpio__pin_cnf_pull_fieldA
 .rodata.nrf_svd__gpio__pin_cnf_sense_fieldA
                0x000000000000bb0c        0x4 C:\Users\aditi.DESKTOP-49PGKM5\OneDrive - USN\Dokumenter\ada\Ada_Drivers_Library_j\boards\MicroBit_v2\obj\zfp_lib_Debug\libada_drivers_library.a(nrf_svd-gpio.o)
                0x000000000000bb0c                nrf_svd__gpio__pin_cnf_sense_fieldA
 .rodata.nrf_svd__gpio__gpio_periph
                0x000000000000bb10        0x4 C:\Users\aditi.DESKTOP-49PGKM5\OneDrive - USN\Dokumenter\ada\Ada_Drivers_Library_j\boards\MicroBit_v2\obj\zfp_lib_Debug\libada_drivers_library.a(nrf_svd-gpio.o)
                0x000000000000bb10                nrf_svd__gpio__gpio_periph
 .rodata.nrf_svd__gpio__gpio_periph1
                0x000000000000bb14        0x4 C:\Users\aditi.DESKTOP-49PGKM5\OneDrive - USN\Dokumenter\ada\Ada_Drivers_Library_j\boards\MicroBit_v2\obj\zfp_lib_Debug\libada_drivers_library.a(nrf_svd-gpio.o)
                0x000000000000bb14                nrf_svd__gpio__gpio_periph1
 .rodata        0x000000000000bb18       0x1c C:\Users\aditi.DESKTOP-49PGKM5\OneDrive - USN\Dokumenter\ada\Ada_Drivers_Library_j\boards\MicroBit_v2\obj\zfp_lib_Debug\libada_drivers_library.a(nrf_svd-radio.o)
 .rodata.nrf_svd__radio__txpower_txpower_fieldA
                0x000000000000bb34        0xa C:\Users\aditi.DESKTOP-49PGKM5\OneDrive - USN\Dokumenter\ada\Ada_Drivers_Library_j\boards\MicroBit_v2\obj\zfp_lib_Debug\libada_drivers_library.a(nrf_svd-radio.o)
                0x000000000000bb34                nrf_svd__radio__txpower_txpower_fieldA
 *fill*         0x000000000000bb3e        0x2 
 .rodata.nrf_svd__radio__state_state_fieldA
                0x000000000000bb40        0x9 C:\Users\aditi.DESKTOP-49PGKM5\OneDrive - USN\Dokumenter\ada\Ada_Drivers_Library_j\boards\MicroBit_v2\obj\zfp_lib_Debug\libada_drivers_library.a(nrf_svd-radio.o)
                0x000000000000bb40                nrf_svd__radio__state_state_fieldA
 *fill*         0x000000000000bb49        0x3 
 .rodata.nrf_svd__radio__radio_periph
                0x000000000000bb4c        0x4 C:\Users\aditi.DESKTOP-49PGKM5\OneDrive - USN\Dokumenter\ada\Ada_Drivers_Library_j\boards\MicroBit_v2\obj\zfp_lib_Debug\libada_drivers_library.a(nrf_svd-radio.o)
                0x000000000000bb4c                nrf_svd__radio__radio_periph
 .rodata.nrf_svd__twi__enable_enable_fieldA
                0x000000000000bb50        0x2 C:\Users\aditi.DESKTOP-49PGKM5\OneDrive - USN\Dokumenter\ada\Ada_Drivers_Library_j\boards\MicroBit_v2\obj\zfp_lib_Debug\libada_drivers_library.a(nrf_svd-twi.o)
                0x000000000000bb50                nrf_svd__twi__enable_enable_fieldA
 *fill*         0x000000000000bb52        0x2 
 .rodata.nrf_svd__twi__twi0_periph
                0x000000000000bb54        0x4 C:\Users\aditi.DESKTOP-49PGKM5\OneDrive - USN\Dokumenter\ada\Ada_Drivers_Library_j\boards\MicroBit_v2\obj\zfp_lib_Debug\libada_drivers_library.a(nrf_svd-twi.o)
                0x000000000000bb54                nrf_svd__twi__twi0_periph
 .rodata.nrf_svd__twi__twi1_periph
                0x000000000000bb58        0x4 C:\Users\aditi.DESKTOP-49PGKM5\OneDrive - USN\Dokumenter\ada\Ada_Drivers_Library_j\boards\MicroBit_v2\obj\zfp_lib_Debug\libada_drivers_library.a(nrf_svd-twi.o)
                0x000000000000bb58                nrf_svd__twi__twi1_periph
 .rodata.hal__gpio__gpio_pointP
                0x000000000000bb5c        0x4 C:\Users\aditi.DESKTOP-49PGKM5\OneDrive - USN\Dokumenter\ada\Ada_Drivers_Library_j\boards\MicroBit_v2\obj\zfp_lib_Debug\libada_drivers_library.a(hal-gpio.o)
                0x000000000000bb5c                hal__gpio__gpio_pointP
 .rodata.hal__gpio__gpio_pointE5s
                0x000000000000bb60       0x14 C:\Users\aditi.DESKTOP-49PGKM5\OneDrive - USN\Dokumenter\ada\Ada_Drivers_Library_j\boards\MicroBit_v2\obj\zfp_lib_Debug\libada_drivers_library.a(hal-gpio.o)
                0x000000000000bb60                hal__gpio__gpio_pointE5s
 .rodata.hal__gpio__gpio_pointB9s
                0x000000000000bb74       0x1c C:\Users\aditi.DESKTOP-49PGKM5\OneDrive - USN\Dokumenter\ada\Ada_Drivers_Library_j\boards\MicroBit_v2\obj\zfp_lib_Debug\libada_drivers_library.a(hal-gpio.o)
                0x000000000000bb74                hal__gpio__gpio_pointB9s
 .rodata.hal__gpio__gpio_pointT
                0x000000000000bb90        0x8 C:\Users\aditi.DESKTOP-49PGKM5\OneDrive - USN\Dokumenter\ada\Ada_Drivers_Library_j\boards\MicroBit_v2\obj\zfp_lib_Debug\libada_drivers_library.a(hal-gpio.o)
                0x000000000000bb90                hal__gpio__gpio_pointT
 .rodata.hal__i2c__i2c_portP
                0x000000000000bb98        0x4 C:\Users\aditi.DESKTOP-49PGKM5\OneDrive - USN\Dokumenter\ada\Ada_Drivers_Library_j\boards\MicroBit_v2\obj\zfp_lib_Debug\libada_drivers_library.a(hal-i2c.o)
                0x000000000000bb98                hal__i2c__i2c_portP
 .rodata.hal__i2c__i2c_portE2s
                0x000000000000bb9c       0x11 C:\Users\aditi.DESKTOP-49PGKM5\OneDrive - USN\Dokumenter\ada\Ada_Drivers_Library_j\boards\MicroBit_v2\obj\zfp_lib_Debug\libada_drivers_library.a(hal-i2c.o)
                0x000000000000bb9c                hal__i2c__i2c_portE2s
 *fill*         0x000000000000bbad        0x3 
 .rodata.hal__i2c__i2c_portB6s
                0x000000000000bbb0       0x1c C:\Users\aditi.DESKTOP-49PGKM5\OneDrive - USN\Dokumenter\ada\Ada_Drivers_Library_j\boards\MicroBit_v2\obj\zfp_lib_Debug\libada_drivers_library.a(hal-i2c.o)
                0x000000000000bbb0                hal__i2c__i2c_portB6s
 .rodata.hal__i2c__i2c_portT
                0x000000000000bbcc        0x8 C:\Users\aditi.DESKTOP-49PGKM5\OneDrive - USN\Dokumenter\ada\Ada_Drivers_Library_j\boards\MicroBit_v2\obj\zfp_lib_Debug\libada_drivers_library.a(hal-i2c.o)
                0x000000000000bbcc                hal__i2c__i2c_portT
 .rodata.hal__spi__spi_portP
                0x000000000000bbd4        0x4 C:\Users\aditi.DESKTOP-49PGKM5\OneDrive - USN\Dokumenter\ada\Ada_Drivers_Library_j\boards\MicroBit_v2\obj\zfp_lib_Debug\libada_drivers_library.a(hal-spi.o)
                0x000000000000bbd4                hal__spi__spi_portP
 .rodata.hal__spi__spi_portE10s
                0x000000000000bbd8       0x11 C:\Users\aditi.DESKTOP-49PGKM5\OneDrive - USN\Dokumenter\ada\Ada_Drivers_Library_j\boards\MicroBit_v2\obj\zfp_lib_Debug\libada_drivers_library.a(hal-spi.o)
                0x000000000000bbd8                hal__spi__spi_portE10s
 *fill*         0x000000000000bbe9        0x3 
 .rodata.hal__spi__spi_portB14s
                0x000000000000bbec       0x1c C:\Users\aditi.DESKTOP-49PGKM5\OneDrive - USN\Dokumenter\ada\Ada_Drivers_Library_j\boards\MicroBit_v2\obj\zfp_lib_Debug\libada_drivers_library.a(hal-spi.o)
                0x000000000000bbec                hal__spi__spi_portB14s
 .rodata.hal__spi__spi_portT
                0x000000000000bc08        0x8 C:\Users\aditi.DESKTOP-49PGKM5\OneDrive - USN\Dokumenter\ada\Ada_Drivers_Library_j\boards\MicroBit_v2\obj\zfp_lib_Debug\libada_drivers_library.a(hal-spi.o)
                0x000000000000bc08                hal__spi__spi_portT
 .rodata.hal__time__delaysP
                0x000000000000bc10        0x4 C:\Users\aditi.DESKTOP-49PGKM5\OneDrive - USN\Dokumenter\ada\Ada_Drivers_Library_j\boards\MicroBit_v2\obj\zfp_lib_Debug\libada_drivers_library.a(hal-time.o)
                0x000000000000bc10                hal__time__delaysP
 .rodata.hal__time__delaysE2s
                0x000000000000bc14       0x10 C:\Users\aditi.DESKTOP-49PGKM5\OneDrive - USN\Dokumenter\ada\Ada_Drivers_Library_j\boards\MicroBit_v2\obj\zfp_lib_Debug\libada_drivers_library.a(hal-time.o)
                0x000000000000bc14                hal__time__delaysE2s
 .rodata.hal__time__delaysB6s
                0x000000000000bc24       0x1c C:\Users\aditi.DESKTOP-49PGKM5\OneDrive - USN\Dokumenter\ada\Ada_Drivers_Library_j\boards\MicroBit_v2\obj\zfp_lib_Debug\libada_drivers_library.a(hal-time.o)
                0x000000000000bc24                hal__time__delaysB6s
 .rodata.hal__time__delaysT
                0x000000000000bc40        0x8 C:\Users\aditi.DESKTOP-49PGKM5\OneDrive - USN\Dokumenter\ada\Ada_Drivers_Library_j\boards\MicroBit_v2\obj\zfp_lib_Debug\libada_drivers_library.a(hal-time.o)
                0x000000000000bc40                hal__time__delaysT
 .rodata.hal__uart__uart_portP
                0x000000000000bc48        0x4 C:\Users\aditi.DESKTOP-49PGKM5\OneDrive - USN\Dokumenter\ada\Ada_Drivers_Library_j\boards\MicroBit_v2\obj\zfp_lib_Debug\libada_drivers_library.a(hal-uart.o)
                0x000000000000bc48                hal__uart__uart_portP
 .rodata.hal__uart__uart_portE10s
                0x000000000000bc4c       0x13 C:\Users\aditi.DESKTOP-49PGKM5\OneDrive - USN\Dokumenter\ada\Ada_Drivers_Library_j\boards\MicroBit_v2\obj\zfp_lib_Debug\libada_drivers_library.a(hal-uart.o)
                0x000000000000bc4c                hal__uart__uart_portE10s
 *fill*         0x000000000000bc5f        0x1 
 .rodata.hal__uart__uart_portB14s
                0x000000000000bc60       0x1c C:\Users\aditi.DESKTOP-49PGKM5\OneDrive - USN\Dokumenter\ada\Ada_Drivers_Library_j\boards\MicroBit_v2\obj\zfp_lib_Debug\libada_drivers_library.a(hal-uart.o)
                0x000000000000bc60                hal__uart__uart_portB14s
 .rodata.hal__uart__uart_portT
                0x000000000000bc7c        0x8 C:\Users\aditi.DESKTOP-49PGKM5\OneDrive - USN\Dokumenter\ada\Ada_Drivers_Library_j\boards\MicroBit_v2\obj\zfp_lib_Debug\libada_drivers_library.a(hal-uart.o)
                0x000000000000bc7c                hal__uart__uart_portT
 .rodata.__gnat_last_chance_handler.str1.4
                0x000000000000bc84       0x5a C:\gnat\2021-arm-elf\arm-eabi\lib\gnat\zfp-cortex-m4f\adalib\libgnat.a(a-elchha.o)
 *fill*         0x000000000000bcde        0x2 
 .rodata        0x000000000000bce0       0x18 C:\gnat\2021-arm-elf\arm-eabi\lib\gnat\zfp-cortex-m4f\adalib\libgnat.a(a-elchha.o)
 .rodata.system__assertions__assert_failure
                0x000000000000bcf8        0x4 C:\gnat\2021-arm-elf\arm-eabi\lib\gnat\zfp-cortex-m4f\adalib\libgnat.a(s-assert.o)
                0x000000000000bcf8                system__assertions__assert_failure
 .rodata        0x000000000000bcfc        0xd C:\gnat\2021-arm-elf\arm-eabi\lib\gnat\zfp-cortex-m4f\adalib\libgnat.a(s-secsta.o)
 *fill*         0x000000000000bd09        0x3 
 .rodata.ada__assertions__assert.str1.4
                0x000000000000bd0c       0x10 C:\gnat\2021-arm-elf\arm-eabi\lib\gnat\zfp-cortex-m4f\adalib\libgnat.a(a-assert.o)
 .rodata        0x000000000000bd1c        0x8 C:\gnat\2021-arm-elf\arm-eabi\lib\gnat\zfp-cortex-m4f\adalib\libgnat.a(a-assert.o)
 .rodata.ada__assertions__assertion_errorE
                0x000000000000bd24        0x1 C:\gnat\2021-arm-elf\arm-eabi\lib\gnat\zfp-cortex-m4f\adalib\libgnat.a(a-assert.o)
                0x000000000000bd24                ada__assertions__assertion_errorE
 *fill*         0x000000000000bd25        0x3 
 .rodata.ada__exceptions__null_id
                0x000000000000bd28        0x4 C:\gnat\2021-arm-elf\arm-eabi\lib\gnat\zfp-cortex-m4f\adalib\libgnat.a(a-except.o)
                0x000000000000bd28                ada__exceptions__null_id
 .rodata.ada__exceptions__empty_c_string___UNC
                0x000000000000bd2c        0xc C:\gnat\2021-arm-elf\arm-eabi\lib\gnat\zfp-cortex-m4f\adalib\libgnat.a(a-except.o)
                0x000000000000bd2c                ada__exceptions__empty_c_string___UNC
 .rodata.ada__exceptions__empty_c_string
                0x000000000000bd38        0x4 C:\gnat\2021-arm-elf\arm-eabi\lib\gnat\zfp-cortex-m4f\adalib\libgnat.a(a-except.o)
                0x000000000000bd38                ada__exceptions__empty_c_string
                0x000000000000bd3c                . = ALIGN (0x4)
                0x000000000000bd3c                __rom_end = .
                0x000000000000bd3c                __data_load = LOADADDR (.data)

.rel.dyn        0x000000000000bd3c        0x0
 .rel.iplt      0x000000000000bd3c        0x0 main.o

.data           0x0000000020000000      0x3c0 load address 0x000000000000bd3c
                0x0000000020000000                __data_start = .
 *(.data .data.* .gnu.linkonce.d*)
 .data          0x0000000020000000        0x0 main.o
 .data          0x0000000020000000        0x2 b__main.o
                0x0000000020000000                ada_main_E
 .data          0x0000000020000002        0x0 C:\Users\aditi.DESKTOP-49PGKM5\OneDrive - USN\Dokumenter\ada\Ada_Drivers_Library_j\boards\MicroBit_v2\obj\zfp_lib_Debug\libada_drivers_library.a(cortex_m-nvic.o)
 .data.cortex_m__nvic_E
                0x0000000020000002        0x2 C:\Users\aditi.DESKTOP-49PGKM5\OneDrive - USN\Dokumenter\ada\Ada_Drivers_Library_j\boards\MicroBit_v2\obj\zfp_lib_Debug\libada_drivers_library.a(cortex_m-nvic.o)
                0x0000000020000002                cortex_m__nvic_E
 .data          0x0000000020000004        0x0 C:\Users\aditi.DESKTOP-49PGKM5\OneDrive - USN\Dokumenter\ada\Ada_Drivers_Library_j\boards\MicroBit_v2\obj\zfp_lib_Debug\libada_drivers_library.a(crt0.o)
 *fill*         0x0000000020000004        0xc 
 .data.argv     0x0000000020000010       0x18 C:\Users\aditi.DESKTOP-49PGKM5\OneDrive - USN\Dokumenter\ada\Ada_Drivers_Library_j\boards\MicroBit_v2\obj\zfp_lib_Debug\libada_drivers_library.a(crt0.o)
 .data          0x0000000020000028        0x0 C:\Users\aditi.DESKTOP-49PGKM5\OneDrive - USN\Dokumenter\ada\Ada_Drivers_Library_j\boards\MicroBit_v2\obj\zfp_lib_Debug\libada_drivers_library.a(dfr0548.o)
 .data.dfr0548_E
                0x0000000020000028        0x2 C:\Users\aditi.DESKTOP-49PGKM5\OneDrive - USN\Dokumenter\ada\Ada_Drivers_Library_j\boards\MicroBit_v2\obj\zfp_lib_Debug\libada_drivers_library.a(dfr0548.o)
                0x0000000020000028                dfr0548_E
 .data          0x000000002000002a        0x0 C:\Users\aditi.DESKTOP-49PGKM5\OneDrive - USN\Dokumenter\ada\Ada_Drivers_Library_j\boards\MicroBit_v2\obj\zfp_lib_Debug\libada_drivers_library.a(memory_barriers.o)
 .data.memory_barriers_E
                0x000000002000002a        0x2 C:\Users\aditi.DESKTOP-49PGKM5\OneDrive - USN\Dokumenter\ada\Ada_Drivers_Library_j\boards\MicroBit_v2\obj\zfp_lib_Debug\libada_drivers_library.a(memory_barriers.o)
                0x000000002000002a                memory_barriers_E
 .data          0x000000002000002c        0x0 C:\Users\aditi.DESKTOP-49PGKM5\OneDrive - USN\Dokumenter\ada\Ada_Drivers_Library_j\boards\MicroBit_v2\obj\zfp_lib_Debug\libada_drivers_library.a(microbit-console.o)
 .data.microbit__console_E
                0x000000002000002c        0x2 C:\Users\aditi.DESKTOP-49PGKM5\OneDrive - USN\Dokumenter\ada\Ada_Drivers_Library_j\boards\MicroBit_v2\obj\zfp_lib_Debug\libada_drivers_library.a(microbit-console.o)
                0x000000002000002c                microbit__console_E
 .data          0x000000002000002e        0x0 C:\Users\aditi.DESKTOP-49PGKM5\OneDrive - USN\Dokumenter\ada\Ada_Drivers_Library_j\boards\MicroBit_v2\obj\zfp_lib_Debug\libada_drivers_library.a(microbit-display-symbols.o)
 .data.microbit__display__symbols_E
                0x000000002000002e        0x2 C:\Users\aditi.DESKTOP-49PGKM5\OneDrive - USN\Dokumenter\ada\Ada_Drivers_Library_j\boards\MicroBit_v2\obj\zfp_lib_Debug\libada_drivers_library.a(microbit-display-symbols.o)
                0x000000002000002e                microbit__display__symbols_E
 .data          0x0000000020000030        0x0 C:\Users\aditi.DESKTOP-49PGKM5\OneDrive - USN\Dokumenter\ada\Ada_Drivers_Library_j\boards\MicroBit_v2\obj\zfp_lib_Debug\libada_drivers_library.a(microbit-display.o)
 .data.microbit__display_E
                0x0000000020000030        0x2 C:\Users\aditi.DESKTOP-49PGKM5\OneDrive - USN\Dokumenter\ada\Ada_Drivers_Library_j\boards\MicroBit_v2\obj\zfp_lib_Debug\libada_drivers_library.a(microbit-display.o)
                0x0000000020000030                microbit__display_E
 *fill*         0x0000000020000032        0x2 
 .data.microbit__display__animation_step_duration_ms
                0x0000000020000034        0x4 C:\Users\aditi.DESKTOP-49PGKM5\OneDrive - USN\Dokumenter\ada\Ada_Drivers_Library_j\boards\MicroBit_v2\obj\zfp_lib_Debug\libada_drivers_library.a(microbit-display.o)
                0x0000000020000034                microbit__display__animation_step_duration_ms
 .data.microbit__display__animation_elapsed
                0x0000000020000038        0x4 C:\Users\aditi.DESKTOP-49PGKM5\OneDrive - USN\Dokumenter\ada\Ada_Drivers_Library_j\boards\MicroBit_v2\obj\zfp_lib_Debug\libada_drivers_library.a(microbit-display.o)
                0x0000000020000038                microbit__display__animation_elapsed
 .data.microbit__display__animation_state
                0x000000002000003c        0x1 C:\Users\aditi.DESKTOP-49PGKM5\OneDrive - USN\Dokumenter\ada\Ada_Drivers_Library_j\boards\MicroBit_v2\obj\zfp_lib_Debug\libada_drivers_library.a(microbit-display.o)
                0x000000002000003c                microbit__display__animation_state
 *fill*         0x000000002000003d        0x3 
 .data.microbit__display__current_x
                0x0000000020000040        0x4 C:\Users\aditi.DESKTOP-49PGKM5\OneDrive - USN\Dokumenter\ada\Ada_Drivers_Library_j\boards\MicroBit_v2\obj\zfp_lib_Debug\libada_drivers_library.a(microbit-display.o)
                0x0000000020000040                microbit__display__current_x
 .data.microbit__display__current_y
                0x0000000020000044        0x4 C:\Users\aditi.DESKTOP-49PGKM5\OneDrive - USN\Dokumenter\ada\Ada_Drivers_Library_j\boards\MicroBit_v2\obj\zfp_lib_Debug\libada_drivers_library.a(microbit-display.o)
                0x0000000020000044                microbit__display__current_y
 .data.microbit__display__scroll_text_length
                0x0000000020000048        0x4 C:\Users\aditi.DESKTOP-49PGKM5\OneDrive - USN\Dokumenter\ada\Ada_Drivers_Library_j\boards\MicroBit_v2\obj\zfp_lib_Debug\libada_drivers_library.a(microbit-display.o)
                0x0000000020000048                microbit__display__scroll_text_length
 .data.microbit__display__scroll_text_index
                0x000000002000004c        0x4 C:\Users\aditi.DESKTOP-49PGKM5\OneDrive - USN\Dokumenter\ada\Ada_Drivers_Library_j\boards\MicroBit_v2\obj\zfp_lib_Debug\libada_drivers_library.a(microbit-display.o)
                0x000000002000004c                microbit__display__scroll_text_index
 .data.microbit__display__scroll_position
                0x0000000020000050        0x4 C:\Users\aditi.DESKTOP-49PGKM5\OneDrive - USN\Dokumenter\ada\Ada_Drivers_Library_j\boards\MicroBit_v2\obj\zfp_lib_Debug\libada_drivers_library.a(microbit-display.o)
                0x0000000020000050                microbit__display__scroll_position
 .data.microbit__display__bitmap
                0x0000000020000054       0x37 C:\Users\aditi.DESKTOP-49PGKM5\OneDrive - USN\Dokumenter\ada\Ada_Drivers_Library_j\boards\MicroBit_v2\obj\zfp_lib_Debug\libada_drivers_library.a(microbit-display.o)
                0x0000000020000054                microbit__display__bitmap
 *fill*         0x000000002000008b        0x1 
 .data.microbit__display__scroll_text_buffer
                0x000000002000008c       0x80 C:\Users\aditi.DESKTOP-49PGKM5\OneDrive - USN\Dokumenter\ada\Ada_Drivers_Library_j\boards\MicroBit_v2\obj\zfp_lib_Debug\libada_drivers_library.a(microbit-display.o)
                0x000000002000008c                microbit__display__scroll_text_buffer
 .data          0x000000002000010c        0x0 C:\Users\aditi.DESKTOP-49PGKM5\OneDrive - USN\Dokumenter\ada\Ada_Drivers_Library_j\boards\MicroBit_v2\obj\zfp_lib_Debug\libada_drivers_library.a(microbit-i2c.o)
 .data.microbit__i2c_E
                0x000000002000010c        0x2 C:\Users\aditi.DESKTOP-49PGKM5\OneDrive - USN\Dokumenter\ada\Ada_Drivers_Library_j\boards\MicroBit_v2\obj\zfp_lib_Debug\libada_drivers_library.a(microbit-i2c.o)
                0x000000002000010c                microbit__i2c_E
 .data.microbit__i2c__init_done
                0x000000002000010e        0x1 C:\Users\aditi.DESKTOP-49PGKM5\OneDrive - USN\Dokumenter\ada\Ada_Drivers_Library_j\boards\MicroBit_v2\obj\zfp_lib_Debug\libada_drivers_library.a(microbit-i2c.o)
                0x000000002000010e                microbit__i2c__init_done
 .data.microbit__i2c__init_doneext
                0x000000002000010f        0x1 C:\Users\aditi.DESKTOP-49PGKM5\OneDrive - USN\Dokumenter\ada\Ada_Drivers_Library_j\boards\MicroBit_v2\obj\zfp_lib_Debug\libada_drivers_library.a(microbit-i2c.o)
                0x000000002000010f                microbit__i2c__init_doneext
 .data          0x0000000020000110        0x0 C:\Users\aditi.DESKTOP-49PGKM5\OneDrive - USN\Dokumenter\ada\Ada_Drivers_Library_j\boards\MicroBit_v2\obj\zfp_lib_Debug\libada_drivers_library.a(microbit-motordriver.o)
 .data.microbit__motordriver_E
                0x0000000020000110        0x2 C:\Users\aditi.DESKTOP-49PGKM5\OneDrive - USN\Dokumenter\ada\Ada_Drivers_Library_j\boards\MicroBit_v2\obj\zfp_lib_Debug\libada_drivers_library.a(microbit-motordriver.o)
                0x0000000020000110                microbit__motordriver_E
 .data          0x0000000020000112        0x0 C:\Users\aditi.DESKTOP-49PGKM5\OneDrive - USN\Dokumenter\ada\Ada_Drivers_Library_j\boards\MicroBit_v2\obj\zfp_lib_Debug\libada_drivers_library.a(microbit-radio.o)
 .data.microbit__radio_E
                0x0000000020000112        0x2 C:\Users\aditi.DESKTOP-49PGKM5\OneDrive - USN\Dokumenter\ada\Ada_Drivers_Library_j\boards\MicroBit_v2\obj\zfp_lib_Debug\libada_drivers_library.a(microbit-radio.o)
                0x0000000020000112                microbit__radio_E
 .data          0x0000000020000114        0x0 C:\Users\aditi.DESKTOP-49PGKM5\OneDrive - USN\Dokumenter\ada\Ada_Drivers_Library_j\boards\MicroBit_v2\obj\zfp_lib_Debug\libada_drivers_library.a(microbit-time-highspeed.o)
 .data.microbit__time__highspeed_E
                0x0000000020000114        0x2 C:\Users\aditi.DESKTOP-49PGKM5\OneDrive - USN\Dokumenter\ada\Ada_Drivers_Library_j\boards\MicroBit_v2\obj\zfp_lib_Debug\libada_drivers_library.a(microbit-time-highspeed.o)
                0x0000000020000114                microbit__time__highspeed_E
 *fill*         0x0000000020000116        0x2 
 .data.microbit__time__highspeed__clock_us
                0x0000000020000118        0x8 C:\Users\aditi.DESKTOP-49PGKM5\OneDrive - USN\Dokumenter\ada\Ada_Drivers_Library_j\boards\MicroBit_v2\obj\zfp_lib_Debug\libada_drivers_library.a(microbit-time-highspeed.o)
 .data          0x0000000020000120        0x0 C:\Users\aditi.DESKTOP-49PGKM5\OneDrive - USN\Dokumenter\ada\Ada_Drivers_Library_j\boards\MicroBit_v2\obj\zfp_lib_Debug\libada_drivers_library.a(microbit-time.o)
 .data.microbit__time_E
                0x0000000020000120        0x2 C:\Users\aditi.DESKTOP-49PGKM5\OneDrive - USN\Dokumenter\ada\Ada_Drivers_Library_j\boards\MicroBit_v2\obj\zfp_lib_Debug\libada_drivers_library.a(microbit-time.o)
                0x0000000020000120                microbit__time_E
 *fill*         0x0000000020000122        0x6 
 .data.microbit__time__clock_ms
                0x0000000020000128        0x8 C:\Users\aditi.DESKTOP-49PGKM5\OneDrive - USN\Dokumenter\ada\Ada_Drivers_Library_j\boards\MicroBit_v2\obj\zfp_lib_Debug\libada_drivers_library.a(microbit-time.o)
 .data.microbit__time__subscribers
                0x0000000020000130       0x28 C:\Users\aditi.DESKTOP-49PGKM5\OneDrive - USN\Dokumenter\ada\Ada_Drivers_Library_j\boards\MicroBit_v2\obj\zfp_lib_Debug\libada_drivers_library.a(microbit-time.o)
 .data          0x0000000020000158        0x0 C:\Users\aditi.DESKTOP-49PGKM5\OneDrive - USN\Dokumenter\ada\Ada_Drivers_Library_j\boards\MicroBit_v2\obj\zfp_lib_Debug\libada_drivers_library.a(microbit-ultrasonic.o)
 .data.microbit__ultrasonic_E
                0x0000000020000158        0x2 C:\Users\aditi.DESKTOP-49PGKM5\OneDrive - USN\Dokumenter\ada\Ada_Drivers_Library_j\boards\MicroBit_v2\obj\zfp_lib_Debug\libada_drivers_library.a(microbit-ultrasonic.o)
                0x0000000020000158                microbit__ultrasonic_E
 .data          0x000000002000015a        0x0 C:\Users\aditi.DESKTOP-49PGKM5\OneDrive - USN\Dokumenter\ada\Ada_Drivers_Library_j\boards\MicroBit_v2\obj\zfp_lib_Debug\libada_drivers_library.a(nrf-clock.o)
 .data.nrf__clock_E
                0x000000002000015a        0x2 C:\Users\aditi.DESKTOP-49PGKM5\OneDrive - USN\Dokumenter\ada\Ada_Drivers_Library_j\boards\MicroBit_v2\obj\zfp_lib_Debug\libada_drivers_library.a(nrf-clock.o)
                0x000000002000015a                nrf__clock_E
 .data          0x000000002000015c        0x0 C:\Users\aditi.DESKTOP-49PGKM5\OneDrive - USN\Dokumenter\ada\Ada_Drivers_Library_j\boards\MicroBit_v2\obj\zfp_lib_Debug\libada_drivers_library.a(nrf-device.o)
 .data.nrf__device_E
                0x000000002000015c        0x2 C:\Users\aditi.DESKTOP-49PGKM5\OneDrive - USN\Dokumenter\ada\Ada_Drivers_Library_j\boards\MicroBit_v2\obj\zfp_lib_Debug\libada_drivers_library.a(nrf-device.o)
                0x000000002000015c                nrf__device_E
 .data          0x000000002000015e        0x0 C:\Users\aditi.DESKTOP-49PGKM5\OneDrive - USN\Dokumenter\ada\Ada_Drivers_Library_j\boards\MicroBit_v2\obj\zfp_lib_Debug\libada_drivers_library.a(nrf-events.o)
 .data.nrf__events_E
                0x000000002000015e        0x2 C:\Users\aditi.DESKTOP-49PGKM5\OneDrive - USN\Dokumenter\ada\Ada_Drivers_Library_j\boards\MicroBit_v2\obj\zfp_lib_Debug\libada_drivers_library.a(nrf-events.o)
                0x000000002000015e                nrf__events_E
 .data          0x0000000020000160        0x0 C:\Users\aditi.DESKTOP-49PGKM5\OneDrive - USN\Dokumenter\ada\Ada_Drivers_Library_j\boards\MicroBit_v2\obj\zfp_lib_Debug\libada_drivers_library.a(nrf-gpio.o)
 .data.nrf__gpio_E
                0x0000000020000160        0x2 C:\Users\aditi.DESKTOP-49PGKM5\OneDrive - USN\Dokumenter\ada\Ada_Drivers_Library_j\boards\MicroBit_v2\obj\zfp_lib_Debug\libada_drivers_library.a(nrf-gpio.o)
                0x0000000020000160                nrf__gpio_E
 .data          0x0000000020000162        0x0 C:\Users\aditi.DESKTOP-49PGKM5\OneDrive - USN\Dokumenter\ada\Ada_Drivers_Library_j\boards\MicroBit_v2\obj\zfp_lib_Debug\libada_drivers_library.a(nrf-interrupts.o)
 .data.nrf__interrupts_E
                0x0000000020000162        0x2 C:\Users\aditi.DESKTOP-49PGKM5\OneDrive - USN\Dokumenter\ada\Ada_Drivers_Library_j\boards\MicroBit_v2\obj\zfp_lib_Debug\libada_drivers_library.a(nrf-interrupts.o)
                0x0000000020000162                nrf__interrupts_E
 .data.nrf__interrupts__handlers
                0x0000000020000164       0xc0 C:\Users\aditi.DESKTOP-49PGKM5\OneDrive - USN\Dokumenter\ada\Ada_Drivers_Library_j\boards\MicroBit_v2\obj\zfp_lib_Debug\libada_drivers_library.a(nrf-interrupts.o)
 .data          0x0000000020000224        0x0 C:\Users\aditi.DESKTOP-49PGKM5\OneDrive - USN\Dokumenter\ada\Ada_Drivers_Library_j\boards\MicroBit_v2\obj\zfp_lib_Debug\libada_drivers_library.a(nrf-radio.o)
 .data.nrf__radio_E
                0x0000000020000224        0x2 C:\Users\aditi.DESKTOP-49PGKM5\OneDrive - USN\Dokumenter\ada\Ada_Drivers_Library_j\boards\MicroBit_v2\obj\zfp_lib_Debug\libada_drivers_library.a(nrf-radio.o)
                0x0000000020000224                nrf__radio_E
 .data.nrf__radio__isinit
                0x0000000020000226        0x1 C:\Users\aditi.DESKTOP-49PGKM5\OneDrive - USN\Dokumenter\ada\Ada_Drivers_Library_j\boards\MicroBit_v2\obj\zfp_lib_Debug\libada_drivers_library.a(nrf-radio.o)
                0x0000000020000226                nrf__radio__isinit
 .data.nrf__radio__queuedepth
                0x0000000020000227        0x1 C:\Users\aditi.DESKTOP-49PGKM5\OneDrive - USN\Dokumenter\ada\Ada_Drivers_Library_j\boards\MicroBit_v2\obj\zfp_lib_Debug\libada_drivers_library.a(nrf-radio.o)
                0x0000000020000227                nrf__radio__queuedepth
 .data.nrf__radio__rxbuf
                0x0000000020000228       0x25 C:\Users\aditi.DESKTOP-49PGKM5\OneDrive - USN\Dokumenter\ada\Ada_Drivers_Library_j\boards\MicroBit_v2\obj\zfp_lib_Debug\libada_drivers_library.a(nrf-radio.o)
                0x0000000020000228                nrf__radio__rxbuf
 *fill*         0x000000002000024d        0x3 
 .data.nrf__radio__txbuf
                0x0000000020000250       0x25 C:\Users\aditi.DESKTOP-49PGKM5\OneDrive - USN\Dokumenter\ada\Ada_Drivers_Library_j\boards\MicroBit_v2\obj\zfp_lib_Debug\libada_drivers_library.a(nrf-radio.o)
                0x0000000020000250                nrf__radio__txbuf
 *fill*         0x0000000020000275        0x3 
 .data.nrf__radio__rxqueue
                0x0000000020000278       0xb9 C:\Users\aditi.DESKTOP-49PGKM5\OneDrive - USN\Dokumenter\ada\Ada_Drivers_Library_j\boards\MicroBit_v2\obj\zfp_lib_Debug\libada_drivers_library.a(nrf-radio.o)
                0x0000000020000278                nrf__radio__rxqueue
 *fill*         0x0000000020000331        0x3 
 .data.nrf__radio__safeframebuffer
                0x0000000020000334       0x25 C:\Users\aditi.DESKTOP-49PGKM5\OneDrive - USN\Dokumenter\ada\Ada_Drivers_Library_j\boards\MicroBit_v2\obj\zfp_lib_Debug\libada_drivers_library.a(nrf-radio.o)
                0x0000000020000334                nrf__radio__safeframebuffer
 .data          0x0000000020000359        0x0 C:\Users\aditi.DESKTOP-49PGKM5\OneDrive - USN\Dokumenter\ada\Ada_Drivers_Library_j\boards\MicroBit_v2\obj\zfp_lib_Debug\libada_drivers_library.a(nrf-rtc.o)
 *fill*         0x0000000020000359        0x1 
 .data.nrf__rtc_E
                0x000000002000035a        0x2 C:\Users\aditi.DESKTOP-49PGKM5\OneDrive - USN\Dokumenter\ada\Ada_Drivers_Library_j\boards\MicroBit_v2\obj\zfp_lib_Debug\libada_drivers_library.a(nrf-rtc.o)
                0x000000002000035a                nrf__rtc_E
 .data          0x000000002000035c        0x0 C:\Users\aditi.DESKTOP-49PGKM5\OneDrive - USN\Dokumenter\ada\Ada_Drivers_Library_j\boards\MicroBit_v2\obj\zfp_lib_Debug\libada_drivers_library.a(nrf-spi_master.o)
 .data.nrf__spi_master_E
                0x000000002000035c        0x2 C:\Users\aditi.DESKTOP-49PGKM5\OneDrive - USN\Dokumenter\ada\Ada_Drivers_Library_j\boards\MicroBit_v2\obj\zfp_lib_Debug\libada_drivers_library.a(nrf-spi_master.o)
                0x000000002000035c                nrf__spi_master_E
 .data          0x000000002000035e        0x0 C:\Users\aditi.DESKTOP-49PGKM5\OneDrive - USN\Dokumenter\ada\Ada_Drivers_Library_j\boards\MicroBit_v2\obj\zfp_lib_Debug\libada_drivers_library.a(nrf-tasks.o)
 .data.nrf__tasks_E
                0x000000002000035e        0x2 C:\Users\aditi.DESKTOP-49PGKM5\OneDrive - USN\Dokumenter\ada\Ada_Drivers_Library_j\boards\MicroBit_v2\obj\zfp_lib_Debug\libada_drivers_library.a(nrf-tasks.o)
                0x000000002000035e                nrf__tasks_E
 .data          0x0000000020000360        0x0 C:\Users\aditi.DESKTOP-49PGKM5\OneDrive - USN\Dokumenter\ada\Ada_Drivers_Library_j\boards\MicroBit_v2\obj\zfp_lib_Debug\libada_drivers_library.a(nrf-timers.o)
 .data.nrf__timers_E
                0x0000000020000360        0x2 C:\Users\aditi.DESKTOP-49PGKM5\OneDrive - USN\Dokumenter\ada\Ada_Drivers_Library_j\boards\MicroBit_v2\obj\zfp_lib_Debug\libada_drivers_library.a(nrf-timers.o)
                0x0000000020000360                nrf__timers_E
 .data          0x0000000020000362        0x0 C:\Users\aditi.DESKTOP-49PGKM5\OneDrive - USN\Dokumenter\ada\Ada_Drivers_Library_j\boards\MicroBit_v2\obj\zfp_lib_Debug\libada_drivers_library.a(nrf-twi.o)
 .data.nrf__twi_E
                0x0000000020000362        0x2 C:\Users\aditi.DESKTOP-49PGKM5\OneDrive - USN\Dokumenter\ada\Ada_Drivers_Library_j\boards\MicroBit_v2\obj\zfp_lib_Debug\libada_drivers_library.a(nrf-twi.o)
                0x0000000020000362                nrf__twi_E
 .data.T10b.1   0x0000000020000364        0x4 C:\Users\aditi.DESKTOP-49PGKM5\OneDrive - USN\Dokumenter\ada\Ada_Drivers_Library_j\boards\MicroBit_v2\obj\zfp_lib_Debug\libada_drivers_library.a(nrf-twi.o)
 .data.T18b.0   0x0000000020000368        0x4 C:\Users\aditi.DESKTOP-49PGKM5\OneDrive - USN\Dokumenter\ada\Ada_Drivers_Library_j\boards\MicroBit_v2\obj\zfp_lib_Debug\libada_drivers_library.a(nrf-twi.o)
 .data          0x000000002000036c        0x0 C:\Users\aditi.DESKTOP-49PGKM5\OneDrive - USN\Dokumenter\ada\Ada_Drivers_Library_j\boards\MicroBit_v2\obj\zfp_lib_Debug\libada_drivers_library.a(nrf-uart.o)
 .data.nrf__uart_E
                0x000000002000036c        0x2 C:\Users\aditi.DESKTOP-49PGKM5\OneDrive - USN\Dokumenter\ada\Ada_Drivers_Library_j\boards\MicroBit_v2\obj\zfp_lib_Debug\libada_drivers_library.a(nrf-uart.o)
                0x000000002000036c                nrf__uart_E
 .data          0x000000002000036e        0x0 C:\Users\aditi.DESKTOP-49PGKM5\OneDrive - USN\Dokumenter\ada\Ada_Drivers_Library_j\boards\MicroBit_v2\obj\zfp_lib_Debug\libada_drivers_library.a(nrf_svd-gpio.o)
 .data          0x000000002000036e        0x0 C:\Users\aditi.DESKTOP-49PGKM5\OneDrive - USN\Dokumenter\ada\Ada_Drivers_Library_j\boards\MicroBit_v2\obj\zfp_lib_Debug\libada_drivers_library.a(nrf_svd-radio.o)
 .data          0x000000002000036e        0x0 C:\Users\aditi.DESKTOP-49PGKM5\OneDrive - USN\Dokumenter\ada\Ada_Drivers_Library_j\boards\MicroBit_v2\obj\zfp_lib_Debug\libada_drivers_library.a(nrf_svd-twi.o)
 .data          0x000000002000036e        0x0 C:\Users\aditi.DESKTOP-49PGKM5\OneDrive - USN\Dokumenter\ada\Ada_Drivers_Library_j\boards\MicroBit_v2\obj\zfp_lib_Debug\libada_drivers_library.a(hal-gpio.o)
 .data.hal__gpio_E
                0x000000002000036e        0x2 C:\Users\aditi.DESKTOP-49PGKM5\OneDrive - USN\Dokumenter\ada\Ada_Drivers_Library_j\boards\MicroBit_v2\obj\zfp_lib_Debug\libada_drivers_library.a(hal-gpio.o)
                0x000000002000036e                hal__gpio_E
 .data          0x0000000020000370        0x0 C:\Users\aditi.DESKTOP-49PGKM5\OneDrive - USN\Dokumenter\ada\Ada_Drivers_Library_j\boards\MicroBit_v2\obj\zfp_lib_Debug\libada_drivers_library.a(hal-i2c.o)
 .data.hal__i2c_E
                0x0000000020000370        0x2 C:\Users\aditi.DESKTOP-49PGKM5\OneDrive - USN\Dokumenter\ada\Ada_Drivers_Library_j\boards\MicroBit_v2\obj\zfp_lib_Debug\libada_drivers_library.a(hal-i2c.o)
                0x0000000020000370                hal__i2c_E
 .data          0x0000000020000372        0x0 C:\Users\aditi.DESKTOP-49PGKM5\OneDrive - USN\Dokumenter\ada\Ada_Drivers_Library_j\boards\MicroBit_v2\obj\zfp_lib_Debug\libada_drivers_library.a(hal-spi.o)
 .data.hal__spi_E
                0x0000000020000372        0x2 C:\Users\aditi.DESKTOP-49PGKM5\OneDrive - USN\Dokumenter\ada\Ada_Drivers_Library_j\boards\MicroBit_v2\obj\zfp_lib_Debug\libada_drivers_library.a(hal-spi.o)
                0x0000000020000372                hal__spi_E
 .data          0x0000000020000374        0x0 C:\Users\aditi.DESKTOP-49PGKM5\OneDrive - USN\Dokumenter\ada\Ada_Drivers_Library_j\boards\MicroBit_v2\obj\zfp_lib_Debug\libada_drivers_library.a(hal-time.o)
 .data.hal__time_E
                0x0000000020000374        0x2 C:\Users\aditi.DESKTOP-49PGKM5\OneDrive - USN\Dokumenter\ada\Ada_Drivers_Library_j\boards\MicroBit_v2\obj\zfp_lib_Debug\libada_drivers_library.a(hal-time.o)
                0x0000000020000374                hal__time_E
 .data          0x0000000020000376        0x0 C:\Users\aditi.DESKTOP-49PGKM5\OneDrive - USN\Dokumenter\ada\Ada_Drivers_Library_j\boards\MicroBit_v2\obj\zfp_lib_Debug\libada_drivers_library.a(hal-uart.o)
 .data.hal__uart_E
                0x0000000020000376        0x2 C:\Users\aditi.DESKTOP-49PGKM5\OneDrive - USN\Dokumenter\ada\Ada_Drivers_Library_j\boards\MicroBit_v2\obj\zfp_lib_Debug\libada_drivers_library.a(hal-uart.o)
                0x0000000020000376                hal__uart_E
 .data          0x0000000020000378        0x0 C:\gnat\2021-arm-elf\arm-eabi\lib\gnat\zfp-cortex-m4f\adalib\libgnat.a(a-elchha.o)
 .data.ada__exceptions__last_chance_handler_E
                0x0000000020000378        0x2 C:\gnat\2021-arm-elf\arm-eabi\lib\gnat\zfp-cortex-m4f\adalib\libgnat.a(a-elchha.o)
                0x0000000020000378                ada__exceptions__last_chance_handler_E
 .data          0x000000002000037a        0x0 C:\gnat\2021-arm-elf\arm-eabi\lib\gnat\zfp-cortex-m4f\adalib\libgnat.a(g-io.o)
 .data.gnat__io_E
                0x000000002000037a        0x2 C:\gnat\2021-arm-elf\arm-eabi\lib\gnat\zfp-cortex-m4f\adalib\libgnat.a(g-io.o)
                0x000000002000037a                gnat__io_E
 .data          0x000000002000037c        0x0 C:\gnat\2021-arm-elf\arm-eabi\lib\gnat\zfp-cortex-m4f\adalib\libgnat.a(s-assert.o)
 .data.system__assertions_E
                0x000000002000037c        0x2 C:\gnat\2021-arm-elf\arm-eabi\lib\gnat\zfp-cortex-m4f\adalib\libgnat.a(s-assert.o)
                0x000000002000037c                system__assertions_E
 .data          0x000000002000037e        0x0 C:\gnat\2021-arm-elf\arm-eabi\lib\gnat\zfp-cortex-m4f\adalib\libgnat.a(s-imglli.o)
 .data.system__img_lli_E
                0x000000002000037e        0x2 C:\gnat\2021-arm-elf\arm-eabi\lib\gnat\zfp-cortex-m4f\adalib\libgnat.a(s-imglli.o)
                0x000000002000037e                system__img_lli_E
 .data          0x0000000020000380        0x0 C:\gnat\2021-arm-elf\arm-eabi\lib\gnat\zfp-cortex-m4f\adalib\libgnat.a(s-imguns.o)
 .data.system__img_uns_E
                0x0000000020000380        0x2 C:\gnat\2021-arm-elf\arm-eabi\lib\gnat\zfp-cortex-m4f\adalib\libgnat.a(s-imguns.o)
                0x0000000020000380                system__img_uns_E
 .data          0x0000000020000382        0x0 C:\gnat\2021-arm-elf\arm-eabi\lib\gnat\zfp-cortex-m4f\adalib\libgnat.a(s-macres.o)
 .data.system__machine_reset_E
                0x0000000020000382        0x2 C:\gnat\2021-arm-elf\arm-eabi\lib\gnat\zfp-cortex-m4f\adalib\libgnat.a(s-macres.o)
                0x0000000020000382                system__machine_reset_E
 .data          0x0000000020000384        0x0 C:\gnat\2021-arm-elf\arm-eabi\lib\gnat\zfp-cortex-m4f\adalib\libgnat.a(s-memcom.o)
 .data.system__memory_compare_E
                0x0000000020000384        0x2 C:\gnat\2021-arm-elf\arm-eabi\lib\gnat\zfp-cortex-m4f\adalib\libgnat.a(s-memcom.o)
                0x0000000020000384                system__memory_compare_E
 .data          0x0000000020000386        0x0 C:\gnat\2021-arm-elf\arm-eabi\lib\gnat\zfp-cortex-m4f\adalib\libgnat.a(s-memcop.o)
 .data.system__memory_copy_E
                0x0000000020000386        0x2 C:\gnat\2021-arm-elf\arm-eabi\lib\gnat\zfp-cortex-m4f\adalib\libgnat.a(s-memcop.o)
                0x0000000020000386                system__memory_copy_E
 .data          0x0000000020000388        0x0 C:\gnat\2021-arm-elf\arm-eabi\lib\gnat\zfp-cortex-m4f\adalib\libgnat.a(s-memmov.o)
 .data.system__memory_move_E
                0x0000000020000388        0x2 C:\gnat\2021-arm-elf\arm-eabi\lib\gnat\zfp-cortex-m4f\adalib\libgnat.a(s-memmov.o)
                0x0000000020000388                system__memory_move_E
 .data          0x000000002000038a        0x0 C:\gnat\2021-arm-elf\arm-eabi\lib\gnat\zfp-cortex-m4f\adalib\libgnat.a(s-memset.o)
 .data.system__memory_set_E
                0x000000002000038a        0x2 C:\gnat\2021-arm-elf\arm-eabi\lib\gnat\zfp-cortex-m4f\adalib\libgnat.a(s-memset.o)
                0x000000002000038a                system__memory_set_E
 .data          0x000000002000038c        0x0 C:\gnat\2021-arm-elf\arm-eabi\lib\gnat\zfp-cortex-m4f\adalib\libgnat.a(s-secsta.o)
 .data.system__secondary_stack_E
                0x000000002000038c        0x2 C:\gnat\2021-arm-elf\arm-eabi\lib\gnat\zfp-cortex-m4f\adalib\libgnat.a(s-secsta.o)
                0x000000002000038c                system__secondary_stack_E
 *fill*         0x000000002000038e        0x2 
 .data.system__secondary_stack__num_of_assigned_stacks
                0x0000000020000390        0x4 C:\gnat\2021-arm-elf\arm-eabi\lib\gnat\zfp-cortex-m4f\adalib\libgnat.a(s-secsta.o)
                0x0000000020000390                system__secondary_stack__num_of_assigned_stacks
 .data          0x0000000020000394        0x0 C:\gnat\2021-arm-elf\arm-eabi\lib\gnat\zfp-cortex-m4f\adalib\libgnat.a(s-sssita.o)
 .data.system__secondary_stack__single_task__secondary_stack
                0x0000000020000394        0x4 C:\gnat\2021-arm-elf\arm-eabi\lib\gnat\zfp-cortex-m4f\adalib\libgnat.a(s-sssita.o)
 .data          0x0000000020000398        0x0 C:\gnat\2021-arm-elf\arm-eabi\lib\gnat\zfp-cortex-m4f\adalib\libgnat.a(s-textio.o)
 .data.system__text_io_E
                0x0000000020000398        0x2 C:\gnat\2021-arm-elf\arm-eabi\lib\gnat\zfp-cortex-m4f\adalib\libgnat.a(s-textio.o)
                0x0000000020000398                system__text_io_E
 .data.system__text_io__initialized
                0x000000002000039a        0x1 C:\gnat\2021-arm-elf\arm-eabi\lib\gnat\zfp-cortex-m4f\adalib\libgnat.a(s-textio.o)
                0x000000002000039a                system__text_io__initialized
 .data          0x000000002000039b        0x0 C:\gnat\2021-arm-elf\arm-eabi\lib\gnat\zfp-cortex-m4f\adalib\libgnat.a(a-assert.o)
 *fill*         0x000000002000039b        0x1 
 .data.ada__assertions_E
                0x000000002000039c        0x2 C:\gnat\2021-arm-elf\arm-eabi\lib\gnat\zfp-cortex-m4f\adalib\libgnat.a(a-assert.o)
                0x000000002000039c                ada__assertions_E
 *fill*         0x000000002000039e        0x2 
 .data.ada__assertions__assertion_error
                0x00000000200003a0       0x18 C:\gnat\2021-arm-elf\arm-eabi\lib\gnat\zfp-cortex-m4f\adalib\libgnat.a(a-assert.o)
                0x00000000200003a0                ada__assertions__assertion_error
 .data          0x00000000200003b8        0x0 C:\gnat\2021-arm-elf\arm-eabi\lib\gnat\zfp-cortex-m4f\adalib\libgnat.a(a-except.o)
 .data.ada__exceptions_E
                0x00000000200003b8        0x2 C:\gnat\2021-arm-elf\arm-eabi\lib\gnat\zfp-cortex-m4f\adalib\libgnat.a(a-except.o)
                0x00000000200003b8                ada__exceptions_E
 .data          0x00000000200003ba        0x0 C:\gnat\2021-arm-elf\arm-eabi\lib\gnat\zfp-cortex-m4f\adalib\libgnat.a(s-semiho.o)
 .data.system__semihosting_E
                0x00000000200003ba        0x2 C:\gnat\2021-arm-elf\arm-eabi\lib\gnat\zfp-cortex-m4f\adalib\libgnat.a(s-semiho.o)
                0x00000000200003ba                system__semihosting_E
 .data.system__semihosting__buffer_index
                0x00000000200003bc        0x2 C:\gnat\2021-arm-elf\arm-eabi\lib\gnat\zfp-cortex-m4f\adalib\libgnat.a(s-semiho.o)
 .data          0x00000000200003be        0x0 c:/gnat/2021-arm-elf/bin/../lib/gcc/arm-eabi/10.3.1/thumb/v7e-m/fpv4-sp/hard\libgcc.a(_aeabi_ldivmod.o)
 .data          0x00000000200003be        0x0 c:/gnat/2021-arm-elf/bin/../lib/gcc/arm-eabi/10.3.1/thumb/v7e-m/fpv4-sp/hard\libgcc.a(_udivmoddi4.o)
 .data          0x00000000200003be        0x0 c:/gnat/2021-arm-elf/bin/../lib/gcc/arm-eabi/10.3.1/thumb/v7e-m/fpv4-sp/hard\libgcc.a(_dvmd_tls.o)
                0x00000000200003c0                . = ALIGN (0x4)
 *fill*         0x00000000200003be        0x2 
                0x00000000200003c0                __data_end = .
                0x00000000000000f0                __data_words = ((__data_end - __data_start) >> 0x2)

.igot.plt       0x00000000200003c0        0x0 load address 0x000000000000c0fc
 .igot.plt      0x00000000200003c0        0x0 main.o

.bss            0x00000000200003c0     0x1500 load address 0x000000000000c0fc
                0x00000000200003c0                . = ALIGN (0x8)
                0x00000000200003c0                __bss_start = .
 *(.bss .bss.*)
 .bss           0x00000000200003c0        0x0 main.o
 .bss           0x00000000200003c0      0x210 b__main.o
 .bss           0x00000000200005d0        0x0 C:\Users\aditi.DESKTOP-49PGKM5\OneDrive - USN\Dokumenter\ada\Ada_Drivers_Library_j\boards\MicroBit_v2\obj\zfp_lib_Debug\libada_drivers_library.a(cortex_m-nvic.o)
 .bss           0x00000000200005d0        0x0 C:\Users\aditi.DESKTOP-49PGKM5\OneDrive - USN\Dokumenter\ada\Ada_Drivers_Library_j\boards\MicroBit_v2\obj\zfp_lib_Debug\libada_drivers_library.a(crt0.o)
 .bss           0x00000000200005d0        0x0 C:\Users\aditi.DESKTOP-49PGKM5\OneDrive - USN\Dokumenter\ada\Ada_Drivers_Library_j\boards\MicroBit_v2\obj\zfp_lib_Debug\libada_drivers_library.a(dfr0548.o)
 .bss           0x00000000200005d0        0x0 C:\Users\aditi.DESKTOP-49PGKM5\OneDrive - USN\Dokumenter\ada\Ada_Drivers_Library_j\boards\MicroBit_v2\obj\zfp_lib_Debug\libada_drivers_library.a(memory_barriers.o)
 .bss           0x00000000200005d0        0x0 C:\Users\aditi.DESKTOP-49PGKM5\OneDrive - USN\Dokumenter\ada\Ada_Drivers_Library_j\boards\MicroBit_v2\obj\zfp_lib_Debug\libada_drivers_library.a(microbit-console.o)
 .bss           0x00000000200005d0        0x0 C:\Users\aditi.DESKTOP-49PGKM5\OneDrive - USN\Dokumenter\ada\Ada_Drivers_Library_j\boards\MicroBit_v2\obj\zfp_lib_Debug\libada_drivers_library.a(microbit-display-symbols.o)
 .bss           0x00000000200005d0        0x0 C:\Users\aditi.DESKTOP-49PGKM5\OneDrive - USN\Dokumenter\ada\Ada_Drivers_Library_j\boards\MicroBit_v2\obj\zfp_lib_Debug\libada_drivers_library.a(microbit-display.o)
 .bss.microbit__display__row_points
                0x00000000200005d0       0x28 C:\Users\aditi.DESKTOP-49PGKM5\OneDrive - USN\Dokumenter\ada\Ada_Drivers_Library_j\boards\MicroBit_v2\obj\zfp_lib_Debug\libada_drivers_library.a(microbit-display.o)
                0x00000000200005d0                microbit__display__row_points
 .bss.microbit__display__column_points
                0x00000000200005f8       0x28 C:\Users\aditi.DESKTOP-49PGKM5\OneDrive - USN\Dokumenter\ada\Ada_Drivers_Library_j\boards\MicroBit_v2\obj\zfp_lib_Debug\libada_drivers_library.a(microbit-display.o)
                0x00000000200005f8                microbit__display__column_points
 .bss           0x0000000020000620        0x0 C:\Users\aditi.DESKTOP-49PGKM5\OneDrive - USN\Dokumenter\ada\Ada_Drivers_Library_j\boards\MicroBit_v2\obj\zfp_lib_Debug\libada_drivers_library.a(microbit-i2c.o)
 .bss           0x0000000020000620        0x0 C:\Users\aditi.DESKTOP-49PGKM5\OneDrive - USN\Dokumenter\ada\Ada_Drivers_Library_j\boards\MicroBit_v2\obj\zfp_lib_Debug\libada_drivers_library.a(microbit-motordriver.o)
 .bss.microbit__motordriver__R1b
                0x0000000020000620        0x4 C:\Users\aditi.DESKTOP-49PGKM5\OneDrive - USN\Dokumenter\ada\Ada_Drivers_Library_j\boards\MicroBit_v2\obj\zfp_lib_Debug\libada_drivers_library.a(microbit-motordriver.o)
 .bss.microbit__motordriver__md
                0x0000000020000624        0x8 C:\Users\aditi.DESKTOP-49PGKM5\OneDrive - USN\Dokumenter\ada\Ada_Drivers_Library_j\boards\MicroBit_v2\obj\zfp_lib_Debug\libada_drivers_library.a(microbit-motordriver.o)
 .bss           0x000000002000062c        0x0 C:\Users\aditi.DESKTOP-49PGKM5\OneDrive - USN\Dokumenter\ada\Ada_Drivers_Library_j\boards\MicroBit_v2\obj\zfp_lib_Debug\libada_drivers_library.a(microbit-radio.o)
 .bss.microbit__radio__frequency
                0x000000002000062c        0x2 C:\Users\aditi.DESKTOP-49PGKM5\OneDrive - USN\Dokumenter\ada\Ada_Drivers_Library_j\boards\MicroBit_v2\obj\zfp_lib_Debug\libada_drivers_library.a(microbit-radio.o)
                0x000000002000062c                microbit__radio__frequency
 .bss.microbit__radio__headerlength
                0x000000002000062e        0x1 C:\Users\aditi.DESKTOP-49PGKM5\OneDrive - USN\Dokumenter\ada\Ada_Drivers_Library_j\boards\MicroBit_v2\obj\zfp_lib_Debug\libada_drivers_library.a(microbit-radio.o)
                0x000000002000062e                microbit__radio__headerlength
 .bss.microbit__radio__headerversion
                0x000000002000062f        0x1 C:\Users\aditi.DESKTOP-49PGKM5\OneDrive - USN\Dokumenter\ada\Ada_Drivers_Library_j\boards\MicroBit_v2\obj\zfp_lib_Debug\libada_drivers_library.a(microbit-radio.o)
                0x000000002000062f                microbit__radio__headerversion
 .bss.microbit__radio__headergroup
                0x0000000020000630        0x1 C:\Users\aditi.DESKTOP-49PGKM5\OneDrive - USN\Dokumenter\ada\Ada_Drivers_Library_j\boards\MicroBit_v2\obj\zfp_lib_Debug\libada_drivers_library.a(microbit-radio.o)
                0x0000000020000630                microbit__radio__headergroup
 .bss.microbit__radio__headerprotocol
                0x0000000020000631        0x1 C:\Users\aditi.DESKTOP-49PGKM5\OneDrive - USN\Dokumenter\ada\Ada_Drivers_Library_j\boards\MicroBit_v2\obj\zfp_lib_Debug\libada_drivers_library.a(microbit-radio.o)
                0x0000000020000631                microbit__radio__headerprotocol
 .bss           0x0000000020000632        0x0 C:\Users\aditi.DESKTOP-49PGKM5\OneDrive - USN\Dokumenter\ada\Ada_Drivers_Library_j\boards\MicroBit_v2\obj\zfp_lib_Debug\libada_drivers_library.a(microbit-time-highspeed.o)
 .bss           0x0000000020000632        0x0 C:\Users\aditi.DESKTOP-49PGKM5\OneDrive - USN\Dokumenter\ada\Ada_Drivers_Library_j\boards\MicroBit_v2\obj\zfp_lib_Debug\libada_drivers_library.a(microbit-time.o)
 *fill*         0x0000000020000632        0x2 
 .bss.microbit__time__delay_instance
                0x0000000020000634        0x4 C:\Users\aditi.DESKTOP-49PGKM5\OneDrive - USN\Dokumenter\ada\Ada_Drivers_Library_j\boards\MicroBit_v2\obj\zfp_lib_Debug\libada_drivers_library.a(microbit-time.o)
 .bss           0x0000000020000638        0x0 C:\Users\aditi.DESKTOP-49PGKM5\OneDrive - USN\Dokumenter\ada\Ada_Drivers_Library_j\boards\MicroBit_v2\obj\zfp_lib_Debug\libada_drivers_library.a(microbit-ultrasonic.o)
 .bss           0x0000000020000638        0x0 C:\Users\aditi.DESKTOP-49PGKM5\OneDrive - USN\Dokumenter\ada\Ada_Drivers_Library_j\boards\MicroBit_v2\obj\zfp_lib_Debug\libada_drivers_library.a(nrf-clock.o)
 .bss           0x0000000020000638        0x0 C:\Users\aditi.DESKTOP-49PGKM5\OneDrive - USN\Dokumenter\ada\Ada_Drivers_Library_j\boards\MicroBit_v2\obj\zfp_lib_Debug\libada_drivers_library.a(nrf-device.o)
 .bss.nrf__device__fe0_is_six
                0x0000000020000638        0x1 C:\Users\aditi.DESKTOP-49PGKM5\OneDrive - USN\Dokumenter\ada\Ada_Drivers_Library_j\boards\MicroBit_v2\obj\zfp_lib_Debug\libada_drivers_library.a(nrf-device.o)
 .bss.nrf__device__fe4_is_zero
                0x0000000020000639        0x1 C:\Users\aditi.DESKTOP-49PGKM5\OneDrive - USN\Dokumenter\ada\Ada_Drivers_Library_j\boards\MicroBit_v2\obj\zfp_lib_Debug\libada_drivers_library.a(nrf-device.o)
 *fill*         0x000000002000063a        0x2 
 .bss.nrf__device__p00
                0x000000002000063c        0x8 C:\Users\aditi.DESKTOP-49PGKM5\OneDrive - USN\Dokumenter\ada\Ada_Drivers_Library_j\boards\MicroBit_v2\obj\zfp_lib_Debug\libada_drivers_library.a(nrf-device.o)
                0x000000002000063c                nrf__device__p00
 .bss.nrf__device__p01
                0x0000000020000644        0x8 C:\Users\aditi.DESKTOP-49PGKM5\OneDrive - USN\Dokumenter\ada\Ada_Drivers_Library_j\boards\MicroBit_v2\obj\zfp_lib_Debug\libada_drivers_library.a(nrf-device.o)
                0x0000000020000644                nrf__device__p01
 .bss.nrf__device__p02
                0x000000002000064c        0x8 C:\Users\aditi.DESKTOP-49PGKM5\OneDrive - USN\Dokumenter\ada\Ada_Drivers_Library_j\boards\MicroBit_v2\obj\zfp_lib_Debug\libada_drivers_library.a(nrf-device.o)
                0x000000002000064c                nrf__device__p02
 .bss.nrf__device__p03
                0x0000000020000654        0x8 C:\Users\aditi.DESKTOP-49PGKM5\OneDrive - USN\Dokumenter\ada\Ada_Drivers_Library_j\boards\MicroBit_v2\obj\zfp_lib_Debug\libada_drivers_library.a(nrf-device.o)
                0x0000000020000654                nrf__device__p03
 .bss.nrf__device__p04
                0x000000002000065c        0x8 C:\Users\aditi.DESKTOP-49PGKM5\OneDrive - USN\Dokumenter\ada\Ada_Drivers_Library_j\boards\MicroBit_v2\obj\zfp_lib_Debug\libada_drivers_library.a(nrf-device.o)
                0x000000002000065c                nrf__device__p04
 .bss.nrf__device__p05
                0x0000000020000664        0x8 C:\Users\aditi.DESKTOP-49PGKM5\OneDrive - USN\Dokumenter\ada\Ada_Drivers_Library_j\boards\MicroBit_v2\obj\zfp_lib_Debug\libada_drivers_library.a(nrf-device.o)
                0x0000000020000664                nrf__device__p05
 .bss.nrf__device__p06
                0x000000002000066c        0x8 C:\Users\aditi.DESKTOP-49PGKM5\OneDrive - USN\Dokumenter\ada\Ada_Drivers_Library_j\boards\MicroBit_v2\obj\zfp_lib_Debug\libada_drivers_library.a(nrf-device.o)
                0x000000002000066c                nrf__device__p06
 .bss.nrf__device__p07
                0x0000000020000674        0x8 C:\Users\aditi.DESKTOP-49PGKM5\OneDrive - USN\Dokumenter\ada\Ada_Drivers_Library_j\boards\MicroBit_v2\obj\zfp_lib_Debug\libada_drivers_library.a(nrf-device.o)
                0x0000000020000674                nrf__device__p07
 .bss.nrf__device__p08
                0x000000002000067c        0x8 C:\Users\aditi.DESKTOP-49PGKM5\OneDrive - USN\Dokumenter\ada\Ada_Drivers_Library_j\boards\MicroBit_v2\obj\zfp_lib_Debug\libada_drivers_library.a(nrf-device.o)
                0x000000002000067c                nrf__device__p08
 .bss.nrf__device__p09
                0x0000000020000684        0x8 C:\Users\aditi.DESKTOP-49PGKM5\OneDrive - USN\Dokumenter\ada\Ada_Drivers_Library_j\boards\MicroBit_v2\obj\zfp_lib_Debug\libada_drivers_library.a(nrf-device.o)
                0x0000000020000684                nrf__device__p09
 .bss.nrf__device__p10
                0x000000002000068c        0x8 C:\Users\aditi.DESKTOP-49PGKM5\OneDrive - USN\Dokumenter\ada\Ada_Drivers_Library_j\boards\MicroBit_v2\obj\zfp_lib_Debug\libada_drivers_library.a(nrf-device.o)
                0x000000002000068c                nrf__device__p10
 .bss.nrf__device__p11
                0x0000000020000694        0x8 C:\Users\aditi.DESKTOP-49PGKM5\OneDrive - USN\Dokumenter\ada\Ada_Drivers_Library_j\boards\MicroBit_v2\obj\zfp_lib_Debug\libada_drivers_library.a(nrf-device.o)
                0x0000000020000694                nrf__device__p11
 .bss.nrf__device__p12
                0x000000002000069c        0x8 C:\Users\aditi.DESKTOP-49PGKM5\OneDrive - USN\Dokumenter\ada\Ada_Drivers_Library_j\boards\MicroBit_v2\obj\zfp_lib_Debug\libada_drivers_library.a(nrf-device.o)
                0x000000002000069c                nrf__device__p12
 .bss.nrf__device__p13
                0x00000000200006a4        0x8 C:\Users\aditi.DESKTOP-49PGKM5\OneDrive - USN\Dokumenter\ada\Ada_Drivers_Library_j\boards\MicroBit_v2\obj\zfp_lib_Debug\libada_drivers_library.a(nrf-device.o)
                0x00000000200006a4                nrf__device__p13
 .bss.nrf__device__p14
                0x00000000200006ac        0x8 C:\Users\aditi.DESKTOP-49PGKM5\OneDrive - USN\Dokumenter\ada\Ada_Drivers_Library_j\boards\MicroBit_v2\obj\zfp_lib_Debug\libada_drivers_library.a(nrf-device.o)
                0x00000000200006ac                nrf__device__p14
 .bss.nrf__device__p15
                0x00000000200006b4        0x8 C:\Users\aditi.DESKTOP-49PGKM5\OneDrive - USN\Dokumenter\ada\Ada_Drivers_Library_j\boards\MicroBit_v2\obj\zfp_lib_Debug\libada_drivers_library.a(nrf-device.o)
                0x00000000200006b4                nrf__device__p15
 .bss.nrf__device__p16
                0x00000000200006bc        0x8 C:\Users\aditi.DESKTOP-49PGKM5\OneDrive - USN\Dokumenter\ada\Ada_Drivers_Library_j\boards\MicroBit_v2\obj\zfp_lib_Debug\libada_drivers_library.a(nrf-device.o)
                0x00000000200006bc                nrf__device__p16
 .bss.nrf__device__p17
                0x00000000200006c4        0x8 C:\Users\aditi.DESKTOP-49PGKM5\OneDrive - USN\Dokumenter\ada\Ada_Drivers_Library_j\boards\MicroBit_v2\obj\zfp_lib_Debug\libada_drivers_library.a(nrf-device.o)
                0x00000000200006c4                nrf__device__p17
 .bss.nrf__device__p18
                0x00000000200006cc        0x8 C:\Users\aditi.DESKTOP-49PGKM5\OneDrive - USN\Dokumenter\ada\Ada_Drivers_Library_j\boards\MicroBit_v2\obj\zfp_lib_Debug\libada_drivers_library.a(nrf-device.o)
                0x00000000200006cc                nrf__device__p18
 .bss.nrf__device__p19
                0x00000000200006d4        0x8 C:\Users\aditi.DESKTOP-49PGKM5\OneDrive - USN\Dokumenter\ada\Ada_Drivers_Library_j\boards\MicroBit_v2\obj\zfp_lib_Debug\libada_drivers_library.a(nrf-device.o)
                0x00000000200006d4                nrf__device__p19
 .bss.nrf__device__p20
                0x00000000200006dc        0x8 C:\Users\aditi.DESKTOP-49PGKM5\OneDrive - USN\Dokumenter\ada\Ada_Drivers_Library_j\boards\MicroBit_v2\obj\zfp_lib_Debug\libada_drivers_library.a(nrf-device.o)
                0x00000000200006dc                nrf__device__p20
 .bss.nrf__device__p21
                0x00000000200006e4        0x8 C:\Users\aditi.DESKTOP-49PGKM5\OneDrive - USN\Dokumenter\ada\Ada_Drivers_Library_j\boards\MicroBit_v2\obj\zfp_lib_Debug\libada_drivers_library.a(nrf-device.o)
                0x00000000200006e4                nrf__device__p21
 .bss.nrf__device__p22
                0x00000000200006ec        0x8 C:\Users\aditi.DESKTOP-49PGKM5\OneDrive - USN\Dokumenter\ada\Ada_Drivers_Library_j\boards\MicroBit_v2\obj\zfp_lib_Debug\libada_drivers_library.a(nrf-device.o)
                0x00000000200006ec                nrf__device__p22
 .bss.nrf__device__p23
                0x00000000200006f4        0x8 C:\Users\aditi.DESKTOP-49PGKM5\OneDrive - USN\Dokumenter\ada\Ada_Drivers_Library_j\boards\MicroBit_v2\obj\zfp_lib_Debug\libada_drivers_library.a(nrf-device.o)
                0x00000000200006f4                nrf__device__p23
 .bss.nrf__device__p24
                0x00000000200006fc        0x8 C:\Users\aditi.DESKTOP-49PGKM5\OneDrive - USN\Dokumenter\ada\Ada_Drivers_Library_j\boards\MicroBit_v2\obj\zfp_lib_Debug\libada_drivers_library.a(nrf-device.o)
                0x00000000200006fc                nrf__device__p24
 .bss.nrf__device__p25
                0x0000000020000704        0x8 C:\Users\aditi.DESKTOP-49PGKM5\OneDrive - USN\Dokumenter\ada\Ada_Drivers_Library_j\boards\MicroBit_v2\obj\zfp_lib_Debug\libada_drivers_library.a(nrf-device.o)
                0x0000000020000704                nrf__device__p25
 .bss.nrf__device__p26
                0x000000002000070c        0x8 C:\Users\aditi.DESKTOP-49PGKM5\OneDrive - USN\Dokumenter\ada\Ada_Drivers_Library_j\boards\MicroBit_v2\obj\zfp_lib_Debug\libada_drivers_library.a(nrf-device.o)
                0x000000002000070c                nrf__device__p26
 .bss.nrf__device__p27
                0x0000000020000714        0x8 C:\Users\aditi.DESKTOP-49PGKM5\OneDrive - USN\Dokumenter\ada\Ada_Drivers_Library_j\boards\MicroBit_v2\obj\zfp_lib_Debug\libada_drivers_library.a(nrf-device.o)
                0x0000000020000714                nrf__device__p27
 .bss.nrf__device__p28
                0x000000002000071c        0x8 C:\Users\aditi.DESKTOP-49PGKM5\OneDrive - USN\Dokumenter\ada\Ada_Drivers_Library_j\boards\MicroBit_v2\obj\zfp_lib_Debug\libada_drivers_library.a(nrf-device.o)
                0x000000002000071c                nrf__device__p28
 .bss.nrf__device__p29
                0x0000000020000724        0x8 C:\Users\aditi.DESKTOP-49PGKM5\OneDrive - USN\Dokumenter\ada\Ada_Drivers_Library_j\boards\MicroBit_v2\obj\zfp_lib_Debug\libada_drivers_library.a(nrf-device.o)
                0x0000000020000724                nrf__device__p29
 .bss.nrf__device__p30
                0x000000002000072c        0x8 C:\Users\aditi.DESKTOP-49PGKM5\OneDrive - USN\Dokumenter\ada\Ada_Drivers_Library_j\boards\MicroBit_v2\obj\zfp_lib_Debug\libada_drivers_library.a(nrf-device.o)
                0x000000002000072c                nrf__device__p30
 .bss.nrf__device__p31
                0x0000000020000734        0x8 C:\Users\aditi.DESKTOP-49PGKM5\OneDrive - USN\Dokumenter\ada\Ada_Drivers_Library_j\boards\MicroBit_v2\obj\zfp_lib_Debug\libada_drivers_library.a(nrf-device.o)
                0x0000000020000734                nrf__device__p31
 .bss.nrf__device__p32
                0x000000002000073c        0x8 C:\Users\aditi.DESKTOP-49PGKM5\OneDrive - USN\Dokumenter\ada\Ada_Drivers_Library_j\boards\MicroBit_v2\obj\zfp_lib_Debug\libada_drivers_library.a(nrf-device.o)
                0x000000002000073c                nrf__device__p32
 .bss.nrf__device__p33
                0x0000000020000744        0x8 C:\Users\aditi.DESKTOP-49PGKM5\OneDrive - USN\Dokumenter\ada\Ada_Drivers_Library_j\boards\MicroBit_v2\obj\zfp_lib_Debug\libada_drivers_library.a(nrf-device.o)
                0x0000000020000744                nrf__device__p33
 .bss.nrf__device__p34
                0x000000002000074c        0x8 C:\Users\aditi.DESKTOP-49PGKM5\OneDrive - USN\Dokumenter\ada\Ada_Drivers_Library_j\boards\MicroBit_v2\obj\zfp_lib_Debug\libada_drivers_library.a(nrf-device.o)
                0x000000002000074c                nrf__device__p34
 .bss.nrf__device__p35
                0x0000000020000754        0x8 C:\Users\aditi.DESKTOP-49PGKM5\OneDrive - USN\Dokumenter\ada\Ada_Drivers_Library_j\boards\MicroBit_v2\obj\zfp_lib_Debug\libada_drivers_library.a(nrf-device.o)
                0x0000000020000754                nrf__device__p35
 .bss.nrf__device__p36
                0x000000002000075c        0x8 C:\Users\aditi.DESKTOP-49PGKM5\OneDrive - USN\Dokumenter\ada\Ada_Drivers_Library_j\boards\MicroBit_v2\obj\zfp_lib_Debug\libada_drivers_library.a(nrf-device.o)
                0x000000002000075c                nrf__device__p36
 .bss.nrf__device__p37
                0x0000000020000764        0x8 C:\Users\aditi.DESKTOP-49PGKM5\OneDrive - USN\Dokumenter\ada\Ada_Drivers_Library_j\boards\MicroBit_v2\obj\zfp_lib_Debug\libada_drivers_library.a(nrf-device.o)
                0x0000000020000764                nrf__device__p37
 .bss.nrf__device__p38
                0x000000002000076c        0x8 C:\Users\aditi.DESKTOP-49PGKM5\OneDrive - USN\Dokumenter\ada\Ada_Drivers_Library_j\boards\MicroBit_v2\obj\zfp_lib_Debug\libada_drivers_library.a(nrf-device.o)
                0x000000002000076c                nrf__device__p38
 .bss.nrf__device__p39
                0x0000000020000774        0x8 C:\Users\aditi.DESKTOP-49PGKM5\OneDrive - USN\Dokumenter\ada\Ada_Drivers_Library_j\boards\MicroBit_v2\obj\zfp_lib_Debug\libada_drivers_library.a(nrf-device.o)
                0x0000000020000774                nrf__device__p39
 .bss.nrf__device__p40
                0x000000002000077c        0x8 C:\Users\aditi.DESKTOP-49PGKM5\OneDrive - USN\Dokumenter\ada\Ada_Drivers_Library_j\boards\MicroBit_v2\obj\zfp_lib_Debug\libada_drivers_library.a(nrf-device.o)
                0x000000002000077c                nrf__device__p40
 .bss.nrf__device__p41
                0x0000000020000784        0x8 C:\Users\aditi.DESKTOP-49PGKM5\OneDrive - USN\Dokumenter\ada\Ada_Drivers_Library_j\boards\MicroBit_v2\obj\zfp_lib_Debug\libada_drivers_library.a(nrf-device.o)
                0x0000000020000784                nrf__device__p41
 .bss.nrf__device__p42
                0x000000002000078c        0x8 C:\Users\aditi.DESKTOP-49PGKM5\OneDrive - USN\Dokumenter\ada\Ada_Drivers_Library_j\boards\MicroBit_v2\obj\zfp_lib_Debug\libada_drivers_library.a(nrf-device.o)
                0x000000002000078c                nrf__device__p42
 .bss.nrf__device__p43
                0x0000000020000794        0x8 C:\Users\aditi.DESKTOP-49PGKM5\OneDrive - USN\Dokumenter\ada\Ada_Drivers_Library_j\boards\MicroBit_v2\obj\zfp_lib_Debug\libada_drivers_library.a(nrf-device.o)
                0x0000000020000794                nrf__device__p43
 .bss.nrf__device__p44
                0x000000002000079c        0x8 C:\Users\aditi.DESKTOP-49PGKM5\OneDrive - USN\Dokumenter\ada\Ada_Drivers_Library_j\boards\MicroBit_v2\obj\zfp_lib_Debug\libada_drivers_library.a(nrf-device.o)
                0x000000002000079c                nrf__device__p44
 .bss.nrf__device__p45
                0x00000000200007a4        0x8 C:\Users\aditi.DESKTOP-49PGKM5\OneDrive - USN\Dokumenter\ada\Ada_Drivers_Library_j\boards\MicroBit_v2\obj\zfp_lib_Debug\libada_drivers_library.a(nrf-device.o)
                0x00000000200007a4                nrf__device__p45
 .bss.nrf__device__p46
                0x00000000200007ac        0x8 C:\Users\aditi.DESKTOP-49PGKM5\OneDrive - USN\Dokumenter\ada\Ada_Drivers_Library_j\boards\MicroBit_v2\obj\zfp_lib_Debug\libada_drivers_library.a(nrf-device.o)
                0x00000000200007ac                nrf__device__p46
 .bss.nrf__device__p47
                0x00000000200007b4        0x8 C:\Users\aditi.DESKTOP-49PGKM5\OneDrive - USN\Dokumenter\ada\Ada_Drivers_Library_j\boards\MicroBit_v2\obj\zfp_lib_Debug\libada_drivers_library.a(nrf-device.o)
                0x00000000200007b4                nrf__device__p47
 .bss.nrf__device__rtc_0
                0x00000000200007bc        0x4 C:\Users\aditi.DESKTOP-49PGKM5\OneDrive - USN\Dokumenter\ada\Ada_Drivers_Library_j\boards\MicroBit_v2\obj\zfp_lib_Debug\libada_drivers_library.a(nrf-device.o)
                0x00000000200007bc                nrf__device__rtc_0
 .bss.nrf__device__rtc_1
                0x00000000200007c0        0x4 C:\Users\aditi.DESKTOP-49PGKM5\OneDrive - USN\Dokumenter\ada\Ada_Drivers_Library_j\boards\MicroBit_v2\obj\zfp_lib_Debug\libada_drivers_library.a(nrf-device.o)
                0x00000000200007c0                nrf__device__rtc_1
 .bss.nrf__device__rtc_2
                0x00000000200007c4        0x4 C:\Users\aditi.DESKTOP-49PGKM5\OneDrive - USN\Dokumenter\ada\Ada_Drivers_Library_j\boards\MicroBit_v2\obj\zfp_lib_Debug\libada_drivers_library.a(nrf-device.o)
                0x00000000200007c4                nrf__device__rtc_2
 .bss.nrf__device__twi_0
                0x00000000200007c8        0xc C:\Users\aditi.DESKTOP-49PGKM5\OneDrive - USN\Dokumenter\ada\Ada_Drivers_Library_j\boards\MicroBit_v2\obj\zfp_lib_Debug\libada_drivers_library.a(nrf-device.o)
                0x00000000200007c8                nrf__device__twi_0
 .bss.nrf__device__twi_1
                0x00000000200007d4        0xc C:\Users\aditi.DESKTOP-49PGKM5\OneDrive - USN\Dokumenter\ada\Ada_Drivers_Library_j\boards\MicroBit_v2\obj\zfp_lib_Debug\libada_drivers_library.a(nrf-device.o)
                0x00000000200007d4                nrf__device__twi_1
 .bss.nrf__device__spi_master_0
                0x00000000200007e0        0x8 C:\Users\aditi.DESKTOP-49PGKM5\OneDrive - USN\Dokumenter\ada\Ada_Drivers_Library_j\boards\MicroBit_v2\obj\zfp_lib_Debug\libada_drivers_library.a(nrf-device.o)
                0x00000000200007e0                nrf__device__spi_master_0
 .bss.nrf__device__spi_master_1
                0x00000000200007e8        0x8 C:\Users\aditi.DESKTOP-49PGKM5\OneDrive - USN\Dokumenter\ada\Ada_Drivers_Library_j\boards\MicroBit_v2\obj\zfp_lib_Debug\libada_drivers_library.a(nrf-device.o)
                0x00000000200007e8                nrf__device__spi_master_1
 .bss.nrf__device__spi_master_2
                0x00000000200007f0        0x8 C:\Users\aditi.DESKTOP-49PGKM5\OneDrive - USN\Dokumenter\ada\Ada_Drivers_Library_j\boards\MicroBit_v2\obj\zfp_lib_Debug\libada_drivers_library.a(nrf-device.o)
                0x00000000200007f0                nrf__device__spi_master_2
 .bss.nrf__device__timer_0
                0x00000000200007f8        0x8 C:\Users\aditi.DESKTOP-49PGKM5\OneDrive - USN\Dokumenter\ada\Ada_Drivers_Library_j\boards\MicroBit_v2\obj\zfp_lib_Debug\libada_drivers_library.a(nrf-device.o)
                0x00000000200007f8                nrf__device__timer_0
 .bss.nrf__device__timer_1
                0x0000000020000800        0x8 C:\Users\aditi.DESKTOP-49PGKM5\OneDrive - USN\Dokumenter\ada\Ada_Drivers_Library_j\boards\MicroBit_v2\obj\zfp_lib_Debug\libada_drivers_library.a(nrf-device.o)
                0x0000000020000800                nrf__device__timer_1
 .bss.nrf__device__timer_2
                0x0000000020000808        0x8 C:\Users\aditi.DESKTOP-49PGKM5\OneDrive - USN\Dokumenter\ada\Ada_Drivers_Library_j\boards\MicroBit_v2\obj\zfp_lib_Debug\libada_drivers_library.a(nrf-device.o)
                0x0000000020000808                nrf__device__timer_2
 .bss.nrf__device__timer_3
                0x0000000020000810        0x8 C:\Users\aditi.DESKTOP-49PGKM5\OneDrive - USN\Dokumenter\ada\Ada_Drivers_Library_j\boards\MicroBit_v2\obj\zfp_lib_Debug\libada_drivers_library.a(nrf-device.o)
                0x0000000020000810                nrf__device__timer_3
 .bss.nrf__device__timer_4
                0x0000000020000818        0x8 C:\Users\aditi.DESKTOP-49PGKM5\OneDrive - USN\Dokumenter\ada\Ada_Drivers_Library_j\boards\MicroBit_v2\obj\zfp_lib_Debug\libada_drivers_library.a(nrf-device.o)
                0x0000000020000818                nrf__device__timer_4
 .bss.nrf__device__uart_0
                0x0000000020000820        0xc C:\Users\aditi.DESKTOP-49PGKM5\OneDrive - USN\Dokumenter\ada\Ada_Drivers_Library_j\boards\MicroBit_v2\obj\zfp_lib_Debug\libada_drivers_library.a(nrf-device.o)
                0x0000000020000820                nrf__device__uart_0
 .bss           0x000000002000082c        0x0 C:\Users\aditi.DESKTOP-49PGKM5\OneDrive - USN\Dokumenter\ada\Ada_Drivers_Library_j\boards\MicroBit_v2\obj\zfp_lib_Debug\libada_drivers_library.a(nrf-events.o)
 .bss           0x000000002000082c        0x0 C:\Users\aditi.DESKTOP-49PGKM5\OneDrive - USN\Dokumenter\ada\Ada_Drivers_Library_j\boards\MicroBit_v2\obj\zfp_lib_Debug\libada_drivers_library.a(nrf-gpio.o)
 .bss           0x000000002000082c        0x0 C:\Users\aditi.DESKTOP-49PGKM5\OneDrive - USN\Dokumenter\ada\Ada_Drivers_Library_j\boards\MicroBit_v2\obj\zfp_lib_Debug\libada_drivers_library.a(nrf-interrupts.o)
 .bss           0x000000002000082c        0x0 C:\Users\aditi.DESKTOP-49PGKM5\OneDrive - USN\Dokumenter\ada\Ada_Drivers_Library_j\boards\MicroBit_v2\obj\zfp_lib_Debug\libada_drivers_library.a(nrf-radio.o)
 .bss.nrf__radio__group
                0x000000002000082c        0x1 C:\Users\aditi.DESKTOP-49PGKM5\OneDrive - USN\Dokumenter\ada\Ada_Drivers_Library_j\boards\MicroBit_v2\obj\zfp_lib_Debug\libada_drivers_library.a(nrf-radio.o)
                0x000000002000082c                nrf__radio__group
 .bss.nrf__radio__rssi
                0x000000002000082d        0x1 C:\Users\aditi.DESKTOP-49PGKM5\OneDrive - USN\Dokumenter\ada\Ada_Drivers_Library_j\boards\MicroBit_v2\obj\zfp_lib_Debug\libada_drivers_library.a(nrf-radio.o)
                0x000000002000082d                nrf__radio__rssi
 .bss           0x000000002000082e        0x0 C:\Users\aditi.DESKTOP-49PGKM5\OneDrive - USN\Dokumenter\ada\Ada_Drivers_Library_j\boards\MicroBit_v2\obj\zfp_lib_Debug\libada_drivers_library.a(nrf-rtc.o)
 .bss           0x000000002000082e        0x0 C:\Users\aditi.DESKTOP-49PGKM5\OneDrive - USN\Dokumenter\ada\Ada_Drivers_Library_j\boards\MicroBit_v2\obj\zfp_lib_Debug\libada_drivers_library.a(nrf-spi_master.o)
 .bss           0x000000002000082e        0x0 C:\Users\aditi.DESKTOP-49PGKM5\OneDrive - USN\Dokumenter\ada\Ada_Drivers_Library_j\boards\MicroBit_v2\obj\zfp_lib_Debug\libada_drivers_library.a(nrf-tasks.o)
 .bss           0x000000002000082e        0x0 C:\Users\aditi.DESKTOP-49PGKM5\OneDrive - USN\Dokumenter\ada\Ada_Drivers_Library_j\boards\MicroBit_v2\obj\zfp_lib_Debug\libada_drivers_library.a(nrf-timers.o)
 .bss           0x000000002000082e        0x0 C:\Users\aditi.DESKTOP-49PGKM5\OneDrive - USN\Dokumenter\ada\Ada_Drivers_Library_j\boards\MicroBit_v2\obj\zfp_lib_Debug\libada_drivers_library.a(nrf-twi.o)
 .bss           0x000000002000082e        0x0 C:\Users\aditi.DESKTOP-49PGKM5\OneDrive - USN\Dokumenter\ada\Ada_Drivers_Library_j\boards\MicroBit_v2\obj\zfp_lib_Debug\libada_drivers_library.a(nrf-uart.o)
 .bss           0x000000002000082e        0x0 C:\Users\aditi.DESKTOP-49PGKM5\OneDrive - USN\Dokumenter\ada\Ada_Drivers_Library_j\boards\MicroBit_v2\obj\zfp_lib_Debug\libada_drivers_library.a(nrf_svd-gpio.o)
 .bss           0x000000002000082e        0x0 C:\Users\aditi.DESKTOP-49PGKM5\OneDrive - USN\Dokumenter\ada\Ada_Drivers_Library_j\boards\MicroBit_v2\obj\zfp_lib_Debug\libada_drivers_library.a(nrf_svd-radio.o)
 .bss           0x000000002000082e        0x0 C:\Users\aditi.DESKTOP-49PGKM5\OneDrive - USN\Dokumenter\ada\Ada_Drivers_Library_j\boards\MicroBit_v2\obj\zfp_lib_Debug\libada_drivers_library.a(nrf_svd-twi.o)
 .bss           0x000000002000082e        0x0 C:\Users\aditi.DESKTOP-49PGKM5\OneDrive - USN\Dokumenter\ada\Ada_Drivers_Library_j\boards\MicroBit_v2\obj\zfp_lib_Debug\libada_drivers_library.a(hal-gpio.o)
 .bss           0x000000002000082e        0x0 C:\Users\aditi.DESKTOP-49PGKM5\OneDrive - USN\Dokumenter\ada\Ada_Drivers_Library_j\boards\MicroBit_v2\obj\zfp_lib_Debug\libada_drivers_library.a(hal-i2c.o)
 .bss           0x000000002000082e        0x0 C:\Users\aditi.DESKTOP-49PGKM5\OneDrive - USN\Dokumenter\ada\Ada_Drivers_Library_j\boards\MicroBit_v2\obj\zfp_lib_Debug\libada_drivers_library.a(hal-spi.o)
 .bss           0x000000002000082e        0x0 C:\Users\aditi.DESKTOP-49PGKM5\OneDrive - USN\Dokumenter\ada\Ada_Drivers_Library_j\boards\MicroBit_v2\obj\zfp_lib_Debug\libada_drivers_library.a(hal-time.o)
 .bss           0x000000002000082e        0x0 C:\Users\aditi.DESKTOP-49PGKM5\OneDrive - USN\Dokumenter\ada\Ada_Drivers_Library_j\boards\MicroBit_v2\obj\zfp_lib_Debug\libada_drivers_library.a(hal-uart.o)
 .bss           0x000000002000082e        0x0 C:\gnat\2021-arm-elf\arm-eabi\lib\gnat\zfp-cortex-m4f\adalib\libgnat.a(a-elchha.o)
 .bss           0x000000002000082e        0x0 C:\gnat\2021-arm-elf\arm-eabi\lib\gnat\zfp-cortex-m4f\adalib\libgnat.a(g-io.o)
 .bss           0x000000002000082e        0x0 C:\gnat\2021-arm-elf\arm-eabi\lib\gnat\zfp-cortex-m4f\adalib\libgnat.a(s-assert.o)
 .bss           0x000000002000082e        0x0 C:\gnat\2021-arm-elf\arm-eabi\lib\gnat\zfp-cortex-m4f\adalib\libgnat.a(s-imglli.o)
 .bss           0x000000002000082e        0x0 C:\gnat\2021-arm-elf\arm-eabi\lib\gnat\zfp-cortex-m4f\adalib\libgnat.a(s-imguns.o)
 .bss           0x000000002000082e        0x0 C:\gnat\2021-arm-elf\arm-eabi\lib\gnat\zfp-cortex-m4f\adalib\libgnat.a(s-macres.o)
 .bss           0x000000002000082e        0x0 C:\gnat\2021-arm-elf\arm-eabi\lib\gnat\zfp-cortex-m4f\adalib\libgnat.a(s-memcom.o)
 .bss           0x000000002000082e        0x0 C:\gnat\2021-arm-elf\arm-eabi\lib\gnat\zfp-cortex-m4f\adalib\libgnat.a(s-memcop.o)
 .bss           0x000000002000082e        0x0 C:\gnat\2021-arm-elf\arm-eabi\lib\gnat\zfp-cortex-m4f\adalib\libgnat.a(s-memmov.o)
 .bss           0x000000002000082e        0x0 C:\gnat\2021-arm-elf\arm-eabi\lib\gnat\zfp-cortex-m4f\adalib\libgnat.a(s-memset.o)
 .bss           0x000000002000082e        0x0 C:\gnat\2021-arm-elf\arm-eabi\lib\gnat\zfp-cortex-m4f\adalib\libgnat.a(s-secsta.o)
 *fill*         0x000000002000082e        0x2 
 .bss.__gnat_binder_ss_count
                0x0000000020000830        0x4 C:\gnat\2021-arm-elf\arm-eabi\lib\gnat\zfp-cortex-m4f\adalib\libgnat.a(s-secsta.o)
                0x0000000020000830                __gnat_binder_ss_count
 .bss.__gnat_default_ss_pool
                0x0000000020000834        0x4 C:\gnat\2021-arm-elf\arm-eabi\lib\gnat\zfp-cortex-m4f\adalib\libgnat.a(s-secsta.o)
                0x0000000020000834                __gnat_default_ss_pool
 .bss.__gnat_default_ss_size
                0x0000000020000838        0x4 C:\gnat\2021-arm-elf\arm-eabi\lib\gnat\zfp-cortex-m4f\adalib\libgnat.a(s-secsta.o)
                0x0000000020000838                __gnat_default_ss_size
 .bss.system__secondary_stack__ss_pool
                0x000000002000083c        0x4 C:\gnat\2021-arm-elf\arm-eabi\lib\gnat\zfp-cortex-m4f\adalib\libgnat.a(s-secsta.o)
                0x000000002000083c                system__secondary_stack__ss_pool
 .bss           0x0000000020000840        0x0 C:\gnat\2021-arm-elf\arm-eabi\lib\gnat\zfp-cortex-m4f\adalib\libgnat.a(s-sssita.o)
 .bss           0x0000000020000840        0x0 C:\gnat\2021-arm-elf\arm-eabi\lib\gnat\zfp-cortex-m4f\adalib\libgnat.a(s-textio.o)
 .bss           0x0000000020000840        0x0 C:\gnat\2021-arm-elf\arm-eabi\lib\gnat\zfp-cortex-m4f\adalib\libgnat.a(a-assert.o)
 .bss           0x0000000020000840        0x0 C:\gnat\2021-arm-elf\arm-eabi\lib\gnat\zfp-cortex-m4f\adalib\libgnat.a(a-except.o)
 .bss           0x0000000020000840        0x0 C:\gnat\2021-arm-elf\arm-eabi\lib\gnat\zfp-cortex-m4f\adalib\libgnat.a(s-semiho.o)
 .bss.system__semihosting__buffer
                0x0000000020000840       0x80 C:\gnat\2021-arm-elf\arm-eabi\lib\gnat\zfp-cortex-m4f\adalib\libgnat.a(s-semiho.o)
 .bss           0x00000000200008c0        0x0 c:/gnat/2021-arm-elf/bin/../lib/gcc/arm-eabi/10.3.1/thumb/v7e-m/fpv4-sp/hard\libgcc.a(_aeabi_ldivmod.o)
 .bss           0x00000000200008c0        0x0 c:/gnat/2021-arm-elf/bin/../lib/gcc/arm-eabi/10.3.1/thumb/v7e-m/fpv4-sp/hard\libgcc.a(_udivmoddi4.o)
 .bss           0x00000000200008c0        0x0 c:/gnat/2021-arm-elf/bin/../lib/gcc/arm-eabi/10.3.1/thumb/v7e-m/fpv4-sp/hard\libgcc.a(_dvmd_tls.o)
 *(COMMON)
                0x00000000200008c0                . = ALIGN (0x8)
                0x00000000200008c0                __bss_end = .
                0x00000000200008c0                __interrupt_stack_start = .
 *(.interrupt_stacks)
                0x00000000200008c0                . = ALIGN (0x8)
                0x00000000200008c0                __interrupt_stack_end = .
                0x00000000200008c0                __stack_start = .
                0x00000000200018c0                . = (. + DEFINED (__stack_size)?__stack_size:_DEFAULT_STACK_SIZE)
 *fill*         0x00000000200008c0     0x1000 
                0x00000000200018c0                . = ALIGN (0x8)
                0x00000000200018c0                __stack_end = .
                0x00000000200018c0                _end = .
                0x00000000200018c0                __heap_start = .
                0x0000000020020000                __heap_end = (ORIGIN (ram) + LENGTH (ram))
                0x0000000000000140                __bss_words = ((__bss_end - __bss_start) >> 0x2)

.debug
 *(.debug)

.line
 *(.line)

.debug_srcinfo
 *(.debug_srcinfo)

.debug_sfnames
 *(.debug_sfnames)

.debug_aranges  0x0000000000000000      0xac8
 *(.debug_aranges)
 .debug_aranges
                0x0000000000000000       0x78 C:\Users\aditi.DESKTOP-49PGKM5\OneDrive - USN\Dokumenter\ada\Ada_Drivers_Library_j\boards\MicroBit_v2\obj\zfp_lib_Debug\libada_drivers_library.a(cortex_m-nvic.o)
 .debug_aranges
                0x0000000000000078       0x50 C:\Users\aditi.DESKTOP-49PGKM5\OneDrive - USN\Dokumenter\ada\Ada_Drivers_Library_j\boards\MicroBit_v2\obj\zfp_lib_Debug\libada_drivers_library.a(dfr0548.o)
 .debug_aranges
                0x00000000000000c8       0x20 C:\Users\aditi.DESKTOP-49PGKM5\OneDrive - USN\Dokumenter\ada\Ada_Drivers_Library_j\boards\MicroBit_v2\obj\zfp_lib_Debug\libada_drivers_library.a(memory_barriers.o)
 .debug_aranges
                0x00000000000000e8       0x48 C:\Users\aditi.DESKTOP-49PGKM5\OneDrive - USN\Dokumenter\ada\Ada_Drivers_Library_j\boards\MicroBit_v2\obj\zfp_lib_Debug\libada_drivers_library.a(microbit-console.o)
 .debug_aranges
                0x0000000000000130       0x60 C:\Users\aditi.DESKTOP-49PGKM5\OneDrive - USN\Dokumenter\ada\Ada_Drivers_Library_j\boards\MicroBit_v2\obj\zfp_lib_Debug\libada_drivers_library.a(microbit-display-symbols.o)
 .debug_aranges
                0x0000000000000190       0x88 C:\Users\aditi.DESKTOP-49PGKM5\OneDrive - USN\Dokumenter\ada\Ada_Drivers_Library_j\boards\MicroBit_v2\obj\zfp_lib_Debug\libada_drivers_library.a(microbit-display.o)
 .debug_aranges
                0x0000000000000218       0x58 C:\Users\aditi.DESKTOP-49PGKM5\OneDrive - USN\Dokumenter\ada\Ada_Drivers_Library_j\boards\MicroBit_v2\obj\zfp_lib_Debug\libada_drivers_library.a(microbit-i2c.o)
 .debug_aranges
                0x0000000000000270       0x40 C:\Users\aditi.DESKTOP-49PGKM5\OneDrive - USN\Dokumenter\ada\Ada_Drivers_Library_j\boards\MicroBit_v2\obj\zfp_lib_Debug\libada_drivers_library.a(microbit-motordriver.o)
 .debug_aranges
                0x00000000000002b0       0x78 C:\Users\aditi.DESKTOP-49PGKM5\OneDrive - USN\Dokumenter\ada\Ada_Drivers_Library_j\boards\MicroBit_v2\obj\zfp_lib_Debug\libada_drivers_library.a(microbit-radio.o)
 .debug_aranges
                0x0000000000000328       0x30 C:\Users\aditi.DESKTOP-49PGKM5\OneDrive - USN\Dokumenter\ada\Ada_Drivers_Library_j\boards\MicroBit_v2\obj\zfp_lib_Debug\libada_drivers_library.a(microbit-time-highspeed.o)
 .debug_aranges
                0x0000000000000358       0x98 C:\Users\aditi.DESKTOP-49PGKM5\OneDrive - USN\Dokumenter\ada\Ada_Drivers_Library_j\boards\MicroBit_v2\obj\zfp_lib_Debug\libada_drivers_library.a(microbit-time.o)
 .debug_aranges
                0x00000000000003f0       0x70 C:\Users\aditi.DESKTOP-49PGKM5\OneDrive - USN\Dokumenter\ada\Ada_Drivers_Library_j\boards\MicroBit_v2\obj\zfp_lib_Debug\libada_drivers_library.a(nrf-clock.o)
 .debug_aranges
                0x0000000000000460       0x80 C:\Users\aditi.DESKTOP-49PGKM5\OneDrive - USN\Dokumenter\ada\Ada_Drivers_Library_j\boards\MicroBit_v2\obj\zfp_lib_Debug\libada_drivers_library.a(nrf-device.o)
 .debug_aranges
                0x00000000000004e0       0x48 C:\Users\aditi.DESKTOP-49PGKM5\OneDrive - USN\Dokumenter\ada\Ada_Drivers_Library_j\boards\MicroBit_v2\obj\zfp_lib_Debug\libada_drivers_library.a(nrf-events.o)
 .debug_aranges
                0x0000000000000528       0x68 C:\Users\aditi.DESKTOP-49PGKM5\OneDrive - USN\Dokumenter\ada\Ada_Drivers_Library_j\boards\MicroBit_v2\obj\zfp_lib_Debug\libada_drivers_library.a(nrf-gpio.o)
 .debug_aranges
                0x0000000000000590       0x48 C:\Users\aditi.DESKTOP-49PGKM5\OneDrive - USN\Dokumenter\ada\Ada_Drivers_Library_j\boards\MicroBit_v2\obj\zfp_lib_Debug\libada_drivers_library.a(nrf-interrupts.o)
 .debug_aranges
                0x00000000000005d8       0xf8 C:\Users\aditi.DESKTOP-49PGKM5\OneDrive - USN\Dokumenter\ada\Ada_Drivers_Library_j\boards\MicroBit_v2\obj\zfp_lib_Debug\libada_drivers_library.a(nrf-radio.o)
 .debug_aranges
                0x00000000000006d0       0x60 C:\Users\aditi.DESKTOP-49PGKM5\OneDrive - USN\Dokumenter\ada\Ada_Drivers_Library_j\boards\MicroBit_v2\obj\zfp_lib_Debug\libada_drivers_library.a(nrf-rtc.o)
 .debug_aranges
                0x0000000000000730       0x78 C:\Users\aditi.DESKTOP-49PGKM5\OneDrive - USN\Dokumenter\ada\Ada_Drivers_Library_j\boards\MicroBit_v2\obj\zfp_lib_Debug\libada_drivers_library.a(nrf-spi_master.o)
 .debug_aranges
                0x00000000000007a8       0x30 C:\Users\aditi.DESKTOP-49PGKM5\OneDrive - USN\Dokumenter\ada\Ada_Drivers_Library_j\boards\MicroBit_v2\obj\zfp_lib_Debug\libada_drivers_library.a(nrf-tasks.o)
 .debug_aranges
                0x00000000000007d8       0xb8 C:\Users\aditi.DESKTOP-49PGKM5\OneDrive - USN\Dokumenter\ada\Ada_Drivers_Library_j\boards\MicroBit_v2\obj\zfp_lib_Debug\libada_drivers_library.a(nrf-timers.o)
 .debug_aranges
                0x0000000000000890       0x70 C:\Users\aditi.DESKTOP-49PGKM5\OneDrive - USN\Dokumenter\ada\Ada_Drivers_Library_j\boards\MicroBit_v2\obj\zfp_lib_Debug\libada_drivers_library.a(nrf-twi.o)
 .debug_aranges
                0x0000000000000900       0x68 C:\Users\aditi.DESKTOP-49PGKM5\OneDrive - USN\Dokumenter\ada\Ada_Drivers_Library_j\boards\MicroBit_v2\obj\zfp_lib_Debug\libada_drivers_library.a(nrf-uart.o)
 .debug_aranges
                0x0000000000000968       0x18 C:\Users\aditi.DESKTOP-49PGKM5\OneDrive - USN\Dokumenter\ada\Ada_Drivers_Library_j\boards\MicroBit_v2\obj\zfp_lib_Debug\libada_drivers_library.a(nrf_svd-gpio.o)
 .debug_aranges
                0x0000000000000980       0x18 C:\Users\aditi.DESKTOP-49PGKM5\OneDrive - USN\Dokumenter\ada\Ada_Drivers_Library_j\boards\MicroBit_v2\obj\zfp_lib_Debug\libada_drivers_library.a(nrf_svd-radio.o)
 .debug_aranges
                0x0000000000000998       0x18 C:\Users\aditi.DESKTOP-49PGKM5\OneDrive - USN\Dokumenter\ada\Ada_Drivers_Library_j\boards\MicroBit_v2\obj\zfp_lib_Debug\libada_drivers_library.a(nrf_svd-twi.o)
 .debug_aranges
                0x00000000000009b0       0x18 C:\Users\aditi.DESKTOP-49PGKM5\OneDrive - USN\Dokumenter\ada\Ada_Drivers_Library_j\boards\MicroBit_v2\obj\zfp_lib_Debug\libada_drivers_library.a(hal-gpio.o)
 .debug_aranges
                0x00000000000009c8       0x18 C:\Users\aditi.DESKTOP-49PGKM5\OneDrive - USN\Dokumenter\ada\Ada_Drivers_Library_j\boards\MicroBit_v2\obj\zfp_lib_Debug\libada_drivers_library.a(hal-i2c.o)
 .debug_aranges
                0x00000000000009e0       0x18 C:\Users\aditi.DESKTOP-49PGKM5\OneDrive - USN\Dokumenter\ada\Ada_Drivers_Library_j\boards\MicroBit_v2\obj\zfp_lib_Debug\libada_drivers_library.a(hal-spi.o)
 .debug_aranges
                0x00000000000009f8       0x18 C:\Users\aditi.DESKTOP-49PGKM5\OneDrive - USN\Dokumenter\ada\Ada_Drivers_Library_j\boards\MicroBit_v2\obj\zfp_lib_Debug\libada_drivers_library.a(hal-time.o)
 .debug_aranges
                0x0000000000000a10       0x18 C:\Users\aditi.DESKTOP-49PGKM5\OneDrive - USN\Dokumenter\ada\Ada_Drivers_Library_j\boards\MicroBit_v2\obj\zfp_lib_Debug\libada_drivers_library.a(hal-uart.o)
 .debug_aranges
                0x0000000000000a28       0x20 C:\gnat\2021-arm-elf\arm-eabi\lib\gnat\zfp-cortex-m4f\adalib\libgnat.a(s-assert.o)
 .debug_aranges
                0x0000000000000a48       0x20 C:\gnat\2021-arm-elf\arm-eabi\lib\gnat\zfp-cortex-m4f\adalib\libgnat.a(a-except.o)
 .debug_aranges
                0x0000000000000a68       0x20 c:/gnat/2021-arm-elf/bin/../lib/gcc/arm-eabi/10.3.1/thumb/v7e-m/fpv4-sp/hard\libgcc.a(_aeabi_ldivmod.o)
 .debug_aranges
                0x0000000000000a88       0x20 c:/gnat/2021-arm-elf/bin/../lib/gcc/arm-eabi/10.3.1/thumb/v7e-m/fpv4-sp/hard\libgcc.a(_udivmoddi4.o)
 .debug_aranges
                0x0000000000000aa8       0x20 c:/gnat/2021-arm-elf/bin/../lib/gcc/arm-eabi/10.3.1/thumb/v7e-m/fpv4-sp/hard\libgcc.a(_dvmd_tls.o)

.debug_pubnames
 *(.debug_pubnames)

.debug_info     0x0000000000000000    0x11cee
 *(.debug_info .gnu.linkonce.wi.*)
 .debug_info    0x0000000000000000      0xb01 C:\Users\aditi.DESKTOP-49PGKM5\OneDrive - USN\Dokumenter\ada\Ada_Drivers_Library_j\boards\MicroBit_v2\obj\zfp_lib_Debug\libada_drivers_library.a(cortex_m-nvic.o)
 .debug_info    0x0000000000000b01      0x794 C:\Users\aditi.DESKTOP-49PGKM5\OneDrive - USN\Dokumenter\ada\Ada_Drivers_Library_j\boards\MicroBit_v2\obj\zfp_lib_Debug\libada_drivers_library.a(dfr0548.o)
 .debug_info    0x0000000000001295       0x44 C:\Users\aditi.DESKTOP-49PGKM5\OneDrive - USN\Dokumenter\ada\Ada_Drivers_Library_j\boards\MicroBit_v2\obj\zfp_lib_Debug\libada_drivers_library.a(memory_barriers.o)
 .debug_info    0x00000000000012d9      0xe5b C:\Users\aditi.DESKTOP-49PGKM5\OneDrive - USN\Dokumenter\ada\Ada_Drivers_Library_j\boards\MicroBit_v2\obj\zfp_lib_Debug\libada_drivers_library.a(microbit-console.o)
 .debug_info    0x0000000000002134       0xcf C:\Users\aditi.DESKTOP-49PGKM5\OneDrive - USN\Dokumenter\ada\Ada_Drivers_Library_j\boards\MicroBit_v2\obj\zfp_lib_Debug\libada_drivers_library.a(microbit-display-symbols.o)
 .debug_info    0x0000000000002203      0x814 C:\Users\aditi.DESKTOP-49PGKM5\OneDrive - USN\Dokumenter\ada\Ada_Drivers_Library_j\boards\MicroBit_v2\obj\zfp_lib_Debug\libada_drivers_library.a(microbit-display.o)
 .debug_info    0x0000000000002a17      0xbac C:\Users\aditi.DESKTOP-49PGKM5\OneDrive - USN\Dokumenter\ada\Ada_Drivers_Library_j\boards\MicroBit_v2\obj\zfp_lib_Debug\libada_drivers_library.a(microbit-i2c.o)
 .debug_info    0x00000000000035c3      0x395 C:\Users\aditi.DESKTOP-49PGKM5\OneDrive - USN\Dokumenter\ada\Ada_Drivers_Library_j\boards\MicroBit_v2\obj\zfp_lib_Debug\libada_drivers_library.a(microbit-motordriver.o)
 .debug_info    0x0000000000003958      0x474 C:\Users\aditi.DESKTOP-49PGKM5\OneDrive - USN\Dokumenter\ada\Ada_Drivers_Library_j\boards\MicroBit_v2\obj\zfp_lib_Debug\libada_drivers_library.a(microbit-radio.o)
 .debug_info    0x0000000000003dcc       0xdf C:\Users\aditi.DESKTOP-49PGKM5\OneDrive - USN\Dokumenter\ada\Ada_Drivers_Library_j\boards\MicroBit_v2\obj\zfp_lib_Debug\libada_drivers_library.a(microbit-time-highspeed.o)
 .debug_info    0x0000000000003eab      0x542 C:\Users\aditi.DESKTOP-49PGKM5\OneDrive - USN\Dokumenter\ada\Ada_Drivers_Library_j\boards\MicroBit_v2\obj\zfp_lib_Debug\libada_drivers_library.a(microbit-time.o)
 .debug_info    0x00000000000043ed      0x1ee C:\Users\aditi.DESKTOP-49PGKM5\OneDrive - USN\Dokumenter\ada\Ada_Drivers_Library_j\boards\MicroBit_v2\obj\zfp_lib_Debug\libada_drivers_library.a(nrf-clock.o)
 .debug_info    0x00000000000045db     0x3090 C:\Users\aditi.DESKTOP-49PGKM5\OneDrive - USN\Dokumenter\ada\Ada_Drivers_Library_j\boards\MicroBit_v2\obj\zfp_lib_Debug\libada_drivers_library.a(nrf-device.o)
 .debug_info    0x000000000000766b      0xa5b C:\Users\aditi.DESKTOP-49PGKM5\OneDrive - USN\Dokumenter\ada\Ada_Drivers_Library_j\boards\MicroBit_v2\obj\zfp_lib_Debug\libada_drivers_library.a(nrf-events.o)
 .debug_info    0x00000000000080c6      0x6bd C:\Users\aditi.DESKTOP-49PGKM5\OneDrive - USN\Dokumenter\ada\Ada_Drivers_Library_j\boards\MicroBit_v2\obj\zfp_lib_Debug\libada_drivers_library.a(nrf-gpio.o)
 .debug_info    0x0000000000008783      0x30f C:\Users\aditi.DESKTOP-49PGKM5\OneDrive - USN\Dokumenter\ada\Ada_Drivers_Library_j\boards\MicroBit_v2\obj\zfp_lib_Debug\libada_drivers_library.a(nrf-interrupts.o)
 .debug_info    0x0000000000008a92      0xa59 C:\Users\aditi.DESKTOP-49PGKM5\OneDrive - USN\Dokumenter\ada\Ada_Drivers_Library_j\boards\MicroBit_v2\obj\zfp_lib_Debug\libada_drivers_library.a(nrf-radio.o)
 .debug_info    0x00000000000094eb      0xcd7 C:\Users\aditi.DESKTOP-49PGKM5\OneDrive - USN\Dokumenter\ada\Ada_Drivers_Library_j\boards\MicroBit_v2\obj\zfp_lib_Debug\libada_drivers_library.a(nrf-rtc.o)
 .debug_info    0x000000000000a1c2      0xdb7 C:\Users\aditi.DESKTOP-49PGKM5\OneDrive - USN\Dokumenter\ada\Ada_Drivers_Library_j\boards\MicroBit_v2\obj\zfp_lib_Debug\libada_drivers_library.a(nrf-spi_master.o)
 .debug_info    0x000000000000af79      0xaee C:\Users\aditi.DESKTOP-49PGKM5\OneDrive - USN\Dokumenter\ada\Ada_Drivers_Library_j\boards\MicroBit_v2\obj\zfp_lib_Debug\libada_drivers_library.a(nrf-tasks.o)
 .debug_info    0x000000000000ba67      0xda9 C:\Users\aditi.DESKTOP-49PGKM5\OneDrive - USN\Dokumenter\ada\Ada_Drivers_Library_j\boards\MicroBit_v2\obj\zfp_lib_Debug\libada_drivers_library.a(nrf-timers.o)
 .debug_info    0x000000000000c810      0xfc4 C:\Users\aditi.DESKTOP-49PGKM5\OneDrive - USN\Dokumenter\ada\Ada_Drivers_Library_j\boards\MicroBit_v2\obj\zfp_lib_Debug\libada_drivers_library.a(nrf-twi.o)
 .debug_info    0x000000000000d7d4      0xfbd C:\Users\aditi.DESKTOP-49PGKM5\OneDrive - USN\Dokumenter\ada\Ada_Drivers_Library_j\boards\MicroBit_v2\obj\zfp_lib_Debug\libada_drivers_library.a(nrf-uart.o)
 .debug_info    0x000000000000e791      0x853 C:\Users\aditi.DESKTOP-49PGKM5\OneDrive - USN\Dokumenter\ada\Ada_Drivers_Library_j\boards\MicroBit_v2\obj\zfp_lib_Debug\libada_drivers_library.a(nrf_svd-gpio.o)
 .debug_info    0x000000000000efe4     0x17ad C:\Users\aditi.DESKTOP-49PGKM5\OneDrive - USN\Dokumenter\ada\Ada_Drivers_Library_j\boards\MicroBit_v2\obj\zfp_lib_Debug\libada_drivers_library.a(nrf_svd-radio.o)
 .debug_info    0x0000000000010791      0x86d C:\Users\aditi.DESKTOP-49PGKM5\OneDrive - USN\Dokumenter\ada\Ada_Drivers_Library_j\boards\MicroBit_v2\obj\zfp_lib_Debug\libada_drivers_library.a(nrf_svd-twi.o)
 .debug_info    0x0000000000010ffe       0x3a C:\Users\aditi.DESKTOP-49PGKM5\OneDrive - USN\Dokumenter\ada\Ada_Drivers_Library_j\boards\MicroBit_v2\obj\zfp_lib_Debug\libada_drivers_library.a(hal-gpio.o)
 .debug_info    0x0000000000011038       0x5d C:\Users\aditi.DESKTOP-49PGKM5\OneDrive - USN\Dokumenter\ada\Ada_Drivers_Library_j\boards\MicroBit_v2\obj\zfp_lib_Debug\libada_drivers_library.a(hal-i2c.o)
 .debug_info    0x0000000000011095       0x56 C:\Users\aditi.DESKTOP-49PGKM5\OneDrive - USN\Dokumenter\ada\Ada_Drivers_Library_j\boards\MicroBit_v2\obj\zfp_lib_Debug\libada_drivers_library.a(hal-spi.o)
 .debug_info    0x00000000000110eb       0x3a C:\Users\aditi.DESKTOP-49PGKM5\OneDrive - USN\Dokumenter\ada\Ada_Drivers_Library_j\boards\MicroBit_v2\obj\zfp_lib_Debug\libada_drivers_library.a(hal-time.o)
 .debug_info    0x0000000000011125       0x4f C:\Users\aditi.DESKTOP-49PGKM5\OneDrive - USN\Dokumenter\ada\Ada_Drivers_Library_j\boards\MicroBit_v2\obj\zfp_lib_Debug\libada_drivers_library.a(hal-uart.o)
 .debug_info    0x0000000000011174      0x1af C:\gnat\2021-arm-elf\arm-eabi\lib\gnat\zfp-cortex-m4f\adalib\libgnat.a(s-assert.o)
 .debug_info    0x0000000000011323      0x268 C:\gnat\2021-arm-elf\arm-eabi\lib\gnat\zfp-cortex-m4f\adalib\libgnat.a(a-except.o)
 .debug_info    0x000000000001158b       0x26 c:/gnat/2021-arm-elf/bin/../lib/gcc/arm-eabi/10.3.1/thumb/v7e-m/fpv4-sp/hard\libgcc.a(_aeabi_ldivmod.o)
 .debug_info    0x00000000000115b1      0x717 c:/gnat/2021-arm-elf/bin/../lib/gcc/arm-eabi/10.3.1/thumb/v7e-m/fpv4-sp/hard\libgcc.a(_udivmoddi4.o)
 .debug_info    0x0000000000011cc8       0x26 c:/gnat/2021-arm-elf/bin/../lib/gcc/arm-eabi/10.3.1/thumb/v7e-m/fpv4-sp/hard\libgcc.a(_dvmd_tls.o)

.debug_abbrev   0x0000000000000000     0x3c3c
 *(.debug_abbrev)
 .debug_abbrev  0x0000000000000000      0x20b C:\Users\aditi.DESKTOP-49PGKM5\OneDrive - USN\Dokumenter\ada\Ada_Drivers_Library_j\boards\MicroBit_v2\obj\zfp_lib_Debug\libada_drivers_library.a(cortex_m-nvic.o)
 .debug_abbrev  0x000000000000020b      0x20d C:\Users\aditi.DESKTOP-49PGKM5\OneDrive - USN\Dokumenter\ada\Ada_Drivers_Library_j\boards\MicroBit_v2\obj\zfp_lib_Debug\libada_drivers_library.a(dfr0548.o)
 .debug_abbrev  0x0000000000000418       0x3b C:\Users\aditi.DESKTOP-49PGKM5\OneDrive - USN\Dokumenter\ada\Ada_Drivers_Library_j\boards\MicroBit_v2\obj\zfp_lib_Debug\libada_drivers_library.a(memory_barriers.o)
 .debug_abbrev  0x0000000000000453      0x389 C:\Users\aditi.DESKTOP-49PGKM5\OneDrive - USN\Dokumenter\ada\Ada_Drivers_Library_j\boards\MicroBit_v2\obj\zfp_lib_Debug\libada_drivers_library.a(microbit-console.o)
 .debug_abbrev  0x00000000000007dc       0x37 C:\Users\aditi.DESKTOP-49PGKM5\OneDrive - USN\Dokumenter\ada\Ada_Drivers_Library_j\boards\MicroBit_v2\obj\zfp_lib_Debug\libada_drivers_library.a(microbit-display-symbols.o)
 .debug_abbrev  0x0000000000000813      0x2c3 C:\Users\aditi.DESKTOP-49PGKM5\OneDrive - USN\Dokumenter\ada\Ada_Drivers_Library_j\boards\MicroBit_v2\obj\zfp_lib_Debug\libada_drivers_library.a(microbit-display.o)
 .debug_abbrev  0x0000000000000ad6      0x2d2 C:\Users\aditi.DESKTOP-49PGKM5\OneDrive - USN\Dokumenter\ada\Ada_Drivers_Library_j\boards\MicroBit_v2\obj\zfp_lib_Debug\libada_drivers_library.a(microbit-i2c.o)
 .debug_abbrev  0x0000000000000da8      0x191 C:\Users\aditi.DESKTOP-49PGKM5\OneDrive - USN\Dokumenter\ada\Ada_Drivers_Library_j\boards\MicroBit_v2\obj\zfp_lib_Debug\libada_drivers_library.a(microbit-motordriver.o)
 .debug_abbrev  0x0000000000000f39      0x1ff C:\Users\aditi.DESKTOP-49PGKM5\OneDrive - USN\Dokumenter\ada\Ada_Drivers_Library_j\boards\MicroBit_v2\obj\zfp_lib_Debug\libada_drivers_library.a(microbit-radio.o)
 .debug_abbrev  0x0000000000001138       0xc0 C:\Users\aditi.DESKTOP-49PGKM5\OneDrive - USN\Dokumenter\ada\Ada_Drivers_Library_j\boards\MicroBit_v2\obj\zfp_lib_Debug\libada_drivers_library.a(microbit-time-highspeed.o)
 .debug_abbrev  0x00000000000011f8      0x22a C:\Users\aditi.DESKTOP-49PGKM5\OneDrive - USN\Dokumenter\ada\Ada_Drivers_Library_j\boards\MicroBit_v2\obj\zfp_lib_Debug\libada_drivers_library.a(microbit-time.o)
 .debug_abbrev  0x0000000000001422       0xef C:\Users\aditi.DESKTOP-49PGKM5\OneDrive - USN\Dokumenter\ada\Ada_Drivers_Library_j\boards\MicroBit_v2\obj\zfp_lib_Debug\libada_drivers_library.a(nrf-clock.o)
 .debug_abbrev  0x0000000000001511      0x394 C:\Users\aditi.DESKTOP-49PGKM5\OneDrive - USN\Dokumenter\ada\Ada_Drivers_Library_j\boards\MicroBit_v2\obj\zfp_lib_Debug\libada_drivers_library.a(nrf-device.o)
 .debug_abbrev  0x00000000000018a5      0x11e C:\Users\aditi.DESKTOP-49PGKM5\OneDrive - USN\Dokumenter\ada\Ada_Drivers_Library_j\boards\MicroBit_v2\obj\zfp_lib_Debug\libada_drivers_library.a(nrf-events.o)
 .debug_abbrev  0x00000000000019c3      0x21c C:\Users\aditi.DESKTOP-49PGKM5\OneDrive - USN\Dokumenter\ada\Ada_Drivers_Library_j\boards\MicroBit_v2\obj\zfp_lib_Debug\libada_drivers_library.a(nrf-gpio.o)
 .debug_abbrev  0x0000000000001bdf      0x164 C:\Users\aditi.DESKTOP-49PGKM5\OneDrive - USN\Dokumenter\ada\Ada_Drivers_Library_j\boards\MicroBit_v2\obj\zfp_lib_Debug\libada_drivers_library.a(nrf-interrupts.o)
 .debug_abbrev  0x0000000000001d43      0x2d4 C:\Users\aditi.DESKTOP-49PGKM5\OneDrive - USN\Dokumenter\ada\Ada_Drivers_Library_j\boards\MicroBit_v2\obj\zfp_lib_Debug\libada_drivers_library.a(nrf-radio.o)
 .debug_abbrev  0x0000000000002017      0x32b C:\Users\aditi.DESKTOP-49PGKM5\OneDrive - USN\Dokumenter\ada\Ada_Drivers_Library_j\boards\MicroBit_v2\obj\zfp_lib_Debug\libada_drivers_library.a(nrf-rtc.o)
 .debug_abbrev  0x0000000000002342      0x336 C:\Users\aditi.DESKTOP-49PGKM5\OneDrive - USN\Dokumenter\ada\Ada_Drivers_Library_j\boards\MicroBit_v2\obj\zfp_lib_Debug\libada_drivers_library.a(nrf-spi_master.o)
 .debug_abbrev  0x0000000000002678       0xdf C:\Users\aditi.DESKTOP-49PGKM5\OneDrive - USN\Dokumenter\ada\Ada_Drivers_Library_j\boards\MicroBit_v2\obj\zfp_lib_Debug\libada_drivers_library.a(nrf-tasks.o)
 .debug_abbrev  0x0000000000002757      0x34d C:\Users\aditi.DESKTOP-49PGKM5\OneDrive - USN\Dokumenter\ada\Ada_Drivers_Library_j\boards\MicroBit_v2\obj\zfp_lib_Debug\libada_drivers_library.a(nrf-timers.o)
 .debug_abbrev  0x0000000000002aa4      0x39c C:\Users\aditi.DESKTOP-49PGKM5\OneDrive - USN\Dokumenter\ada\Ada_Drivers_Library_j\boards\MicroBit_v2\obj\zfp_lib_Debug\libada_drivers_library.a(nrf-twi.o)
 .debug_abbrev  0x0000000000002e40      0x34a C:\Users\aditi.DESKTOP-49PGKM5\OneDrive - USN\Dokumenter\ada\Ada_Drivers_Library_j\boards\MicroBit_v2\obj\zfp_lib_Debug\libada_drivers_library.a(nrf-uart.o)
 .debug_abbrev  0x000000000000318a      0x1f0 C:\Users\aditi.DESKTOP-49PGKM5\OneDrive - USN\Dokumenter\ada\Ada_Drivers_Library_j\boards\MicroBit_v2\obj\zfp_lib_Debug\libada_drivers_library.a(nrf_svd-gpio.o)
 .debug_abbrev  0x000000000000337a      0x1ef C:\Users\aditi.DESKTOP-49PGKM5\OneDrive - USN\Dokumenter\ada\Ada_Drivers_Library_j\boards\MicroBit_v2\obj\zfp_lib_Debug\libada_drivers_library.a(nrf_svd-radio.o)
 .debug_abbrev  0x0000000000003569      0x1c5 C:\Users\aditi.DESKTOP-49PGKM5\OneDrive - USN\Dokumenter\ada\Ada_Drivers_Library_j\boards\MicroBit_v2\obj\zfp_lib_Debug\libada_drivers_library.a(nrf_svd-twi.o)
 .debug_abbrev  0x000000000000372e       0x1b C:\Users\aditi.DESKTOP-49PGKM5\OneDrive - USN\Dokumenter\ada\Ada_Drivers_Library_j\boards\MicroBit_v2\obj\zfp_lib_Debug\libada_drivers_library.a(hal-gpio.o)
 .debug_abbrev  0x0000000000003749       0x28 C:\Users\aditi.DESKTOP-49PGKM5\OneDrive - USN\Dokumenter\ada\Ada_Drivers_Library_j\boards\MicroBit_v2\obj\zfp_lib_Debug\libada_drivers_library.a(hal-i2c.o)
 .debug_abbrev  0x0000000000003771       0x28 C:\Users\aditi.DESKTOP-49PGKM5\OneDrive - USN\Dokumenter\ada\Ada_Drivers_Library_j\boards\MicroBit_v2\obj\zfp_lib_Debug\libada_drivers_library.a(hal-spi.o)
 .debug_abbrev  0x0000000000003799       0x1b C:\Users\aditi.DESKTOP-49PGKM5\OneDrive - USN\Dokumenter\ada\Ada_Drivers_Library_j\boards\MicroBit_v2\obj\zfp_lib_Debug\libada_drivers_library.a(hal-time.o)
 .debug_abbrev  0x00000000000037b4       0x28 C:\Users\aditi.DESKTOP-49PGKM5\OneDrive - USN\Dokumenter\ada\Ada_Drivers_Library_j\boards\MicroBit_v2\obj\zfp_lib_Debug\libada_drivers_library.a(hal-uart.o)
 .debug_abbrev  0x00000000000037dc      0x12c C:\gnat\2021-arm-elf\arm-eabi\lib\gnat\zfp-cortex-m4f\adalib\libgnat.a(s-assert.o)
 .debug_abbrev  0x0000000000003908      0x1a9 C:\gnat\2021-arm-elf\arm-eabi\lib\gnat\zfp-cortex-m4f\adalib\libgnat.a(a-except.o)
 .debug_abbrev  0x0000000000003ab1       0x14 c:/gnat/2021-arm-elf/bin/../lib/gcc/arm-eabi/10.3.1/thumb/v7e-m/fpv4-sp/hard\libgcc.a(_aeabi_ldivmod.o)
 .debug_abbrev  0x0000000000003ac5      0x163 c:/gnat/2021-arm-elf/bin/../lib/gcc/arm-eabi/10.3.1/thumb/v7e-m/fpv4-sp/hard\libgcc.a(_udivmoddi4.o)
 .debug_abbrev  0x0000000000003c28       0x14 c:/gnat/2021-arm-elf/bin/../lib/gcc/arm-eabi/10.3.1/thumb/v7e-m/fpv4-sp/hard\libgcc.a(_dvmd_tls.o)

.debug_line     0x0000000000000000     0x69b7
 *(.debug_line)
 .debug_line    0x0000000000000000      0x4c6 C:\Users\aditi.DESKTOP-49PGKM5\OneDrive - USN\Dokumenter\ada\Ada_Drivers_Library_j\boards\MicroBit_v2\obj\zfp_lib_Debug\libada_drivers_library.a(cortex_m-nvic.o)
 .debug_line    0x00000000000004c6      0x455 C:\Users\aditi.DESKTOP-49PGKM5\OneDrive - USN\Dokumenter\ada\Ada_Drivers_Library_j\boards\MicroBit_v2\obj\zfp_lib_Debug\libada_drivers_library.a(dfr0548.o)
 .debug_line    0x000000000000091b       0xcb C:\Users\aditi.DESKTOP-49PGKM5\OneDrive - USN\Dokumenter\ada\Ada_Drivers_Library_j\boards\MicroBit_v2\obj\zfp_lib_Debug\libada_drivers_library.a(memory_barriers.o)
 .debug_line    0x00000000000009e6      0x4ec C:\Users\aditi.DESKTOP-49PGKM5\OneDrive - USN\Dokumenter\ada\Ada_Drivers_Library_j\boards\MicroBit_v2\obj\zfp_lib_Debug\libada_drivers_library.a(microbit-console.o)
 .debug_line    0x0000000000000ed2      0x1c3 C:\Users\aditi.DESKTOP-49PGKM5\OneDrive - USN\Dokumenter\ada\Ada_Drivers_Library_j\boards\MicroBit_v2\obj\zfp_lib_Debug\libada_drivers_library.a(microbit-display-symbols.o)
 .debug_line    0x0000000000001095      0x6f7 C:\Users\aditi.DESKTOP-49PGKM5\OneDrive - USN\Dokumenter\ada\Ada_Drivers_Library_j\boards\MicroBit_v2\obj\zfp_lib_Debug\libada_drivers_library.a(microbit-display.o)
 .debug_line    0x000000000000178c      0x423 C:\Users\aditi.DESKTOP-49PGKM5\OneDrive - USN\Dokumenter\ada\Ada_Drivers_Library_j\boards\MicroBit_v2\obj\zfp_lib_Debug\libada_drivers_library.a(microbit-i2c.o)
 .debug_line    0x0000000000001baf      0x2fd C:\Users\aditi.DESKTOP-49PGKM5\OneDrive - USN\Dokumenter\ada\Ada_Drivers_Library_j\boards\MicroBit_v2\obj\zfp_lib_Debug\libada_drivers_library.a(microbit-motordriver.o)
 .debug_line    0x0000000000001eac      0x31e C:\Users\aditi.DESKTOP-49PGKM5\OneDrive - USN\Dokumenter\ada\Ada_Drivers_Library_j\boards\MicroBit_v2\obj\zfp_lib_Debug\libada_drivers_library.a(microbit-radio.o)
 .debug_line    0x00000000000021ca      0x14d C:\Users\aditi.DESKTOP-49PGKM5\OneDrive - USN\Dokumenter\ada\Ada_Drivers_Library_j\boards\MicroBit_v2\obj\zfp_lib_Debug\libada_drivers_library.a(microbit-time-highspeed.o)
 .debug_line    0x0000000000002317      0x495 C:\Users\aditi.DESKTOP-49PGKM5\OneDrive - USN\Dokumenter\ada\Ada_Drivers_Library_j\boards\MicroBit_v2\obj\zfp_lib_Debug\libada_drivers_library.a(microbit-time.o)
 .debug_line    0x00000000000027ac        0x0 C:\Users\aditi.DESKTOP-49PGKM5\OneDrive - USN\Dokumenter\ada\Ada_Drivers_Library_j\boards\MicroBit_v2\obj\zfp_lib_Debug\libada_drivers_library.a(microbit-ultrasonic.o)
 .debug_line    0x00000000000027ac      0x2d4 C:\Users\aditi.DESKTOP-49PGKM5\OneDrive - USN\Dokumenter\ada\Ada_Drivers_Library_j\boards\MicroBit_v2\obj\zfp_lib_Debug\libada_drivers_library.a(nrf-clock.o)
 .debug_line    0x0000000000002a80      0x5bf C:\Users\aditi.DESKTOP-49PGKM5\OneDrive - USN\Dokumenter\ada\Ada_Drivers_Library_j\boards\MicroBit_v2\obj\zfp_lib_Debug\libada_drivers_library.a(nrf-device.o)
 .debug_line    0x000000000000303f      0x259 C:\Users\aditi.DESKTOP-49PGKM5\OneDrive - USN\Dokumenter\ada\Ada_Drivers_Library_j\boards\MicroBit_v2\obj\zfp_lib_Debug\libada_drivers_library.a(nrf-events.o)
 .debug_line    0x0000000000003298      0x758 C:\Users\aditi.DESKTOP-49PGKM5\OneDrive - USN\Dokumenter\ada\Ada_Drivers_Library_j\boards\MicroBit_v2\obj\zfp_lib_Debug\libada_drivers_library.a(nrf-gpio.o)
 .debug_line    0x00000000000039f0      0x1fb C:\Users\aditi.DESKTOP-49PGKM5\OneDrive - USN\Dokumenter\ada\Ada_Drivers_Library_j\boards\MicroBit_v2\obj\zfp_lib_Debug\libada_drivers_library.a(nrf-interrupts.o)
 .debug_line    0x0000000000003beb      0x670 C:\Users\aditi.DESKTOP-49PGKM5\OneDrive - USN\Dokumenter\ada\Ada_Drivers_Library_j\boards\MicroBit_v2\obj\zfp_lib_Debug\libada_drivers_library.a(nrf-radio.o)
 .debug_line    0x000000000000425b      0x399 C:\Users\aditi.DESKTOP-49PGKM5\OneDrive - USN\Dokumenter\ada\Ada_Drivers_Library_j\boards\MicroBit_v2\obj\zfp_lib_Debug\libada_drivers_library.a(nrf-rtc.o)
 .debug_line    0x00000000000045f4      0x6cc C:\Users\aditi.DESKTOP-49PGKM5\OneDrive - USN\Dokumenter\ada\Ada_Drivers_Library_j\boards\MicroBit_v2\obj\zfp_lib_Debug\libada_drivers_library.a(nrf-spi_master.o)
 .debug_line    0x0000000000004cc0      0x178 C:\Users\aditi.DESKTOP-49PGKM5\OneDrive - USN\Dokumenter\ada\Ada_Drivers_Library_j\boards\MicroBit_v2\obj\zfp_lib_Debug\libada_drivers_library.a(nrf-tasks.o)
 .debug_line    0x0000000000004e38      0x5a1 C:\Users\aditi.DESKTOP-49PGKM5\OneDrive - USN\Dokumenter\ada\Ada_Drivers_Library_j\boards\MicroBit_v2\obj\zfp_lib_Debug\libada_drivers_library.a(nrf-timers.o)
 .debug_line    0x00000000000053d9      0x577 C:\Users\aditi.DESKTOP-49PGKM5\OneDrive - USN\Dokumenter\ada\Ada_Drivers_Library_j\boards\MicroBit_v2\obj\zfp_lib_Debug\libada_drivers_library.a(nrf-twi.o)
 .debug_line    0x0000000000005950      0x3ee C:\Users\aditi.DESKTOP-49PGKM5\OneDrive - USN\Dokumenter\ada\Ada_Drivers_Library_j\boards\MicroBit_v2\obj\zfp_lib_Debug\libada_drivers_library.a(nrf-uart.o)
 .debug_line    0x0000000000005d3e      0x104 C:\Users\aditi.DESKTOP-49PGKM5\OneDrive - USN\Dokumenter\ada\Ada_Drivers_Library_j\boards\MicroBit_v2\obj\zfp_lib_Debug\libada_drivers_library.a(nrf_svd-gpio.o)
 .debug_line    0x0000000000005e42      0x105 C:\Users\aditi.DESKTOP-49PGKM5\OneDrive - USN\Dokumenter\ada\Ada_Drivers_Library_j\boards\MicroBit_v2\obj\zfp_lib_Debug\libada_drivers_library.a(nrf_svd-radio.o)
 .debug_line    0x0000000000005f47      0x14e C:\Users\aditi.DESKTOP-49PGKM5\OneDrive - USN\Dokumenter\ada\Ada_Drivers_Library_j\boards\MicroBit_v2\obj\zfp_lib_Debug\libada_drivers_library.a(nrf_svd-twi.o)
 .debug_line    0x0000000000006095       0x1d C:\Users\aditi.DESKTOP-49PGKM5\OneDrive - USN\Dokumenter\ada\Ada_Drivers_Library_j\boards\MicroBit_v2\obj\zfp_lib_Debug\libada_drivers_library.a(hal-gpio.o)
 .debug_line    0x00000000000060b2       0x1d C:\Users\aditi.DESKTOP-49PGKM5\OneDrive - USN\Dokumenter\ada\Ada_Drivers_Library_j\boards\MicroBit_v2\obj\zfp_lib_Debug\libada_drivers_library.a(hal-i2c.o)
 .debug_line    0x00000000000060cf       0x1d C:\Users\aditi.DESKTOP-49PGKM5\OneDrive - USN\Dokumenter\ada\Ada_Drivers_Library_j\boards\MicroBit_v2\obj\zfp_lib_Debug\libada_drivers_library.a(hal-spi.o)
 .debug_line    0x00000000000060ec       0x1d C:\Users\aditi.DESKTOP-49PGKM5\OneDrive - USN\Dokumenter\ada\Ada_Drivers_Library_j\boards\MicroBit_v2\obj\zfp_lib_Debug\libada_drivers_library.a(hal-time.o)
 .debug_line    0x0000000000006109       0x1d C:\Users\aditi.DESKTOP-49PGKM5\OneDrive - USN\Dokumenter\ada\Ada_Drivers_Library_j\boards\MicroBit_v2\obj\zfp_lib_Debug\libada_drivers_library.a(hal-uart.o)
 .debug_line    0x0000000000006126       0xde C:\gnat\2021-arm-elf\arm-eabi\lib\gnat\zfp-cortex-m4f\adalib\libgnat.a(s-assert.o)
 .debug_line    0x0000000000006204      0x108 C:\gnat\2021-arm-elf\arm-eabi\lib\gnat\zfp-cortex-m4f\adalib\libgnat.a(a-except.o)
 .debug_line    0x000000000000630c       0x85 c:/gnat/2021-arm-elf/bin/../lib/gcc/arm-eabi/10.3.1/thumb/v7e-m/fpv4-sp/hard\libgcc.a(_aeabi_ldivmod.o)
 .debug_line    0x0000000000006391      0x5bf c:/gnat/2021-arm-elf/bin/../lib/gcc/arm-eabi/10.3.1/thumb/v7e-m/fpv4-sp/hard\libgcc.a(_udivmoddi4.o)
 .debug_line    0x0000000000006950       0x67 c:/gnat/2021-arm-elf/bin/../lib/gcc/arm-eabi/10.3.1/thumb/v7e-m/fpv4-sp/hard\libgcc.a(_dvmd_tls.o)

.debug_frame    0x0000000000000000     0x3ac8
 *(.debug_frame)
 .debug_frame   0x0000000000000000      0x258 C:\Users\aditi.DESKTOP-49PGKM5\OneDrive - USN\Dokumenter\ada\Ada_Drivers_Library_j\boards\MicroBit_v2\obj\zfp_lib_Debug\libada_drivers_library.a(cortex_m-nvic.o)
 .debug_frame   0x0000000000000258      0x244 C:\Users\aditi.DESKTOP-49PGKM5\OneDrive - USN\Dokumenter\ada\Ada_Drivers_Library_j\boards\MicroBit_v2\obj\zfp_lib_Debug\libada_drivers_library.a(dfr0548.o)
 .debug_frame   0x000000000000049c       0x30 C:\Users\aditi.DESKTOP-49PGKM5\OneDrive - USN\Dokumenter\ada\Ada_Drivers_Library_j\boards\MicroBit_v2\obj\zfp_lib_Debug\libada_drivers_library.a(memory_barriers.o)
 .debug_frame   0x00000000000004cc       0xec C:\Users\aditi.DESKTOP-49PGKM5\OneDrive - USN\Dokumenter\ada\Ada_Drivers_Library_j\boards\MicroBit_v2\obj\zfp_lib_Debug\libada_drivers_library.a(microbit-console.o)
 .debug_frame   0x00000000000005b8      0x10c C:\Users\aditi.DESKTOP-49PGKM5\OneDrive - USN\Dokumenter\ada\Ada_Drivers_Library_j\boards\MicroBit_v2\obj\zfp_lib_Debug\libada_drivers_library.a(microbit-display-symbols.o)
 .debug_frame   0x00000000000006c4      0x25c C:\Users\aditi.DESKTOP-49PGKM5\OneDrive - USN\Dokumenter\ada\Ada_Drivers_Library_j\boards\MicroBit_v2\obj\zfp_lib_Debug\libada_drivers_library.a(microbit-display.o)
 .debug_frame   0x0000000000000920      0x128 C:\Users\aditi.DESKTOP-49PGKM5\OneDrive - USN\Dokumenter\ada\Ada_Drivers_Library_j\boards\MicroBit_v2\obj\zfp_lib_Debug\libada_drivers_library.a(microbit-i2c.o)
 .debug_frame   0x0000000000000a48       0xe0 C:\Users\aditi.DESKTOP-49PGKM5\OneDrive - USN\Dokumenter\ada\Ada_Drivers_Library_j\boards\MicroBit_v2\obj\zfp_lib_Debug\libada_drivers_library.a(microbit-motordriver.o)
 .debug_frame   0x0000000000000b28      0x1b4 C:\Users\aditi.DESKTOP-49PGKM5\OneDrive - USN\Dokumenter\ada\Ada_Drivers_Library_j\boards\MicroBit_v2\obj\zfp_lib_Debug\libada_drivers_library.a(microbit-radio.o)
 .debug_frame   0x0000000000000cdc       0x74 C:\Users\aditi.DESKTOP-49PGKM5\OneDrive - USN\Dokumenter\ada\Ada_Drivers_Library_j\boards\MicroBit_v2\obj\zfp_lib_Debug\libada_drivers_library.a(microbit-time-highspeed.o)
 .debug_frame   0x0000000000000d50      0x2f8 C:\Users\aditi.DESKTOP-49PGKM5\OneDrive - USN\Dokumenter\ada\Ada_Drivers_Library_j\boards\MicroBit_v2\obj\zfp_lib_Debug\libada_drivers_library.a(microbit-time.o)
 .debug_frame   0x0000000000001048      0x168 C:\Users\aditi.DESKTOP-49PGKM5\OneDrive - USN\Dokumenter\ada\Ada_Drivers_Library_j\boards\MicroBit_v2\obj\zfp_lib_Debug\libada_drivers_library.a(nrf-clock.o)
 .debug_frame   0x00000000000011b0      0x194 C:\Users\aditi.DESKTOP-49PGKM5\OneDrive - USN\Dokumenter\ada\Ada_Drivers_Library_j\boards\MicroBit_v2\obj\zfp_lib_Debug\libada_drivers_library.a(nrf-device.o)
 .debug_frame   0x0000000000001344       0xf0 C:\Users\aditi.DESKTOP-49PGKM5\OneDrive - USN\Dokumenter\ada\Ada_Drivers_Library_j\boards\MicroBit_v2\obj\zfp_lib_Debug\libada_drivers_library.a(nrf-events.o)
 .debug_frame   0x0000000000001434      0x260 C:\Users\aditi.DESKTOP-49PGKM5\OneDrive - USN\Dokumenter\ada\Ada_Drivers_Library_j\boards\MicroBit_v2\obj\zfp_lib_Debug\libada_drivers_library.a(nrf-gpio.o)
 .debug_frame   0x0000000000001694       0xe8 C:\Users\aditi.DESKTOP-49PGKM5\OneDrive - USN\Dokumenter\ada\Ada_Drivers_Library_j\boards\MicroBit_v2\obj\zfp_lib_Debug\libada_drivers_library.a(nrf-interrupts.o)
 .debug_frame   0x000000000000177c      0x508 C:\Users\aditi.DESKTOP-49PGKM5\OneDrive - USN\Dokumenter\ada\Ada_Drivers_Library_j\boards\MicroBit_v2\obj\zfp_lib_Debug\libada_drivers_library.a(nrf-radio.o)
 .debug_frame   0x0000000000001c84      0x194 C:\Users\aditi.DESKTOP-49PGKM5\OneDrive - USN\Dokumenter\ada\Ada_Drivers_Library_j\boards\MicroBit_v2\obj\zfp_lib_Debug\libada_drivers_library.a(nrf-rtc.o)
 .debug_frame   0x0000000000001e18      0x294 C:\Users\aditi.DESKTOP-49PGKM5\OneDrive - USN\Dokumenter\ada\Ada_Drivers_Library_j\boards\MicroBit_v2\obj\zfp_lib_Debug\libada_drivers_library.a(nrf-spi_master.o)
 .debug_frame   0x00000000000020ac       0x84 C:\Users\aditi.DESKTOP-49PGKM5\OneDrive - USN\Dokumenter\ada\Ada_Drivers_Library_j\boards\MicroBit_v2\obj\zfp_lib_Debug\libada_drivers_library.a(nrf-tasks.o)
 .debug_frame   0x0000000000002130      0x3c0 C:\Users\aditi.DESKTOP-49PGKM5\OneDrive - USN\Dokumenter\ada\Ada_Drivers_Library_j\boards\MicroBit_v2\obj\zfp_lib_Debug\libada_drivers_library.a(nrf-timers.o)
 .debug_frame   0x00000000000024f0      0x270 C:\Users\aditi.DESKTOP-49PGKM5\OneDrive - USN\Dokumenter\ada\Ada_Drivers_Library_j\boards\MicroBit_v2\obj\zfp_lib_Debug\libada_drivers_library.a(nrf-twi.o)
 .debug_frame   0x0000000000002760      0x260 C:\Users\aditi.DESKTOP-49PGKM5\OneDrive - USN\Dokumenter\ada\Ada_Drivers_Library_j\boards\MicroBit_v2\obj\zfp_lib_Debug\libada_drivers_library.a(nrf-uart.o)
 .debug_frame   0x00000000000029c0      0x604 C:\Users\aditi.DESKTOP-49PGKM5\OneDrive - USN\Dokumenter\ada\Ada_Drivers_Library_j\boards\MicroBit_v2\obj\zfp_lib_Debug\libada_drivers_library.a(nrf_svd-gpio.o)
 .debug_frame   0x0000000000002fc4      0x7e0 C:\Users\aditi.DESKTOP-49PGKM5\OneDrive - USN\Dokumenter\ada\Ada_Drivers_Library_j\boards\MicroBit_v2\obj\zfp_lib_Debug\libada_drivers_library.a(nrf_svd-radio.o)
 .debug_frame   0x00000000000037a4      0x19c C:\Users\aditi.DESKTOP-49PGKM5\OneDrive - USN\Dokumenter\ada\Ada_Drivers_Library_j\boards\MicroBit_v2\obj\zfp_lib_Debug\libada_drivers_library.a(nrf_svd-twi.o)
 .debug_frame   0x0000000000003940       0x60 C:\Users\aditi.DESKTOP-49PGKM5\OneDrive - USN\Dokumenter\ada\Ada_Drivers_Library_j\boards\MicroBit_v2\obj\zfp_lib_Debug\libada_drivers_library.a(hal-spi.o)
 .debug_frame   0x00000000000039a0       0x60 C:\Users\aditi.DESKTOP-49PGKM5\OneDrive - USN\Dokumenter\ada\Ada_Drivers_Library_j\boards\MicroBit_v2\obj\zfp_lib_Debug\libada_drivers_library.a(hal-uart.o)
 .debug_frame   0x0000000000003a00       0x28 C:\gnat\2021-arm-elf\arm-eabi\lib\gnat\zfp-cortex-m4f\adalib\libgnat.a(s-assert.o)
 .debug_frame   0x0000000000003a28       0x28 C:\gnat\2021-arm-elf\arm-eabi\lib\gnat\zfp-cortex-m4f\adalib\libgnat.a(a-except.o)
 .debug_frame   0x0000000000003a50       0x44 c:/gnat/2021-arm-elf/bin/../lib/gcc/arm-eabi/10.3.1/thumb/v7e-m/fpv4-sp/hard\libgcc.a(_aeabi_ldivmod.o)
 .debug_frame   0x0000000000003a94       0x34 c:/gnat/2021-arm-elf/bin/../lib/gcc/arm-eabi/10.3.1/thumb/v7e-m/fpv4-sp/hard\libgcc.a(_udivmoddi4.o)

.debug_str      0x0000000000000000     0xe7a2
 *(.debug_str)
 .debug_str     0x0000000000000000      0xdca C:\Users\aditi.DESKTOP-49PGKM5\OneDrive - USN\Dokumenter\ada\Ada_Drivers_Library_j\boards\MicroBit_v2\obj\zfp_lib_Debug\libada_drivers_library.a(cortex_m-nvic.o)
                                        0xde7 (size before relaxing)
 .debug_str     0x0000000000000dca      0x7bd C:\Users\aditi.DESKTOP-49PGKM5\OneDrive - USN\Dokumenter\ada\Ada_Drivers_Library_j\boards\MicroBit_v2\obj\zfp_lib_Debug\libada_drivers_library.a(dfr0548.o)
                                        0xaee (size before relaxing)
 .debug_str     0x0000000000001587       0xc0 C:\Users\aditi.DESKTOP-49PGKM5\OneDrive - USN\Dokumenter\ada\Ada_Drivers_Library_j\boards\MicroBit_v2\obj\zfp_lib_Debug\libada_drivers_library.a(memory_barriers.o)
                                        0x316 (size before relaxing)
 .debug_str     0x0000000000001647     0x1063 C:\Users\aditi.DESKTOP-49PGKM5\OneDrive - USN\Dokumenter\ada\Ada_Drivers_Library_j\boards\MicroBit_v2\obj\zfp_lib_Debug\libada_drivers_library.a(microbit-console.o)
                                       0x145d (size before relaxing)
 .debug_str     0x00000000000026aa      0x1d4 C:\Users\aditi.DESKTOP-49PGKM5\OneDrive - USN\Dokumenter\ada\Ada_Drivers_Library_j\boards\MicroBit_v2\obj\zfp_lib_Debug\libada_drivers_library.a(microbit-display-symbols.o)
                                        0x432 (size before relaxing)
 .debug_str     0x000000000000287e      0x927 C:\Users\aditi.DESKTOP-49PGKM5\OneDrive - USN\Dokumenter\ada\Ada_Drivers_Library_j\boards\MicroBit_v2\obj\zfp_lib_Debug\libada_drivers_library.a(microbit-display.o)
                                        0xd19 (size before relaxing)
 .debug_str     0x00000000000031a5      0xc4d C:\Users\aditi.DESKTOP-49PGKM5\OneDrive - USN\Dokumenter\ada\Ada_Drivers_Library_j\boards\MicroBit_v2\obj\zfp_lib_Debug\libada_drivers_library.a(microbit-i2c.o)
                                       0x1160 (size before relaxing)
 .debug_str     0x0000000000003df2      0x332 C:\Users\aditi.DESKTOP-49PGKM5\OneDrive - USN\Dokumenter\ada\Ada_Drivers_Library_j\boards\MicroBit_v2\obj\zfp_lib_Debug\libada_drivers_library.a(microbit-motordriver.o)
                                        0x77a (size before relaxing)
 .debug_str     0x0000000000004124      0x446 C:\Users\aditi.DESKTOP-49PGKM5\OneDrive - USN\Dokumenter\ada\Ada_Drivers_Library_j\boards\MicroBit_v2\obj\zfp_lib_Debug\libada_drivers_library.a(microbit-radio.o)
                                        0x8e3 (size before relaxing)
 .debug_str     0x000000000000456a      0x1a9 C:\Users\aditi.DESKTOP-49PGKM5\OneDrive - USN\Dokumenter\ada\Ada_Drivers_Library_j\boards\MicroBit_v2\obj\zfp_lib_Debug\libada_drivers_library.a(microbit-time-highspeed.o)
                                        0x42d (size before relaxing)
 .debug_str     0x0000000000004713      0x420 C:\Users\aditi.DESKTOP-49PGKM5\OneDrive - USN\Dokumenter\ada\Ada_Drivers_Library_j\boards\MicroBit_v2\obj\zfp_lib_Debug\libada_drivers_library.a(microbit-time.o)
                                        0x8c6 (size before relaxing)
 .debug_str     0x0000000000004b33       0x86 C:\Users\aditi.DESKTOP-49PGKM5\OneDrive - USN\Dokumenter\ada\Ada_Drivers_Library_j\boards\MicroBit_v2\obj\zfp_lib_Debug\libada_drivers_library.a(microbit-ultrasonic.o)
                                        0x2dc (size before relaxing)
 .debug_str     0x0000000000004bb9      0x2e6 C:\Users\aditi.DESKTOP-49PGKM5\OneDrive - USN\Dokumenter\ada\Ada_Drivers_Library_j\boards\MicroBit_v2\obj\zfp_lib_Debug\libada_drivers_library.a(nrf-clock.o)
                                        0x5f9 (size before relaxing)
 .debug_str     0x0000000000004e9f     0x23b5 C:\Users\aditi.DESKTOP-49PGKM5\OneDrive - USN\Dokumenter\ada\Ada_Drivers_Library_j\boards\MicroBit_v2\obj\zfp_lib_Debug\libada_drivers_library.a(nrf-device.o)
                                       0x3f84 (size before relaxing)
 .debug_str     0x0000000000007254      0x9ff C:\Users\aditi.DESKTOP-49PGKM5\OneDrive - USN\Dokumenter\ada\Ada_Drivers_Library_j\boards\MicroBit_v2\obj\zfp_lib_Debug\libada_drivers_library.a(nrf-events.o)
                                        0xf13 (size before relaxing)
 .debug_str     0x0000000000007c53      0x4d7 C:\Users\aditi.DESKTOP-49PGKM5\OneDrive - USN\Dokumenter\ada\Ada_Drivers_Library_j\boards\MicroBit_v2\obj\zfp_lib_Debug\libada_drivers_library.a(nrf-gpio.o)
                                        0xbdf (size before relaxing)
 .debug_str     0x000000000000812a      0x843 C:\Users\aditi.DESKTOP-49PGKM5\OneDrive - USN\Dokumenter\ada\Ada_Drivers_Library_j\boards\MicroBit_v2\obj\zfp_lib_Debug\libada_drivers_library.a(nrf-interrupts.o)
                                        0xb17 (size before relaxing)
 .debug_str     0x000000000000896d      0xaef C:\Users\aditi.DESKTOP-49PGKM5\OneDrive - USN\Dokumenter\ada\Ada_Drivers_Library_j\boards\MicroBit_v2\obj\zfp_lib_Debug\libada_drivers_library.a(nrf-radio.o)
                                       0x1047 (size before relaxing)
 .debug_str     0x000000000000945c      0x201 C:\Users\aditi.DESKTOP-49PGKM5\OneDrive - USN\Dokumenter\ada\Ada_Drivers_Library_j\boards\MicroBit_v2\obj\zfp_lib_Debug\libada_drivers_library.a(nrf-rtc.o)
                                       0x10b4 (size before relaxing)
 .debug_str     0x000000000000965d      0x575 C:\Users\aditi.DESKTOP-49PGKM5\OneDrive - USN\Dokumenter\ada\Ada_Drivers_Library_j\boards\MicroBit_v2\obj\zfp_lib_Debug\libada_drivers_library.a(nrf-spi_master.o)
                                        0xf92 (size before relaxing)
 .debug_str     0x0000000000009bd2      0xa81 C:\Users\aditi.DESKTOP-49PGKM5\OneDrive - USN\Dokumenter\ada\Ada_Drivers_Library_j\boards\MicroBit_v2\obj\zfp_lib_Debug\libada_drivers_library.a(nrf-tasks.o)
                                        0xfcd (size before relaxing)
 .debug_str     0x000000000000a653      0x38f C:\Users\aditi.DESKTOP-49PGKM5\OneDrive - USN\Dokumenter\ada\Ada_Drivers_Library_j\boards\MicroBit_v2\obj\zfp_lib_Debug\libada_drivers_library.a(nrf-timers.o)
                                       0x133d (size before relaxing)
 .debug_str     0x000000000000a9e2      0x28f C:\Users\aditi.DESKTOP-49PGKM5\OneDrive - USN\Dokumenter\ada\Ada_Drivers_Library_j\boards\MicroBit_v2\obj\zfp_lib_Debug\libada_drivers_library.a(nrf-twi.o)
                                       0x143f (size before relaxing)
 .debug_str     0x000000000000ac71      0x37c C:\Users\aditi.DESKTOP-49PGKM5\OneDrive - USN\Dokumenter\ada\Ada_Drivers_Library_j\boards\MicroBit_v2\obj\zfp_lib_Debug\libada_drivers_library.a(nrf-uart.o)
                                       0x1597 (size before relaxing)
 .debug_str     0x000000000000afed      0x7cd C:\Users\aditi.DESKTOP-49PGKM5\OneDrive - USN\Dokumenter\ada\Ada_Drivers_Library_j\boards\MicroBit_v2\obj\zfp_lib_Debug\libada_drivers_library.a(nrf_svd-gpio.o)
                                        0xd85 (size before relaxing)
 .debug_str     0x000000000000b7ba     0x1e5a C:\Users\aditi.DESKTOP-49PGKM5\OneDrive - USN\Dokumenter\ada\Ada_Drivers_Library_j\boards\MicroBit_v2\obj\zfp_lib_Debug\libada_drivers_library.a(nrf_svd-radio.o)
                                       0x2410 (size before relaxing)
 .debug_str     0x000000000000d614       0xb1 C:\Users\aditi.DESKTOP-49PGKM5\OneDrive - USN\Dokumenter\ada\Ada_Drivers_Library_j\boards\MicroBit_v2\obj\zfp_lib_Debug\libada_drivers_library.a(nrf_svd-twi.o)
                                        0xe3e (size before relaxing)
 .debug_str     0x000000000000d6c5       0x68 C:\Users\aditi.DESKTOP-49PGKM5\OneDrive - USN\Dokumenter\ada\Ada_Drivers_Library_j\boards\MicroBit_v2\obj\zfp_lib_Debug\libada_drivers_library.a(hal-gpio.o)
                                        0x2e8 (size before relaxing)
 .debug_str     0x000000000000d72d       0x67 C:\Users\aditi.DESKTOP-49PGKM5\OneDrive - USN\Dokumenter\ada\Ada_Drivers_Library_j\boards\MicroBit_v2\obj\zfp_lib_Debug\libada_drivers_library.a(hal-i2c.o)
                                        0x343 (size before relaxing)
 .debug_str     0x000000000000d794       0x67 C:\Users\aditi.DESKTOP-49PGKM5\OneDrive - USN\Dokumenter\ada\Ada_Drivers_Library_j\boards\MicroBit_v2\obj\zfp_lib_Debug\libada_drivers_library.a(hal-spi.o)
                                        0x331 (size before relaxing)
 .debug_str     0x000000000000d7fb       0x68 C:\Users\aditi.DESKTOP-49PGKM5\OneDrive - USN\Dokumenter\ada\Ada_Drivers_Library_j\boards\MicroBit_v2\obj\zfp_lib_Debug\libada_drivers_library.a(hal-time.o)
                                        0x2e8 (size before relaxing)
 .debug_str     0x000000000000d863       0x68 C:\Users\aditi.DESKTOP-49PGKM5\OneDrive - USN\Dokumenter\ada\Ada_Drivers_Library_j\boards\MicroBit_v2\obj\zfp_lib_Debug\libada_drivers_library.a(hal-uart.o)
                                        0x31d (size before relaxing)
 .debug_str     0x000000000000d8cb      0x45a C:\gnat\2021-arm-elf\arm-eabi\lib\gnat\zfp-cortex-m4f\adalib\libgnat.a(s-assert.o)
                                        0x4ef (size before relaxing)
 .debug_str     0x000000000000dd25      0x3f5 C:\gnat\2021-arm-elf\arm-eabi\lib\gnat\zfp-cortex-m4f\adalib\libgnat.a(a-except.o)
                                        0x566 (size before relaxing)
 .debug_str     0x000000000000e11a       0x96 c:/gnat/2021-arm-elf/bin/../lib/gcc/arm-eabi/10.3.1/thumb/v7e-m/fpv4-sp/hard\libgcc.a(_aeabi_ldivmod.o)
 .debug_str     0x000000000000e1b0      0x5bb c:/gnat/2021-arm-elf/bin/../lib/gcc/arm-eabi/10.3.1/thumb/v7e-m/fpv4-sp/hard\libgcc.a(_udivmoddi4.o)
                                        0x64d (size before relaxing)
 .debug_str     0x000000000000e76b       0x37 c:/gnat/2021-arm-elf/bin/../lib/gcc/arm-eabi/10.3.1/thumb/v7e-m/fpv4-sp/hard\libgcc.a(_dvmd_tls.o)
                                         0x9a (size before relaxing)

.debug_loc      0x0000000000000000     0x1050
 *(.debug_loc)
 .debug_loc     0x0000000000000000       0x2c C:\gnat\2021-arm-elf\arm-eabi\lib\gnat\zfp-cortex-m4f\adalib\libgnat.a(s-assert.o)
 .debug_loc     0x000000000000002c       0x50 C:\gnat\2021-arm-elf\arm-eabi\lib\gnat\zfp-cortex-m4f\adalib\libgnat.a(a-except.o)
 .debug_loc     0x000000000000007c      0xfd4 c:/gnat/2021-arm-elf/bin/../lib/gcc/arm-eabi/10.3.1/thumb/v7e-m/fpv4-sp/hard\libgcc.a(_udivmoddi4.o)

.debug_macinfo
 *(.debug_macinfo)

.debug_pubtypes
 *(.debug_pubtypes)

.debug_ranges   0x0000000000000000      0x908
 *(.debug_ranges)
 .debug_ranges  0x0000000000000000       0x68 C:\Users\aditi.DESKTOP-49PGKM5\OneDrive - USN\Dokumenter\ada\Ada_Drivers_Library_j\boards\MicroBit_v2\obj\zfp_lib_Debug\libada_drivers_library.a(cortex_m-nvic.o)
 .debug_ranges  0x0000000000000068       0x40 C:\Users\aditi.DESKTOP-49PGKM5\OneDrive - USN\Dokumenter\ada\Ada_Drivers_Library_j\boards\MicroBit_v2\obj\zfp_lib_Debug\libada_drivers_library.a(dfr0548.o)
 .debug_ranges  0x00000000000000a8       0x10 C:\Users\aditi.DESKTOP-49PGKM5\OneDrive - USN\Dokumenter\ada\Ada_Drivers_Library_j\boards\MicroBit_v2\obj\zfp_lib_Debug\libada_drivers_library.a(memory_barriers.o)
 .debug_ranges  0x00000000000000b8       0x38 C:\Users\aditi.DESKTOP-49PGKM5\OneDrive - USN\Dokumenter\ada\Ada_Drivers_Library_j\boards\MicroBit_v2\obj\zfp_lib_Debug\libada_drivers_library.a(microbit-console.o)
 .debug_ranges  0x00000000000000f0       0x50 C:\Users\aditi.DESKTOP-49PGKM5\OneDrive - USN\Dokumenter\ada\Ada_Drivers_Library_j\boards\MicroBit_v2\obj\zfp_lib_Debug\libada_drivers_library.a(microbit-display-symbols.o)
 .debug_ranges  0x0000000000000140       0x78 C:\Users\aditi.DESKTOP-49PGKM5\OneDrive - USN\Dokumenter\ada\Ada_Drivers_Library_j\boards\MicroBit_v2\obj\zfp_lib_Debug\libada_drivers_library.a(microbit-display.o)
 .debug_ranges  0x00000000000001b8       0x48 C:\Users\aditi.DESKTOP-49PGKM5\OneDrive - USN\Dokumenter\ada\Ada_Drivers_Library_j\boards\MicroBit_v2\obj\zfp_lib_Debug\libada_drivers_library.a(microbit-i2c.o)
 .debug_ranges  0x0000000000000200       0x30 C:\Users\aditi.DESKTOP-49PGKM5\OneDrive - USN\Dokumenter\ada\Ada_Drivers_Library_j\boards\MicroBit_v2\obj\zfp_lib_Debug\libada_drivers_library.a(microbit-motordriver.o)
 .debug_ranges  0x0000000000000230       0x68 C:\Users\aditi.DESKTOP-49PGKM5\OneDrive - USN\Dokumenter\ada\Ada_Drivers_Library_j\boards\MicroBit_v2\obj\zfp_lib_Debug\libada_drivers_library.a(microbit-radio.o)
 .debug_ranges  0x0000000000000298       0x20 C:\Users\aditi.DESKTOP-49PGKM5\OneDrive - USN\Dokumenter\ada\Ada_Drivers_Library_j\boards\MicroBit_v2\obj\zfp_lib_Debug\libada_drivers_library.a(microbit-time-highspeed.o)
 .debug_ranges  0x00000000000002b8       0x88 C:\Users\aditi.DESKTOP-49PGKM5\OneDrive - USN\Dokumenter\ada\Ada_Drivers_Library_j\boards\MicroBit_v2\obj\zfp_lib_Debug\libada_drivers_library.a(microbit-time.o)
 .debug_ranges  0x0000000000000340       0x60 C:\Users\aditi.DESKTOP-49PGKM5\OneDrive - USN\Dokumenter\ada\Ada_Drivers_Library_j\boards\MicroBit_v2\obj\zfp_lib_Debug\libada_drivers_library.a(nrf-clock.o)
 .debug_ranges  0x00000000000003a0       0x70 C:\Users\aditi.DESKTOP-49PGKM5\OneDrive - USN\Dokumenter\ada\Ada_Drivers_Library_j\boards\MicroBit_v2\obj\zfp_lib_Debug\libada_drivers_library.a(nrf-device.o)
 .debug_ranges  0x0000000000000410       0x38 C:\Users\aditi.DESKTOP-49PGKM5\OneDrive - USN\Dokumenter\ada\Ada_Drivers_Library_j\boards\MicroBit_v2\obj\zfp_lib_Debug\libada_drivers_library.a(nrf-events.o)
 .debug_ranges  0x0000000000000448       0x58 C:\Users\aditi.DESKTOP-49PGKM5\OneDrive - USN\Dokumenter\ada\Ada_Drivers_Library_j\boards\MicroBit_v2\obj\zfp_lib_Debug\libada_drivers_library.a(nrf-gpio.o)
 .debug_ranges  0x00000000000004a0       0x38 C:\Users\aditi.DESKTOP-49PGKM5\OneDrive - USN\Dokumenter\ada\Ada_Drivers_Library_j\boards\MicroBit_v2\obj\zfp_lib_Debug\libada_drivers_library.a(nrf-interrupts.o)
 .debug_ranges  0x00000000000004d8       0xe8 C:\Users\aditi.DESKTOP-49PGKM5\OneDrive - USN\Dokumenter\ada\Ada_Drivers_Library_j\boards\MicroBit_v2\obj\zfp_lib_Debug\libada_drivers_library.a(nrf-radio.o)
 .debug_ranges  0x00000000000005c0       0x50 C:\Users\aditi.DESKTOP-49PGKM5\OneDrive - USN\Dokumenter\ada\Ada_Drivers_Library_j\boards\MicroBit_v2\obj\zfp_lib_Debug\libada_drivers_library.a(nrf-rtc.o)
 .debug_ranges  0x0000000000000610       0x68 C:\Users\aditi.DESKTOP-49PGKM5\OneDrive - USN\Dokumenter\ada\Ada_Drivers_Library_j\boards\MicroBit_v2\obj\zfp_lib_Debug\libada_drivers_library.a(nrf-spi_master.o)
 .debug_ranges  0x0000000000000678       0x20 C:\Users\aditi.DESKTOP-49PGKM5\OneDrive - USN\Dokumenter\ada\Ada_Drivers_Library_j\boards\MicroBit_v2\obj\zfp_lib_Debug\libada_drivers_library.a(nrf-tasks.o)
 .debug_ranges  0x0000000000000698       0xa8 C:\Users\aditi.DESKTOP-49PGKM5\OneDrive - USN\Dokumenter\ada\Ada_Drivers_Library_j\boards\MicroBit_v2\obj\zfp_lib_Debug\libada_drivers_library.a(nrf-timers.o)
 .debug_ranges  0x0000000000000740       0x60 C:\Users\aditi.DESKTOP-49PGKM5\OneDrive - USN\Dokumenter\ada\Ada_Drivers_Library_j\boards\MicroBit_v2\obj\zfp_lib_Debug\libada_drivers_library.a(nrf-twi.o)
 .debug_ranges  0x00000000000007a0       0x58 C:\Users\aditi.DESKTOP-49PGKM5\OneDrive - USN\Dokumenter\ada\Ada_Drivers_Library_j\boards\MicroBit_v2\obj\zfp_lib_Debug\libada_drivers_library.a(nrf-uart.o)
 .debug_ranges  0x00000000000007f8       0x10 C:\gnat\2021-arm-elf\arm-eabi\lib\gnat\zfp-cortex-m4f\adalib\libgnat.a(s-assert.o)
 .debug_ranges  0x0000000000000808       0x10 C:\gnat\2021-arm-elf\arm-eabi\lib\gnat\zfp-cortex-m4f\adalib\libgnat.a(a-except.o)
 .debug_ranges  0x0000000000000818       0xf0 c:/gnat/2021-arm-elf/bin/../lib/gcc/arm-eabi/10.3.1/thumb/v7e-m/fpv4-sp/hard\libgcc.a(_udivmoddi4.o)

.comment        0x0000000000000000       0x3e
 .comment       0x0000000000000000       0x3e main.o
                                         0x3f (size before relaxing)
 .comment       0x000000000000003e       0x3f b__main.o
 .comment       0x000000000000003e       0x3f C:\Users\aditi.DESKTOP-49PGKM5\OneDrive - USN\Dokumenter\ada\Ada_Drivers_Library_j\boards\MicroBit_v2\obj\zfp_lib_Debug\libada_drivers_library.a(cortex_m-nvic.o)
 .comment       0x000000000000003e       0x3f C:\Users\aditi.DESKTOP-49PGKM5\OneDrive - USN\Dokumenter\ada\Ada_Drivers_Library_j\boards\MicroBit_v2\obj\zfp_lib_Debug\libada_drivers_library.a(dfr0548.o)
 .comment       0x000000000000003e       0x3f C:\Users\aditi.DESKTOP-49PGKM5\OneDrive - USN\Dokumenter\ada\Ada_Drivers_Library_j\boards\MicroBit_v2\obj\zfp_lib_Debug\libada_drivers_library.a(memory_barriers.o)
 .comment       0x000000000000003e       0x3f C:\Users\aditi.DESKTOP-49PGKM5\OneDrive - USN\Dokumenter\ada\Ada_Drivers_Library_j\boards\MicroBit_v2\obj\zfp_lib_Debug\libada_drivers_library.a(microbit-console.o)
 .comment       0x000000000000003e       0x3f C:\Users\aditi.DESKTOP-49PGKM5\OneDrive - USN\Dokumenter\ada\Ada_Drivers_Library_j\boards\MicroBit_v2\obj\zfp_lib_Debug\libada_drivers_library.a(microbit-display-symbols.o)
 .comment       0x000000000000003e       0x3f C:\Users\aditi.DESKTOP-49PGKM5\OneDrive - USN\Dokumenter\ada\Ada_Drivers_Library_j\boards\MicroBit_v2\obj\zfp_lib_Debug\libada_drivers_library.a(microbit-display.o)
 .comment       0x000000000000003e       0x3f C:\Users\aditi.DESKTOP-49PGKM5\OneDrive - USN\Dokumenter\ada\Ada_Drivers_Library_j\boards\MicroBit_v2\obj\zfp_lib_Debug\libada_drivers_library.a(microbit-i2c.o)
 .comment       0x000000000000003e       0x3f C:\Users\aditi.DESKTOP-49PGKM5\OneDrive - USN\Dokumenter\ada\Ada_Drivers_Library_j\boards\MicroBit_v2\obj\zfp_lib_Debug\libada_drivers_library.a(microbit-motordriver.o)
 .comment       0x000000000000003e       0x3f C:\Users\aditi.DESKTOP-49PGKM5\OneDrive - USN\Dokumenter\ada\Ada_Drivers_Library_j\boards\MicroBit_v2\obj\zfp_lib_Debug\libada_drivers_library.a(microbit-radio.o)
 .comment       0x000000000000003e       0x3f C:\Users\aditi.DESKTOP-49PGKM5\OneDrive - USN\Dokumenter\ada\Ada_Drivers_Library_j\boards\MicroBit_v2\obj\zfp_lib_Debug\libada_drivers_library.a(microbit-time-highspeed.o)
 .comment       0x000000000000003e       0x3f C:\Users\aditi.DESKTOP-49PGKM5\OneDrive - USN\Dokumenter\ada\Ada_Drivers_Library_j\boards\MicroBit_v2\obj\zfp_lib_Debug\libada_drivers_library.a(microbit-time.o)
 .comment       0x000000000000003e       0x3f C:\Users\aditi.DESKTOP-49PGKM5\OneDrive - USN\Dokumenter\ada\Ada_Drivers_Library_j\boards\MicroBit_v2\obj\zfp_lib_Debug\libada_drivers_library.a(microbit-ultrasonic.o)
 .comment       0x000000000000003e       0x3f C:\Users\aditi.DESKTOP-49PGKM5\OneDrive - USN\Dokumenter\ada\Ada_Drivers_Library_j\boards\MicroBit_v2\obj\zfp_lib_Debug\libada_drivers_library.a(nrf-clock.o)
 .comment       0x000000000000003e       0x3f C:\Users\aditi.DESKTOP-49PGKM5\OneDrive - USN\Dokumenter\ada\Ada_Drivers_Library_j\boards\MicroBit_v2\obj\zfp_lib_Debug\libada_drivers_library.a(nrf-device.o)
 .comment       0x000000000000003e       0x3f C:\Users\aditi.DESKTOP-49PGKM5\OneDrive - USN\Dokumenter\ada\Ada_Drivers_Library_j\boards\MicroBit_v2\obj\zfp_lib_Debug\libada_drivers_library.a(nrf-events.o)
 .comment       0x000000000000003e       0x3f C:\Users\aditi.DESKTOP-49PGKM5\OneDrive - USN\Dokumenter\ada\Ada_Drivers_Library_j\boards\MicroBit_v2\obj\zfp_lib_Debug\libada_drivers_library.a(nrf-gpio.o)
 .comment       0x000000000000003e       0x3f C:\Users\aditi.DESKTOP-49PGKM5\OneDrive - USN\Dokumenter\ada\Ada_Drivers_Library_j\boards\MicroBit_v2\obj\zfp_lib_Debug\libada_drivers_library.a(nrf-interrupts.o)
 .comment       0x000000000000003e       0x3f C:\Users\aditi.DESKTOP-49PGKM5\OneDrive - USN\Dokumenter\ada\Ada_Drivers_Library_j\boards\MicroBit_v2\obj\zfp_lib_Debug\libada_drivers_library.a(nrf-radio.o)
 .comment       0x000000000000003e       0x3f C:\Users\aditi.DESKTOP-49PGKM5\OneDrive - USN\Dokumenter\ada\Ada_Drivers_Library_j\boards\MicroBit_v2\obj\zfp_lib_Debug\libada_drivers_library.a(nrf-rtc.o)
 .comment       0x000000000000003e       0x3f C:\Users\aditi.DESKTOP-49PGKM5\OneDrive - USN\Dokumenter\ada\Ada_Drivers_Library_j\boards\MicroBit_v2\obj\zfp_lib_Debug\libada_drivers_library.a(nrf-spi_master.o)
 .comment       0x000000000000003e       0x3f C:\Users\aditi.DESKTOP-49PGKM5\OneDrive - USN\Dokumenter\ada\Ada_Drivers_Library_j\boards\MicroBit_v2\obj\zfp_lib_Debug\libada_drivers_library.a(nrf-tasks.o)
 .comment       0x000000000000003e       0x3f C:\Users\aditi.DESKTOP-49PGKM5\OneDrive - USN\Dokumenter\ada\Ada_Drivers_Library_j\boards\MicroBit_v2\obj\zfp_lib_Debug\libada_drivers_library.a(nrf-timers.o)
 .comment       0x000000000000003e       0x3f C:\Users\aditi.DESKTOP-49PGKM5\OneDrive - USN\Dokumenter\ada\Ada_Drivers_Library_j\boards\MicroBit_v2\obj\zfp_lib_Debug\libada_drivers_library.a(nrf-twi.o)
 .comment       0x000000000000003e       0x3f C:\Users\aditi.DESKTOP-49PGKM5\OneDrive - USN\Dokumenter\ada\Ada_Drivers_Library_j\boards\MicroBit_v2\obj\zfp_lib_Debug\libada_drivers_library.a(nrf-uart.o)
 .comment       0x000000000000003e       0x3f C:\Users\aditi.DESKTOP-49PGKM5\OneDrive - USN\Dokumenter\ada\Ada_Drivers_Library_j\boards\MicroBit_v2\obj\zfp_lib_Debug\libada_drivers_library.a(nrf_svd-gpio.o)
 .comment       0x000000000000003e       0x3f C:\Users\aditi.DESKTOP-49PGKM5\OneDrive - USN\Dokumenter\ada\Ada_Drivers_Library_j\boards\MicroBit_v2\obj\zfp_lib_Debug\libada_drivers_library.a(nrf_svd-radio.o)
 .comment       0x000000000000003e       0x3f C:\Users\aditi.DESKTOP-49PGKM5\OneDrive - USN\Dokumenter\ada\Ada_Drivers_Library_j\boards\MicroBit_v2\obj\zfp_lib_Debug\libada_drivers_library.a(nrf_svd-twi.o)
 .comment       0x000000000000003e       0x3f C:\Users\aditi.DESKTOP-49PGKM5\OneDrive - USN\Dokumenter\ada\Ada_Drivers_Library_j\boards\MicroBit_v2\obj\zfp_lib_Debug\libada_drivers_library.a(hal-gpio.o)
 .comment       0x000000000000003e       0x3f C:\Users\aditi.DESKTOP-49PGKM5\OneDrive - USN\Dokumenter\ada\Ada_Drivers_Library_j\boards\MicroBit_v2\obj\zfp_lib_Debug\libada_drivers_library.a(hal-i2c.o)
 .comment       0x000000000000003e       0x3f C:\Users\aditi.DESKTOP-49PGKM5\OneDrive - USN\Dokumenter\ada\Ada_Drivers_Library_j\boards\MicroBit_v2\obj\zfp_lib_Debug\libada_drivers_library.a(hal-spi.o)
 .comment       0x000000000000003e       0x3f C:\Users\aditi.DESKTOP-49PGKM5\OneDrive - USN\Dokumenter\ada\Ada_Drivers_Library_j\boards\MicroBit_v2\obj\zfp_lib_Debug\libada_drivers_library.a(hal-time.o)
 .comment       0x000000000000003e       0x3f C:\Users\aditi.DESKTOP-49PGKM5\OneDrive - USN\Dokumenter\ada\Ada_Drivers_Library_j\boards\MicroBit_v2\obj\zfp_lib_Debug\libada_drivers_library.a(hal-uart.o)
 .comment       0x000000000000003e       0x3f C:\gnat\2021-arm-elf\arm-eabi\lib\gnat\zfp-cortex-m4f\adalib\libgnat.a(a-elchha.o)
 .comment       0x000000000000003e       0x3f C:\gnat\2021-arm-elf\arm-eabi\lib\gnat\zfp-cortex-m4f\adalib\libgnat.a(g-io.o)
 .comment       0x000000000000003e       0x3f C:\gnat\2021-arm-elf\arm-eabi\lib\gnat\zfp-cortex-m4f\adalib\libgnat.a(s-assert.o)
 .comment       0x000000000000003e       0x3f C:\gnat\2021-arm-elf\arm-eabi\lib\gnat\zfp-cortex-m4f\adalib\libgnat.a(s-imglli.o)
 .comment       0x000000000000003e       0x3f C:\gnat\2021-arm-elf\arm-eabi\lib\gnat\zfp-cortex-m4f\adalib\libgnat.a(s-imguns.o)
 .comment       0x000000000000003e       0x3f C:\gnat\2021-arm-elf\arm-eabi\lib\gnat\zfp-cortex-m4f\adalib\libgnat.a(s-macres.o)
 .comment       0x000000000000003e       0x3f C:\gnat\2021-arm-elf\arm-eabi\lib\gnat\zfp-cortex-m4f\adalib\libgnat.a(s-memcom.o)
 .comment       0x000000000000003e       0x3f C:\gnat\2021-arm-elf\arm-eabi\lib\gnat\zfp-cortex-m4f\adalib\libgnat.a(s-memcop.o)
 .comment       0x000000000000003e       0x3f C:\gnat\2021-arm-elf\arm-eabi\lib\gnat\zfp-cortex-m4f\adalib\libgnat.a(s-memmov.o)
 .comment       0x000000000000003e       0x3f C:\gnat\2021-arm-elf\arm-eabi\lib\gnat\zfp-cortex-m4f\adalib\libgnat.a(s-memset.o)
 .comment       0x000000000000003e       0x3f C:\gnat\2021-arm-elf\arm-eabi\lib\gnat\zfp-cortex-m4f\adalib\libgnat.a(s-secsta.o)
 .comment       0x000000000000003e       0x3f C:\gnat\2021-arm-elf\arm-eabi\lib\gnat\zfp-cortex-m4f\adalib\libgnat.a(s-sssita.o)
 .comment       0x000000000000003e       0x3f C:\gnat\2021-arm-elf\arm-eabi\lib\gnat\zfp-cortex-m4f\adalib\libgnat.a(s-textio.o)
 .comment       0x000000000000003e       0x3f C:\gnat\2021-arm-elf\arm-eabi\lib\gnat\zfp-cortex-m4f\adalib\libgnat.a(a-assert.o)
 .comment       0x000000000000003e       0x3f C:\gnat\2021-arm-elf\arm-eabi\lib\gnat\zfp-cortex-m4f\adalib\libgnat.a(a-except.o)
 .comment       0x000000000000003e       0x3f C:\gnat\2021-arm-elf\arm-eabi\lib\gnat\zfp-cortex-m4f\adalib\libgnat.a(s-semiho.o)
 .comment       0x000000000000003e       0x3f c:/gnat/2021-arm-elf/bin/../lib/gcc/arm-eabi/10.3.1/thumb/v7e-m/fpv4-sp/hard\libgcc.a(_udivmoddi4.o)

.ARM.attributes
                0x0000000000000000       0x32
 .ARM.attributes
                0x0000000000000000       0x32 main.o
 .ARM.attributes
                0x0000000000000032       0x32 b__main.o
 .ARM.attributes
                0x0000000000000064       0x32 C:\Users\aditi.DESKTOP-49PGKM5\OneDrive - USN\Dokumenter\ada\Ada_Drivers_Library_j\boards\MicroBit_v2\obj\zfp_lib_Debug\libada_drivers_library.a(cortex_m-nvic.o)
 .ARM.attributes
                0x0000000000000096       0x25 C:\Users\aditi.DESKTOP-49PGKM5\OneDrive - USN\Dokumenter\ada\Ada_Drivers_Library_j\boards\MicroBit_v2\obj\zfp_lib_Debug\libada_drivers_library.a(crt0.o)
 .ARM.attributes
                0x00000000000000bb       0x32 C:\Users\aditi.DESKTOP-49PGKM5\OneDrive - USN\Dokumenter\ada\Ada_Drivers_Library_j\boards\MicroBit_v2\obj\zfp_lib_Debug\libada_drivers_library.a(dfr0548.o)
 .ARM.attributes
                0x00000000000000ed       0x32 C:\Users\aditi.DESKTOP-49PGKM5\OneDrive - USN\Dokumenter\ada\Ada_Drivers_Library_j\boards\MicroBit_v2\obj\zfp_lib_Debug\libada_drivers_library.a(memory_barriers.o)
 .ARM.attributes
                0x000000000000011f       0x32 C:\Users\aditi.DESKTOP-49PGKM5\OneDrive - USN\Dokumenter\ada\Ada_Drivers_Library_j\boards\MicroBit_v2\obj\zfp_lib_Debug\libada_drivers_library.a(microbit-console.o)
 .ARM.attributes
                0x0000000000000151       0x32 C:\Users\aditi.DESKTOP-49PGKM5\OneDrive - USN\Dokumenter\ada\Ada_Drivers_Library_j\boards\MicroBit_v2\obj\zfp_lib_Debug\libada_drivers_library.a(microbit-display-symbols.o)
 .ARM.attributes
                0x0000000000000183       0x32 C:\Users\aditi.DESKTOP-49PGKM5\OneDrive - USN\Dokumenter\ada\Ada_Drivers_Library_j\boards\MicroBit_v2\obj\zfp_lib_Debug\libada_drivers_library.a(microbit-display.o)
 .ARM.attributes
                0x00000000000001b5       0x32 C:\Users\aditi.DESKTOP-49PGKM5\OneDrive - USN\Dokumenter\ada\Ada_Drivers_Library_j\boards\MicroBit_v2\obj\zfp_lib_Debug\libada_drivers_library.a(microbit-i2c.o)
 .ARM.attributes
                0x00000000000001e7       0x32 C:\Users\aditi.DESKTOP-49PGKM5\OneDrive - USN\Dokumenter\ada\Ada_Drivers_Library_j\boards\MicroBit_v2\obj\zfp_lib_Debug\libada_drivers_library.a(microbit-motordriver.o)
 .ARM.attributes
                0x0000000000000219       0x32 C:\Users\aditi.DESKTOP-49PGKM5\OneDrive - USN\Dokumenter\ada\Ada_Drivers_Library_j\boards\MicroBit_v2\obj\zfp_lib_Debug\libada_drivers_library.a(microbit-radio.o)
 .ARM.attributes
                0x000000000000024b       0x32 C:\Users\aditi.DESKTOP-49PGKM5\OneDrive - USN\Dokumenter\ada\Ada_Drivers_Library_j\boards\MicroBit_v2\obj\zfp_lib_Debug\libada_drivers_library.a(microbit-time-highspeed.o)
 .ARM.attributes
                0x000000000000027d       0x32 C:\Users\aditi.DESKTOP-49PGKM5\OneDrive - USN\Dokumenter\ada\Ada_Drivers_Library_j\boards\MicroBit_v2\obj\zfp_lib_Debug\libada_drivers_library.a(microbit-time.o)
 .ARM.attributes
                0x00000000000002af       0x37 C:\Users\aditi.DESKTOP-49PGKM5\OneDrive - USN\Dokumenter\ada\Ada_Drivers_Library_j\boards\MicroBit_v2\obj\zfp_lib_Debug\libada_drivers_library.a(microbit-ultrasonic.o)
 .ARM.attributes
                0x00000000000002e6       0x32 C:\Users\aditi.DESKTOP-49PGKM5\OneDrive - USN\Dokumenter\ada\Ada_Drivers_Library_j\boards\MicroBit_v2\obj\zfp_lib_Debug\libada_drivers_library.a(nrf-clock.o)
 .ARM.attributes
                0x0000000000000318       0x32 C:\Users\aditi.DESKTOP-49PGKM5\OneDrive - USN\Dokumenter\ada\Ada_Drivers_Library_j\boards\MicroBit_v2\obj\zfp_lib_Debug\libada_drivers_library.a(nrf-device.o)
 .ARM.attributes
                0x000000000000034a       0x32 C:\Users\aditi.DESKTOP-49PGKM5\OneDrive - USN\Dokumenter\ada\Ada_Drivers_Library_j\boards\MicroBit_v2\obj\zfp_lib_Debug\libada_drivers_library.a(nrf-events.o)
 .ARM.attributes
                0x000000000000037c       0x32 C:\Users\aditi.DESKTOP-49PGKM5\OneDrive - USN\Dokumenter\ada\Ada_Drivers_Library_j\boards\MicroBit_v2\obj\zfp_lib_Debug\libada_drivers_library.a(nrf-gpio.o)
 .ARM.attributes
                0x00000000000003ae       0x32 C:\Users\aditi.DESKTOP-49PGKM5\OneDrive - USN\Dokumenter\ada\Ada_Drivers_Library_j\boards\MicroBit_v2\obj\zfp_lib_Debug\libada_drivers_library.a(nrf-interrupts.o)
 .ARM.attributes
                0x00000000000003e0       0x32 C:\Users\aditi.DESKTOP-49PGKM5\OneDrive - USN\Dokumenter\ada\Ada_Drivers_Library_j\boards\MicroBit_v2\obj\zfp_lib_Debug\libada_drivers_library.a(nrf-radio.o)
 .ARM.attributes
                0x0000000000000412       0x32 C:\Users\aditi.DESKTOP-49PGKM5\OneDrive - USN\Dokumenter\ada\Ada_Drivers_Library_j\boards\MicroBit_v2\obj\zfp_lib_Debug\libada_drivers_library.a(nrf-rtc.o)
 .ARM.attributes
                0x0000000000000444       0x32 C:\Users\aditi.DESKTOP-49PGKM5\OneDrive - USN\Dokumenter\ada\Ada_Drivers_Library_j\boards\MicroBit_v2\obj\zfp_lib_Debug\libada_drivers_library.a(nrf-spi_master.o)
 .ARM.attributes
                0x0000000000000476       0x32 C:\Users\aditi.DESKTOP-49PGKM5\OneDrive - USN\Dokumenter\ada\Ada_Drivers_Library_j\boards\MicroBit_v2\obj\zfp_lib_Debug\libada_drivers_library.a(nrf-tasks.o)
 .ARM.attributes
                0x00000000000004a8       0x32 C:\Users\aditi.DESKTOP-49PGKM5\OneDrive - USN\Dokumenter\ada\Ada_Drivers_Library_j\boards\MicroBit_v2\obj\zfp_lib_Debug\libada_drivers_library.a(nrf-timers.o)
 .ARM.attributes
                0x00000000000004da       0x32 C:\Users\aditi.DESKTOP-49PGKM5\OneDrive - USN\Dokumenter\ada\Ada_Drivers_Library_j\boards\MicroBit_v2\obj\zfp_lib_Debug\libada_drivers_library.a(nrf-twi.o)
 .ARM.attributes
                0x000000000000050c       0x32 C:\Users\aditi.DESKTOP-49PGKM5\OneDrive - USN\Dokumenter\ada\Ada_Drivers_Library_j\boards\MicroBit_v2\obj\zfp_lib_Debug\libada_drivers_library.a(nrf-uart.o)
 .ARM.attributes
                0x000000000000053e       0x32 C:\Users\aditi.DESKTOP-49PGKM5\OneDrive - USN\Dokumenter\ada\Ada_Drivers_Library_j\boards\MicroBit_v2\obj\zfp_lib_Debug\libada_drivers_library.a(nrf_svd-gpio.o)
 .ARM.attributes
                0x0000000000000570       0x32 C:\Users\aditi.DESKTOP-49PGKM5\OneDrive - USN\Dokumenter\ada\Ada_Drivers_Library_j\boards\MicroBit_v2\obj\zfp_lib_Debug\libada_drivers_library.a(nrf_svd-radio.o)
 .ARM.attributes
                0x00000000000005a2       0x32 C:\Users\aditi.DESKTOP-49PGKM5\OneDrive - USN\Dokumenter\ada\Ada_Drivers_Library_j\boards\MicroBit_v2\obj\zfp_lib_Debug\libada_drivers_library.a(nrf_svd-twi.o)
 .ARM.attributes
                0x00000000000005d4       0x37 C:\Users\aditi.DESKTOP-49PGKM5\OneDrive - USN\Dokumenter\ada\Ada_Drivers_Library_j\boards\MicroBit_v2\obj\zfp_lib_Debug\libada_drivers_library.a(hal-gpio.o)
 .ARM.attributes
                0x000000000000060b       0x37 C:\Users\aditi.DESKTOP-49PGKM5\OneDrive - USN\Dokumenter\ada\Ada_Drivers_Library_j\boards\MicroBit_v2\obj\zfp_lib_Debug\libada_drivers_library.a(hal-i2c.o)
 .ARM.attributes
                0x0000000000000642       0x32 C:\Users\aditi.DESKTOP-49PGKM5\OneDrive - USN\Dokumenter\ada\Ada_Drivers_Library_j\boards\MicroBit_v2\obj\zfp_lib_Debug\libada_drivers_library.a(hal-spi.o)
 .ARM.attributes
                0x0000000000000674       0x37 C:\Users\aditi.DESKTOP-49PGKM5\OneDrive - USN\Dokumenter\ada\Ada_Drivers_Library_j\boards\MicroBit_v2\obj\zfp_lib_Debug\libada_drivers_library.a(hal-time.o)
 .ARM.attributes
                0x00000000000006ab       0x32 C:\Users\aditi.DESKTOP-49PGKM5\OneDrive - USN\Dokumenter\ada\Ada_Drivers_Library_j\boards\MicroBit_v2\obj\zfp_lib_Debug\libada_drivers_library.a(hal-uart.o)
 .ARM.attributes
                0x00000000000006dd       0x32 C:\gnat\2021-arm-elf\arm-eabi\lib\gnat\zfp-cortex-m4f\adalib\libgnat.a(a-elchha.o)
 .ARM.attributes
                0x000000000000070f       0x32 C:\gnat\2021-arm-elf\arm-eabi\lib\gnat\zfp-cortex-m4f\adalib\libgnat.a(g-io.o)
 .ARM.attributes
                0x0000000000000741       0x32 C:\gnat\2021-arm-elf\arm-eabi\lib\gnat\zfp-cortex-m4f\adalib\libgnat.a(s-assert.o)
 .ARM.attributes
                0x0000000000000773       0x32 C:\gnat\2021-arm-elf\arm-eabi\lib\gnat\zfp-cortex-m4f\adalib\libgnat.a(s-imglli.o)
 .ARM.attributes
                0x00000000000007a5       0x32 C:\gnat\2021-arm-elf\arm-eabi\lib\gnat\zfp-cortex-m4f\adalib\libgnat.a(s-imguns.o)
 .ARM.attributes
                0x00000000000007d7       0x32 C:\gnat\2021-arm-elf\arm-eabi\lib\gnat\zfp-cortex-m4f\adalib\libgnat.a(s-macres.o)
 .ARM.attributes
                0x0000000000000809       0x32 C:\gnat\2021-arm-elf\arm-eabi\lib\gnat\zfp-cortex-m4f\adalib\libgnat.a(s-memcom.o)
 .ARM.attributes
                0x000000000000083b       0x32 C:\gnat\2021-arm-elf\arm-eabi\lib\gnat\zfp-cortex-m4f\adalib\libgnat.a(s-memcop.o)
 .ARM.attributes
                0x000000000000086d       0x32 C:\gnat\2021-arm-elf\arm-eabi\lib\gnat\zfp-cortex-m4f\adalib\libgnat.a(s-memmov.o)
 .ARM.attributes
                0x000000000000089f       0x32 C:\gnat\2021-arm-elf\arm-eabi\lib\gnat\zfp-cortex-m4f\adalib\libgnat.a(s-memset.o)
 .ARM.attributes
                0x00000000000008d1       0x32 C:\gnat\2021-arm-elf\arm-eabi\lib\gnat\zfp-cortex-m4f\adalib\libgnat.a(s-secsta.o)
 .ARM.attributes
                0x0000000000000903       0x32 C:\gnat\2021-arm-elf\arm-eabi\lib\gnat\zfp-cortex-m4f\adalib\libgnat.a(s-sssita.o)
 .ARM.attributes
                0x0000000000000935       0x32 C:\gnat\2021-arm-elf\arm-eabi\lib\gnat\zfp-cortex-m4f\adalib\libgnat.a(s-textio.o)
 .ARM.attributes
                0x0000000000000967       0x32 C:\gnat\2021-arm-elf\arm-eabi\lib\gnat\zfp-cortex-m4f\adalib\libgnat.a(a-assert.o)
 .ARM.attributes
                0x0000000000000999       0x32 C:\gnat\2021-arm-elf\arm-eabi\lib\gnat\zfp-cortex-m4f\adalib\libgnat.a(a-except.o)
 .ARM.attributes
                0x00000000000009cb       0x32 C:\gnat\2021-arm-elf\arm-eabi\lib\gnat\zfp-cortex-m4f\adalib\libgnat.a(s-semiho.o)
 .ARM.attributes
                0x00000000000009fd       0x1e c:/gnat/2021-arm-elf/bin/../lib/gcc/arm-eabi/10.3.1/thumb/v7e-m/fpv4-sp/hard\libgcc.a(_aeabi_ldivmod.o)
 .ARM.attributes
                0x0000000000000a1b       0x34 c:/gnat/2021-arm-elf/bin/../lib/gcc/arm-eabi/10.3.1/thumb/v7e-m/fpv4-sp/hard\libgcc.a(_udivmoddi4.o)
 .ARM.attributes
                0x0000000000000a4f       0x1e c:/gnat/2021-arm-elf/bin/../lib/gcc/arm-eabi/10.3.1/thumb/v7e-m/fpv4-sp/hard\libgcc.a(_dvmd_tls.o)

.gnu.attributes
 *(.gnu.attributes)

/DISCARD/
 *(.note.GNU-stack)
 *(.gnu_debuglink)
 *(.gnu.lto_*)
OUTPUT(main elf32-littlearm)
LOAD linker stubs
